TN:
SF:/home/misureivun/projects/3sem/laba3/include/DoublyList.h
FNF:0
FNH:0
LF:0
LH:0
end_of_record
TN:
SF:/home/misureivun/projects/3sem/laba3/include/ForwardList.h
FNF:0
FNH:0
LF:0
LH:0
end_of_record
TN:
SF:/home/misureivun/projects/3sem/laba3/include/binaryTree.h
FN:14,14,_ZN18CompleteBinaryTree8TreeNodeC2Ei
FNDA:22,_ZN18CompleteBinaryTree8TreeNodeC2Ei
FNF:1
FNH:1
DA:14,22
LF:1
LH:1
end_of_record
TN:
SF:/home/misureivun/projects/3sem/laba3/include/hashTable.h
FN:15,15,_ZN14ChainHashTable4NodeC2ERKNSt7__cxx1112basic_stringIcSt11char_traitsIcESaIcEEES8_
FN:20,24,_ZN14ChainHashTable7hashFunERKNSt7__cxx1112basic_stringIcSt11char_traitsIcESaIcEEE
FNDA:6,_ZN14ChainHashTable4NodeC2ERKNSt7__cxx1112basic_stringIcSt11char_traitsIcESaIcEEES8_
FNDA:37,_ZN14ChainHashTable7hashFunERKNSt7__cxx1112basic_stringIcSt11char_traitsIcESaIcEEE
FNF:2
FNH:2
DA:15,6
DA:20,37
DA:21,37
DA:22,146
DA:23,37
LF:5
LH:5
end_of_record
TN:
SF:/home/misureivun/projects/3sem/laba3/include/openHashTable.h
FN:18,23,_ZNK13HashTableOpen7hashFunERKNSt7__cxx1112basic_stringIcSt11char_traitsIcESaIcEEE
FNDA:43,_ZNK13HashTableOpen7hashFunERKNSt7__cxx1112basic_stringIcSt11char_traitsIcESaIcEEE
FNF:1
FNH:1
DA:18,43
DA:19,43
DA:20,127
DA:21,84
DA:22,43
LF:5
LH:5
end_of_record
TN:
SF:/home/misureivun/projects/3sem/laba3/include/queue.h
FNF:0
FNH:0
LF:0
LH:0
end_of_record
TN:
SF:/home/misureivun/projects/3sem/laba3/include/stack.h
FNF:0
FNH:0
LF:0
LH:0
end_of_record
TN:
SF:/home/misureivun/projects/3sem/laba3/src/DoublyList.cpp
FN:114,128,_ZN10DoublyList14DeleteBeforeDLERKNSt7__cxx1112basic_stringIcSt11char_traitsIcESaIcEEE
FN:130,145,_ZN10DoublyList15DeleteByValueDLENSt7__cxx1112basic_stringIcSt11char_traitsIcESaIcEEE
FN:147,158,_ZN10DoublyList14printForwardDLEv
FN:16,23,_ZN10DoublyList9AddHeadDLENSt7__cxx1112basic_stringIcSt11char_traitsIcESaIcEEE
FN:160,168,_ZN10DoublyList15printBackwardDLEv
FN:171,178,_ZN10DoublyList6saveDLERKNSt7__cxx1112basic_stringIcSt11char_traitsIcESaIcEEE
FN:180,188,_ZN10DoublyList6loadDLERKNSt7__cxx1112basic_stringIcSt11char_traitsIcESaIcEEE
FN:25,32,_ZN10DoublyList9AddTailDLENSt7__cxx1112basic_stringIcSt11char_traitsIcESaIcEEE
FN:3,6,_ZN10DoublyListC2Ev
FN:34,41,_ZN10DoublyList6FindDLENSt7__cxx1112basic_stringIcSt11char_traitsIcESaIcEEE
FN:43,56,_ZN10DoublyList10AddAfterDLERKNSt7__cxx1112basic_stringIcSt11char_traitsIcESaIcEEES7_
FN:58,72,_ZN10DoublyList11AddBeforeDLERKNSt7__cxx1112basic_stringIcSt11char_traitsIcESaIcEEES7_
FN:75,84,_ZN10DoublyList12DeleteHeadDLEv
FN:8,14,_ZN10DoublyListD2Ev
FN:86,95,_ZN10DoublyList12DeleteTailDLEv
FN:98,112,_ZN10DoublyList13DeleteAfterDLERKNSt7__cxx1112basic_stringIcSt11char_traitsIcESaIcEEE
FNDA:1,_ZN10DoublyList14DeleteBeforeDLERKNSt7__cxx1112basic_stringIcSt11char_traitsIcESaIcEEE
FNDA:2,_ZN10DoublyList15DeleteByValueDLENSt7__cxx1112basic_stringIcSt11char_traitsIcESaIcEEE
FNDA:1,_ZN10DoublyList14printForwardDLEv
FNDA:5,_ZN10DoublyList9AddHeadDLENSt7__cxx1112basic_stringIcSt11char_traitsIcESaIcEEE
FNDA:1,_ZN10DoublyList15printBackwardDLEv
FNDA:1,_ZN10DoublyList6saveDLERKNSt7__cxx1112basic_stringIcSt11char_traitsIcESaIcEEE
FNDA:1,_ZN10DoublyList6loadDLERKNSt7__cxx1112basic_stringIcSt11char_traitsIcESaIcEEE
FNDA:19,_ZN10DoublyList9AddTailDLENSt7__cxx1112basic_stringIcSt11char_traitsIcESaIcEEE
FNDA:9,_ZN10DoublyListC2Ev
FNDA:23,_ZN10DoublyList6FindDLENSt7__cxx1112basic_stringIcSt11char_traitsIcESaIcEEE
FNDA:1,_ZN10DoublyList10AddAfterDLERKNSt7__cxx1112basic_stringIcSt11char_traitsIcESaIcEEES7_
FNDA:1,_ZN10DoublyList11AddBeforeDLERKNSt7__cxx1112basic_stringIcSt11char_traitsIcESaIcEEES7_
FNDA:2,_ZN10DoublyList12DeleteHeadDLEv
FNDA:9,_ZN10DoublyListD2Ev
FNDA:1,_ZN10DoublyList12DeleteTailDLEv
FNDA:1,_ZN10DoublyList13DeleteAfterDLERKNSt7__cxx1112basic_stringIcSt11char_traitsIcESaIcEEE
FNF:16
FNH:16
DA:3,9
DA:4,9
DA:5,9
DA:6,9
DA:8,9
DA:9,38
DA:10,20
DA:11,20
DA:12,20
DA:14,9
DA:16,5
DA:17,5
DA:18,5
DA:19,0
DA:21,5
DA:22,5
DA:23,5
DA:25,19
DA:26,19
DA:27,19
DA:28,15
DA:30,4
DA:31,19
DA:32,19
DA:34,23
DA:35,23
DA:36,48
DA:37,41
DA:38,25
DA:40,7
DA:43,1
DA:44,1
DA:45,0
DA:46,0
DA:48,1
DA:49,1
DA:51,1
DA:52,1
DA:53,1
DA:54,0
DA:55,1
DA:58,1
DA:59,1
DA:60,0
DA:61,0
DA:63,1
DA:64,1
DA:65,0
DA:66,0
DA:69,1
DA:70,1
DA:71,1
DA:75,2
DA:76,2
DA:77,2
DA:78,2
DA:79,2
DA:80,1
DA:82,1
DA:83,2
DA:86,1
DA:87,1
DA:88,1
DA:89,1
DA:90,1
DA:91,1
DA:93,0
DA:94,1
DA:98,1
DA:99,1
DA:100,0
DA:102,1
DA:103,1
DA:104,1
DA:106,1
DA:107,1
DA:108,1
DA:109,1
DA:110,0
DA:111,1
DA:114,1
DA:115,1
DA:116,0
DA:118,1
DA:119,1
DA:120,1
DA:122,1
DA:123,1
DA:124,1
DA:125,0
DA:126,1
DA:127,1
DA:130,2
DA:131,2
DA:132,2
DA:134,2
DA:135,1
DA:136,1
DA:138,1
DA:139,0
DA:140,0
DA:142,1
DA:143,1
DA:144,1
DA:147,1
DA:148,1
DA:149,0
DA:150,0
DA:152,1
DA:153,3
DA:154,2
DA:155,2
DA:157,1
DA:160,1
DA:161,1
DA:163,2
DA:164,1
DA:165,1
DA:167,1
DA:168,1
DA:171,1
DA:172,1
DA:173,1
DA:174,4
DA:175,3
DA:176,3
DA:177,1
DA:178,1
DA:180,1
DA:181,1
DA:182,1
DA:183,1
DA:184,1
DA:185,4
DA:186,3
DA:187,1
DA:188,1
LF:137
LH:120
end_of_record
TN:
SF:/home/misureivun/projects/3sem/laba3/src/ForwardList.cpp
FN:100,113,_ZN11ForwardList12DeleteTailFLEv
FN:115,123,_ZN11ForwardList13DeleteAfterFLERKNSt7__cxx1112basic_stringIcSt11char_traitsIcESaIcEEE
FN:125,141,_ZN11ForwardList14DeleteBeforeFLERKNSt7__cxx1112basic_stringIcSt11char_traitsIcESaIcEEE
FN:13,19,_ZN11ForwardList5clearEv
FN:143,159,_ZN11ForwardList13DeleteValueFLERKNSt7__cxx1112basic_stringIcSt11char_traitsIcESaIcEEE
FN:161,168,_ZN11ForwardList6FindFLERKNSt7__cxx1112basic_stringIcSt11char_traitsIcESaIcEEE
FN:170,177,_ZN11ForwardList7printFLEv
FN:179,182,_ZN11ForwardList14printByValueFLERKNSt7__cxx1112basic_stringIcSt11char_traitsIcESaIcEEE
FN:184,191,_ZN11ForwardList14printReverseFLEPNS_14NodeSinglyListE
FN:193,200,_ZN11ForwardList6saveFLERKNSt7__cxx1112basic_stringIcSt11char_traitsIcESaIcEEE
FN:202,210,_ZN11ForwardList6loadFLERKNSt7__cxx1112basic_stringIcSt11char_traitsIcESaIcEEE
FN:21,28,_ZNK11ForwardList8containsERKNSt7__cxx1112basic_stringIcSt11char_traitsIcESaIcEEE
FN:30,38,_ZNK11ForwardList8toVectorB5cxx11Ev
FN:40,44,_ZN11ForwardList9AddHeadFLERKNSt7__cxx1112basic_stringIcSt11char_traitsIcESaIcEEE
FN:46,57,_ZN11ForwardList9AddTailFLERKNSt7__cxx1112basic_stringIcSt11char_traitsIcESaIcEEE
FN:5,7,_ZN11ForwardListC2Ev
FN:59,63,_ZN11ForwardList9AddNodeFLEPNS_14NodeSinglyListERKNSt7__cxx1112basic_stringIcSt11char_traitsIcESaIcEEE
FN:65,72,_ZN11ForwardList10AddAfterFLERKNSt7__cxx1112basic_stringIcSt11char_traitsIcESaIcEEES7_
FN:74,89,_ZN11ForwardList11AddBeforeFLERKNSt7__cxx1112basic_stringIcSt11char_traitsIcESaIcEEES7_
FN:9,11,_ZN11ForwardListD2Ev
FN:92,98,_ZN11ForwardList12DeleteHeadFLEv
FNDA:1,_ZN11ForwardList12DeleteTailFLEv
FNDA:1,_ZN11ForwardList13DeleteAfterFLERKNSt7__cxx1112basic_stringIcSt11char_traitsIcESaIcEEE
FNDA:1,_ZN11ForwardList14DeleteBeforeFLERKNSt7__cxx1112basic_stringIcSt11char_traitsIcESaIcEEE
FNDA:14,_ZN11ForwardList5clearEv
FNDA:1,_ZN11ForwardList13DeleteValueFLERKNSt7__cxx1112basic_stringIcSt11char_traitsIcESaIcEEE
FNDA:21,_ZN11ForwardList6FindFLERKNSt7__cxx1112basic_stringIcSt11char_traitsIcESaIcEEE
FNDA:2,_ZN11ForwardList7printFLEv
FNDA:1,_ZN11ForwardList14printByValueFLERKNSt7__cxx1112basic_stringIcSt11char_traitsIcESaIcEEE
FNDA:4,_ZN11ForwardList14printReverseFLEPNS_14NodeSinglyListE
FNDA:1,_ZN11ForwardList6saveFLERKNSt7__cxx1112basic_stringIcSt11char_traitsIcESaIcEEE
FNDA:1,_ZN11ForwardList6loadFLERKNSt7__cxx1112basic_stringIcSt11char_traitsIcESaIcEEE
FNDA:1,_ZNK11ForwardList8containsERKNSt7__cxx1112basic_stringIcSt11char_traitsIcESaIcEEE
FNDA:1,_ZNK11ForwardList8toVectorB5cxx11Ev
FNDA:7,_ZN11ForwardList9AddHeadFLERKNSt7__cxx1112basic_stringIcSt11char_traitsIcESaIcEEE
FNDA:24,_ZN11ForwardList9AddTailFLERKNSt7__cxx1112basic_stringIcSt11char_traitsIcESaIcEEE
FNDA:12,_ZN11ForwardListC2Ev
FNDA:2,_ZN11ForwardList9AddNodeFLEPNS_14NodeSinglyListERKNSt7__cxx1112basic_stringIcSt11char_traitsIcESaIcEEE
FNDA:1,_ZN11ForwardList10AddAfterFLERKNSt7__cxx1112basic_stringIcSt11char_traitsIcESaIcEEES7_
FNDA:2,_ZN11ForwardList11AddBeforeFLERKNSt7__cxx1112basic_stringIcSt11char_traitsIcESaIcEEES7_
FNDA:12,_ZN11ForwardListD2Ev
FNDA:2,_ZN11ForwardList12DeleteHeadFLEv
FNF:21
FNH:21
DA:5,12
DA:6,12
DA:7,12
DA:9,12
DA:10,12
DA:11,12
DA:13,14
DA:14,56
DA:15,28
DA:16,28
DA:17,28
DA:19,14
DA:21,1
DA:22,1
DA:23,1
DA:24,1
DA:25,0
DA:27,0
DA:30,1
DA:31,1
DA:32,1
DA:33,3
DA:34,2
DA:35,2
DA:37,1
DA:38,0
DA:40,7
DA:41,7
DA:42,7
DA:43,7
DA:44,7
DA:46,24
DA:47,24
DA:48,24
DA:49,6
DA:50,6
DA:52,18
DA:53,23
DA:54,5
DA:56,18
DA:59,2
DA:60,2
DA:61,2
DA:62,2
DA:63,2
DA:65,1
DA:66,1
DA:67,0
DA:68,0
DA:70,1
DA:71,1
DA:74,2
DA:75,2
DA:76,0
DA:77,0
DA:79,2
DA:80,1
DA:81,1
DA:84,1
DA:85,1
DA:86,0
DA:88,1
DA:92,2
DA:93,2
DA:94,0
DA:95,2
DA:96,2
DA:97,2
DA:100,1
DA:101,1
DA:102,1
DA:103,0
DA:104,0
DA:105,0
DA:107,1
DA:108,1
DA:109,0
DA:111,1
DA:112,1
DA:115,1
DA:116,1
DA:117,1
DA:119,1
DA:120,1
DA:121,1
DA:122,1
DA:125,1
DA:126,1
DA:127,1
DA:128,1
DA:129,1
DA:130,0
DA:131,0
DA:133,1
DA:135,1
DA:136,1
DA:138,0
DA:139,0
DA:143,1
DA:144,1
DA:145,1
DA:146,0
DA:147,0
DA:150,1
DA:151,1
DA:152,0
DA:154,1
DA:156,1
DA:157,1
DA:158,1
DA:161,21
DA:162,21
DA:163,37
DA:164,30
DA:165,16
DA:167,7
DA:170,2
DA:171,2
DA:172,5
DA:173,3
DA:174,3
DA:176,2
DA:177,2
DA:179,1
DA:180,1
DA:181,1
DA:182,1
DA:184,4
DA:185,4
DA:186,1
DA:187,1
DA:189,3
DA:190,3
DA:193,1
DA:194,1
DA:195,1
DA:196,3
DA:197,2
DA:198,2
DA:199,1
DA:200,1
DA:202,1
DA:203,1
DA:204,1
DA:205,1
DA:206,1
DA:207,3
DA:208,2
DA:209,1
DA:210,1
LF:150
LH:130
end_of_record
TN:
SF:/home/misureivun/projects/3sem/laba3/src/array.cpp
FN:13,21,_ZN5Array6resizeEi
FN:24,27,_ZN5Array9pushBackMERKNSt7__cxx1112basic_stringIcSt11char_traitsIcESaIcEEE
FN:29,40,_ZN5Array7insertMEiRKNSt7__cxx1112basic_stringIcSt11char_traitsIcESaIcEEE
FN:3,7,_ZN5ArrayC2Ev
FN:42,55,_ZN5Array7deleteMEi
FN:57,63,_ZN5Array4getMB5cxx11Ei
FN:65,71,_ZN5Array8replaceMEiNSt7__cxx1112basic_stringIcSt11char_traitsIcESaIcEEE
FN:73,83,_ZN5Array6printMEv
FN:85,87,_ZN5Array7lengthMEv
FN:89,96,_ZN5Array5loadMERKNSt7__cxx1112basic_stringIcSt11char_traitsIcESaIcEEE
FN:9,11,_ZN5ArrayD2Ev
FN:98,104,_ZN5Array5saveMERKNSt7__cxx1112basic_stringIcSt11char_traitsIcESaIcEEE
FNDA:2,_ZN5Array6resizeEi
FNDA:14,_ZN5Array9pushBackMERKNSt7__cxx1112basic_stringIcSt11char_traitsIcESaIcEEE
FNDA:1,_ZN5Array7insertMEiRKNSt7__cxx1112basic_stringIcSt11char_traitsIcESaIcEEE
FNDA:7,_ZN5ArrayC2Ev
FNDA:1,_ZN5Array7deleteMEi
FNDA:7,_ZN5Array4getMB5cxx11Ei
FNDA:1,_ZN5Array8replaceMEiNSt7__cxx1112basic_stringIcSt11char_traitsIcESaIcEEE
FNDA:2,_ZN5Array6printMEv
FNDA:2,_ZN5Array7lengthMEv
FNDA:1,_ZN5Array5loadMERKNSt7__cxx1112basic_stringIcSt11char_traitsIcESaIcEEE
FNDA:7,_ZN5ArrayD2Ev
FNDA:1,_ZN5Array5saveMERKNSt7__cxx1112basic_stringIcSt11char_traitsIcESaIcEEE
FNF:12
FNH:12
DA:3,7
DA:4,7
DA:5,21
DA:6,7
DA:7,7
DA:9,7
DA:10,25
DA:11,7
DA:13,2
DA:14,10
DA:15,6
DA:16,4
DA:18,6
DA:19,2
DA:20,2
DA:21,2
DA:24,14
DA:25,14
DA:26,14
DA:27,14
DA:29,1
DA:30,1
DA:31,0
DA:32,0
DA:35,1
DA:36,2
DA:37,1
DA:39,1
DA:42,1
DA:43,1
DA:44,0
DA:45,0
DA:47,1
DA:48,0
DA:49,0
DA:51,2
DA:52,1
DA:54,1
DA:57,7
DA:58,7
DA:60,0
DA:62,7
DA:65,1
DA:66,1
DA:68,0
DA:70,1
DA:73,2
DA:74,2
DA:75,1
DA:76,1
DA:78,1
DA:79,3
DA:80,2
DA:82,1
DA:85,2
DA:86,2
DA:89,1
DA:90,1
DA:91,1
DA:92,1
DA:93,3
DA:94,2
DA:95,1
DA:96,1
DA:98,1
DA:99,1
DA:100,3
DA:101,2
DA:103,1
DA:104,1
LF:70
LH:62
end_of_record
TN:
SF:/home/misureivun/projects/3sem/laba3/src/binaryTree.cpp
FN:106,121,_ZNK18CompleteBinaryTree5saveTERKNSt7__cxx1112basic_stringIcSt11char_traitsIcESaIcEEE
FN:11,16,_ZN18CompleteBinaryTree5clearEPNS_8TreeNodeE
FN:124,136,_ZN18CompleteBinaryTree5loadTERKNSt7__cxx1112basic_stringIcSt11char_traitsIcESaIcEEE
FN:19,42,_ZN18CompleteBinaryTree7tInsertEi
FN:3,5,_ZN18CompleteBinaryTreeC2Ev
FN:45,58,_ZNK18CompleteBinaryTree7tSearchEi
FN:61,86,_ZNK18CompleteBinaryTree10isCompleteEv
FN:7,9,_ZN18CompleteBinaryTreeD2Ev
FN:89,95,_ZNK18CompleteBinaryTree10printTNodeEPNS_8TreeNodeEi
FN:97,103,_ZNK18CompleteBinaryTree6printTEv
FNDA:2,_ZNK18CompleteBinaryTree5saveTERKNSt7__cxx1112basic_stringIcSt11char_traitsIcESaIcEEE
FNDA:45,_ZN18CompleteBinaryTree5clearEPNS_8TreeNodeE
FNDA:3,_ZN18CompleteBinaryTree5loadTERKNSt7__cxx1112basic_stringIcSt11char_traitsIcESaIcEEE
FNDA:18,_ZN18CompleteBinaryTree7tInsertEi
FNDA:8,_ZN18CompleteBinaryTreeC2Ev
FNDA:10,_ZNK18CompleteBinaryTree7tSearchEi
FNDA:7,_ZNK18CompleteBinaryTree10isCompleteEv
FNDA:8,_ZN18CompleteBinaryTreeD2Ev
FNDA:3,_ZNK18CompleteBinaryTree10printTNodeEPNS_8TreeNodeEi
FNDA:2,_ZNK18CompleteBinaryTree6printTEv
FNF:10
FNH:10
DA:3,8
DA:4,8
DA:5,8
DA:7,8
DA:8,8
DA:9,8
DA:11,45
DA:12,45
DA:13,18
DA:14,18
DA:15,18
DA:19,18
DA:20,18
DA:21,18
DA:22,6
DA:23,18
DA:26,12
DA:27,12
DA:29,14
DA:30,14
DA:32,14
DA:33,6
DA:34,6
DA:35,8
DA:37,8
DA:38,6
DA:39,6
DA:40,2
DA:42,12
DA:45,10
DA:46,10
DA:48,8
DA:49,8
DA:51,28
DA:52,18
DA:53,18
DA:54,12
DA:55,12
DA:57,2
DA:58,8
DA:61,7
DA:62,7
DA:64,4
DA:65,4
DA:66,4
DA:68,18
DA:69,14
DA:71,14
DA:72,5
DA:73,5
DA:75,9
DA:78,14
DA:79,5
DA:80,5
DA:82,9
DA:85,4
DA:86,4
DA:89,3
DA:90,3
DA:91,3
DA:92,7
DA:93,3
DA:94,3
DA:97,2
DA:98,2
DA:100,1
DA:102,1
DA:106,2
DA:107,2
DA:108,1
DA:109,1
DA:111,1
DA:112,1
DA:114,5
DA:115,3
DA:116,3
DA:117,3
DA:118,3
DA:120,1
DA:121,1
DA:124,3
DA:125,3
DA:126,3
DA:128,1
DA:129,1
DA:132,4
DA:133,3
DA:135,1
DA:136,3
LF:89
LH:89
end_of_record
TN:
SF:/home/misureivun/projects/3sem/laba3/src/hashTable.cpp
FN:18,26,_ZN14ChainHashTable8containsERKNSt7__cxx1112basic_stringIcSt11char_traitsIcESaIcEEE
FN:28,36,_ZN14ChainHashTable3getERKNSt7__cxx1112basic_stringIcSt11char_traitsIcESaIcEEE
FN:3,5,_ZN14ChainHashTableC2Ev
FN:38,45,_ZN14ChainHashTable6insertERKNSt7__cxx1112basic_stringIcSt11char_traitsIcESaIcEEES7_
FN:47,61,_ZN14ChainHashTable6removeERKNSt7__cxx1112basic_stringIcSt11char_traitsIcESaIcEEE
FN:7,16,_ZN14ChainHashTableD2Ev
FNDA:16,_ZN14ChainHashTable8containsERKNSt7__cxx1112basic_stringIcSt11char_traitsIcESaIcEEE
FNDA:10,_ZN14ChainHashTable3getERKNSt7__cxx1112basic_stringIcSt11char_traitsIcESaIcEEE
FNDA:2,_ZN14ChainHashTableC2Ev
FNDA:7,_ZN14ChainHashTable6insertERKNSt7__cxx1112basic_stringIcSt11char_traitsIcESaIcEEES7_
FNDA:5,_ZN14ChainHashTable6removeERKNSt7__cxx1112basic_stringIcSt11char_traitsIcESaIcEEE
FNDA:2,_ZN14ChainHashTableD2Ev
FNF:6
FNH:6
DA:3,2
DA:4,204
DA:5,2
DA:7,2
DA:8,204
DA:9,202
DA:10,204
DA:11,2
DA:12,2
DA:13,2
DA:16,2
DA:18,16
DA:19,16
DA:20,16
DA:21,16
DA:22,4
DA:23,0
DA:25,12
DA:28,10
DA:29,10
DA:30,10
DA:31,10
DA:32,8
DA:33,0
DA:35,4
DA:38,7
DA:39,7
DA:40,6
DA:41,6
DA:42,6
DA:43,6
DA:44,6
DA:47,5
DA:48,5
DA:49,5
DA:50,5
DA:51,5
DA:52,4
DA:53,4
DA:54,4
DA:55,4
DA:56,4
DA:58,0
DA:59,0
LF:44
LH:40
end_of_record
TN:
SF:/home/misureivun/projects/3sem/laba3/src/openHashTable.cpp
FN:11,26,_ZN13HashTableOpen6insertERKNSt7__cxx1112basic_stringIcSt11char_traitsIcESaIcEEES7_
FN:28,36,_ZNK13HashTableOpen3getERKNSt7__cxx1112basic_stringIcSt11char_traitsIcESaIcEEE
FN:3,9,_ZN13HashTableOpenC2Ev
FN:38,46,_ZNK13HashTableOpen8containsERKNSt7__cxx1112basic_stringIcSt11char_traitsIcESaIcEEE
FN:48,61,_ZN13HashTableOpen6removeERKNSt7__cxx1112basic_stringIcSt11char_traitsIcESaIcEEE
FN:63,73,_ZNK13HashTableOpen10printTableEv
FN:76,78,_ZNK13HashTableOpen10debugIndexERKNSt7__cxx1112basic_stringIcSt11char_traitsIcESaIcEEE
FNDA:28,_ZN13HashTableOpen6insertERKNSt7__cxx1112basic_stringIcSt11char_traitsIcESaIcEEES7_
FNDA:4,_ZNK13HashTableOpen3getERKNSt7__cxx1112basic_stringIcSt11char_traitsIcESaIcEEE
FNDA:12,_ZN13HashTableOpenC2Ev
FNDA:5,_ZNK13HashTableOpen8containsERKNSt7__cxx1112basic_stringIcSt11char_traitsIcESaIcEEE
FNDA:4,_ZN13HashTableOpen6removeERKNSt7__cxx1112basic_stringIcSt11char_traitsIcESaIcEEE
FNDA:1,_ZNK13HashTableOpen10printTableEv
FNDA:3,_ZNK13HashTableOpen10debugIndexERKNSt7__cxx1112basic_stringIcSt11char_traitsIcESaIcEEE
FNF:7
FNH:7
DA:3,204
DA:4,204
DA:5,192
DA:6,192
DA:7,192
DA:9,12
DA:11,28
DA:12,28
DA:13,27
DA:14,97
DA:15,96
DA:16,96
DA:17,25
DA:18,25
DA:19,25
DA:20,25
DA:22,71
DA:23,1
DA:25,1
DA:28,4
DA:29,4
DA:30,4
DA:31,4
DA:32,10
DA:33,1
DA:35,0
DA:38,5
DA:39,5
DA:40,5
DA:41,5
DA:42,5
DA:43,2
DA:45,0
DA:48,4
DA:49,4
DA:50,4
DA:51,4
DA:52,4
DA:53,3
DA:54,3
DA:55,3
DA:56,3
DA:57,3
DA:60,0
DA:63,1
DA:64,1
DA:65,17
DA:66,16
DA:67,16
DA:68,1
DA:70,15
DA:71,16
DA:73,1
DA:76,3
DA:77,3
LF:55
LH:52
end_of_record
TN:
SF:/home/misureivun/projects/3sem/laba3/src/queue.cpp
FN:16,24,_ZN5Queue5pushQENSt7__cxx1112basic_stringIcSt11char_traitsIcESaIcEEE
FN:2,5,_ZN5QueueC2Ev
FN:26,37,_ZN5Queue4popQB5cxx11Ev
FN:39,41,_ZN5Queue8isEmptyQEv
FN:44,56,_ZN5Queue6printQEv
FN:59,65,_ZN5Queue5loadQERKNSt7__cxx1112basic_stringIcSt11char_traitsIcESaIcEEE
FN:68,76,_ZN5Queue5saveQERKNSt7__cxx1112basic_stringIcSt11char_traitsIcESaIcEEE
FN:7,14,_ZN5QueueD2Ev
FNDA:12,_ZN5Queue5pushQENSt7__cxx1112basic_stringIcSt11char_traitsIcESaIcEEE
FNDA:6,_ZN5QueueC2Ev
FNDA:8,_ZN5Queue4popQB5cxx11Ev
FNDA:10,_ZN5Queue8isEmptyQEv
FNDA:2,_ZN5Queue6printQEv
FNDA:1,_ZN5Queue5loadQERKNSt7__cxx1112basic_stringIcSt11char_traitsIcESaIcEEE
FNDA:1,_ZN5Queue5saveQERKNSt7__cxx1112basic_stringIcSt11char_traitsIcESaIcEEE
FNDA:6,_ZN5QueueD2Ev
FNF:8
FNH:8
DA:2,6
DA:3,6
DA:4,6
DA:5,6
DA:7,6
DA:8,17
DA:9,5
DA:10,5
DA:11,5
DA:14,6
DA:16,12
DA:17,12
DA:18,12
DA:19,5
DA:20,5
DA:22,7
DA:23,7
DA:26,8
DA:27,8
DA:28,2
DA:30,7
DA:31,7
DA:32,7
DA:33,7
DA:34,3
DA:35,7
DA:36,7
DA:37,7
DA:39,10
DA:40,10
DA:44,2
DA:45,2
DA:46,1
DA:47,1
DA:49,1
DA:50,1
DA:51,3
DA:52,2
DA:53,2
DA:55,1
DA:59,1
DA:60,1
DA:61,1
DA:62,1
DA:63,4
DA:64,1
DA:65,1
DA:68,1
DA:69,1
DA:70,1
DA:71,4
DA:72,3
DA:73,3
DA:75,1
DA:76,1
LF:55
LH:55
end_of_record
TN:
SF:/home/misureivun/projects/3sem/laba3/src/stack.cpp
FN:15,17,_ZN5Stack8isEmptySEv
FN:19,23,_ZN5Stack5pushSENSt7__cxx1112basic_stringIcSt11char_traitsIcESaIcEEE
FN:25,35,_ZN5Stack4popSB5cxx11Ev
FN:3,5,_ZN5StackC2Ev
FN:37,42,_ZN5Stack3topB5cxx11Ev
FN:44,56,_ZN5Stack6printSEv
FN:58,62,_ZN5Stack6clearSEv
FN:63,75,_ZN5Stack5loadSERKNSt7__cxx1112basic_stringIcSt11char_traitsIcESaIcEEE
FN:7,13,_ZN5StackD2Ev
FN:77,85,_ZN5Stack5saveSERKNSt7__cxx1112basic_stringIcSt11char_traitsIcESaIcEEE
FNDA:30,_ZN5Stack8isEmptySEv
FNDA:16,_ZN5Stack5pushSENSt7__cxx1112basic_stringIcSt11char_traitsIcESaIcEEE
FNDA:12,_ZN5Stack4popSB5cxx11Ev
FNDA:6,_ZN5StackC2Ev
FNDA:3,_ZN5Stack3topB5cxx11Ev
FNDA:2,_ZN5Stack6printSEv
FNDA:2,_ZN5Stack6clearSEv
FNDA:1,_ZN5Stack5loadSERKNSt7__cxx1112basic_stringIcSt11char_traitsIcESaIcEEE
FNDA:6,_ZN5StackD2Ev
FNDA:1,_ZN5Stack5saveSERKNSt7__cxx1112basic_stringIcSt11char_traitsIcESaIcEEE
FNF:10
FNH:10
DA:3,6
DA:4,6
DA:5,6
DA:7,6
DA:8,17
DA:9,5
DA:10,5
DA:11,5
DA:13,6
DA:15,30
DA:16,30
DA:19,16
DA:20,16
DA:21,16
DA:22,16
DA:23,16
DA:25,12
DA:26,12
DA:28,2
DA:30,11
DA:31,11
DA:32,11
DA:33,11
DA:34,11
DA:35,11
DA:37,3
DA:38,3
DA:39,0
DA:41,3
DA:44,2
DA:45,2
DA:47,1
DA:49,1
DA:50,1
DA:51,3
DA:52,2
DA:53,2
DA:55,1
DA:58,2
DA:59,4
DA:60,2
DA:62,2
DA:63,1
DA:64,1
DA:65,1
DA:66,1
DA:67,1
DA:68,4
DA:69,1
DA:70,1
DA:72,4
DA:73,3
DA:75,1
DA:77,1
DA:78,1
DA:79,1
DA:80,4
DA:81,3
DA:82,3
DA:84,1
DA:85,1
LF:61
LH:60
end_of_record
TN:
SF:/home/misureivun/projects/3sem/laba3/tests/main.cpp
FN:109,109,_ZL19FLTestClear_invokerv
FN:109,109,_ZN11FLTestClear11test_methodEv
FN:118,118,_ZL25FLTestSaveAndLoad_invokerv
FN:118,118,_ZN17FLTestSaveAndLoad11test_methodEv
FN:135,135,_ZL26FLTestPrintByValue_invokerv
FN:135,135,_ZN18FLTestPrintByValue11test_methodEv
FN:155,155,_ZL26FLTestPrintReverse_invokerv
FN:155,155,_ZN18FLTestPrintReverse11test_methodEv
FN:172,172,_ZL22FLTestAddAfter_invokerv
FN:172,172,_ZN14FLTestAddAfter11test_methodEv
FN:19,19,_ZL24FLTestPrintEmpty_invokerv
FN:19,19,_ZN16FLTestPrintEmpty11test_methodEv
FN:193,193,_ZL27ATestPushBackAndGet_invokerv
FN:193,193,_ZN19ATestPushBackAndGet11test_methodEv
FN:203,213,_ZL29ATestInsertAndReplace_invokerv
FN:203,213,_ZN21ATestInsertAndReplace11test_methodEv
FN:215,215,_ZL19ATestDelete_invokerv
FN:215,215,_ZN11ATestDelete11test_methodEv
FN:226,226,_ZL24ATestSaveAndLoad_invokerv
FN:226,226,_ZN16ATestSaveAndLoad11test_methodEv
FN:243,243,_ZL27TestPrintEmptyArray_invokerv
FN:243,243,_ZN19TestPrintEmptyArray11test_methodEv
FN:257,257,_ZL22TestPrintArray_invokerv
FN:257,257,_ZN14TestPrintArray11test_methodEv
FN:279,279,_ZL25DLTestAndHeadTail_invokerv
FN:279,279,_ZN17DLTestAndHeadTail11test_methodEv
FN:292,302,_ZL28DLTestAddAfterBefore_invokerv
FN:292,302,_ZN20DLTestAddAfterBefore11test_methodEv
FN:304,304,_ZL28DLTestDeleteHeadTail_invokerv
FN:304,304,_ZN20DLTestDeleteHeadTail11test_methodEv
FN:31,31,_ZL28FLTestAddHeadAndTail_invokerv
FN:31,31,_ZN20FLTestAddHeadAndTail11test_methodEv
FN:317,317,_ZL36DLTestDeleteAfterBeforeValue_invokerv
FN:317,317,_ZN28DLTestDeleteAfterBeforeValue11test_methodEv
FN:333,333,_ZL22DLTestSaveLoad_invokerv
FN:333,333,_ZN14DLTestSaveLoad11test_methodEv
FN:350,350,_ZL27TestDeleteByValueDL_invokerv
FN:350,350,_ZN19TestDeleteByValueDL11test_methodEv
FN:364,364,_ZL26TestPrintForwardDL_invokerv
FN:364,364,_ZN18TestPrintForwardDL11test_methodEv
FN:381,381,_ZL27TestPrintBackwardDL_invokerv
FN:381,381,_ZN19TestPrintBackwardDL11test_methodEv
FN:40,40,_ZL31FLTestAddAfterAndBefore_invokerv
FN:40,40,_ZN23FLTestAddAfterAndBefore11test_methodEv
FN:400,417,_ZL20QTestPushPop_invokerv
FN:400,417,_ZN12QTestPushPop11test_methodEv
FN:419,419,_ZL20QTestIsEmpty_invokerv
FN:419,419,_ZN12QTestIsEmpty11test_methodEv
FN:428,428,_ZL21QTestSaveLoad_invokerv
FN:428,428,_ZN13QTestSaveLoad11test_methodEv
FN:448,448,_ZL27TestPrintEmptyQueue_invokerv
FN:448,448,_ZN19TestPrintEmptyQueue11test_methodEv
FN:462,462,_ZL22TestPrintQueue_invokerv
FN:462,462,_ZN14TestPrintQueue11test_methodEv
FN:481,481,_ZL28StackBasicOperations_invokerv
FN:481,481,_ZN20StackBasicOperations11test_methodEv
FN:51,51,_ZL29FLTestAddBeforeMiddle_invokerv
FN:51,51,_ZN21FLTestAddBeforeMiddle11test_methodEv
FN:520,520,_ZL21StackSaveLoad_invokerv
FN:520,520,_ZN13StackSaveLoad11test_methodEv
FN:539,552,_ZL27TestPrintEmptyStack_invokerv
FN:539,552,_ZN19TestPrintEmptyStack11test_methodEv
FN:554,554,_ZL22TestPrintStack_invokerv
FN:554,554,_ZN14TestPrintStack11test_methodEv
FN:573,573,_ZL37ChainHashTableBasicOperations_invokerv
FN:573,573,_ZN29ChainHashTableBasicOperations11test_methodEv
FN:615,615,_ZL39ChainHashTableCollisionHandling_invokerv
FN:615,615,_ZN31ChainHashTableCollisionHandling11test_methodEv
FN:638,638,_ZL31TreeTestInsertAndSearch_invokerv
FN:638,638,_ZN23TreeTestInsertAndSearch11test_methodEv
FN:651,651,_ZL26TreeTestIsComplete_invokerv
FN:651,651,_ZN18TreeTestIsComplete11test_methodEv
FN:688,688,_ZL27TreeTestSaveAndLoad_invokerv
FN:688,688,_ZN19TreeTestSaveAndLoad11test_methodEv
FN:71,71,_ZL27FLTestAddBeforeHead_invokerv
FN:71,71,_ZN19FLTestAddBeforeHead11test_methodEv
FN:711,711,_ZL21TestPrintTree_invokerv
FN:711,711,_ZN13TestPrintTree11test_methodEv
FN:722,722,_ZL31TestEmptyTreeOperations_invokerv
FN:722,722,_ZN23TestEmptyTreeOperations11test_methodEv
FN:743,743,_ZL26OHTTestInsertBasic_invokerv
FN:743,743,_ZN18OHTTestInsertBasic11test_methodEv
FN:751,751,_ZL30OHTTestInsertDuplicate_invokerv
FN:751,751,_ZN22OHTTestInsertDuplicate11test_methodEv
FN:758,758,_ZL29OHTTestInsertEmptyKey_invokerv
FN:758,758,_ZN21OHTTestInsertEmptyKey11test_methodEv
FN:764,764,_ZL37OHTTestLinearProbingCollision_invokerv
FN:764,764,_ZN29OHTTestLinearProbingCollision11test_methodEv
FN:783,783,_ZL26OHTTestGetNotFound_invokerv
FN:783,783,_ZN18OHTTestGetNotFound11test_methodEv
FN:791,791,_ZL31OHTTestGetStopsOnUnused_invokerv
FN:791,791,_ZN23OHTTestGetStopsOnUnused11test_methodEv
FN:800,800,_ZL23OHTTestContains_invokerv
FN:800,800,_ZN15OHTTestContains11test_methodEv
FN:809,809,_ZL36OHTTestContainsStopsOnUnused_invokerv
FN:809,809,_ZN28OHTTestContainsStopsOnUnused11test_methodEv
FN:818,818,_ZL21OHTTestRemove_invokerv
FN:818,818,_ZN13OHTTestRemove11test_methodEv
FN:828,828,_ZL29OHTTestRemoveNotFound_invokerv
FN:828,828,_ZN21OHTTestRemoveNotFound11test_methodEv
FN:836,836,_ZL25OHTTestPrintTable_invokerv
FN:836,836,_ZN17OHTTestPrintTable11test_methodEv
FN:84,107,_ZL30FLTestDeleteOperations_invokerv
FN:84,107,_ZN22FLTestDeleteOperations11test_methodEv
FN:853,859,_ZL30OHTTestHashDeterminism_invokerv
FN:853,859,_ZN22OHTTestHashDeterminism11test_methodEv
FNDA:1,_ZL19FLTestClear_invokerv
FNDA:1,_ZN11FLTestClear11test_methodEv
FNDA:1,_ZL25FLTestSaveAndLoad_invokerv
FNDA:1,_ZN17FLTestSaveAndLoad11test_methodEv
FNDA:1,_ZL26FLTestPrintByValue_invokerv
FNDA:1,_ZN18FLTestPrintByValue11test_methodEv
FNDA:1,_ZL26FLTestPrintReverse_invokerv
FNDA:1,_ZN18FLTestPrintReverse11test_methodEv
FNDA:1,_ZL22FLTestAddAfter_invokerv
FNDA:1,_ZN14FLTestAddAfter11test_methodEv
FNDA:1,_ZL24FLTestPrintEmpty_invokerv
FNDA:1,_ZN16FLTestPrintEmpty11test_methodEv
FNDA:1,_ZL27ATestPushBackAndGet_invokerv
FNDA:1,_ZN19ATestPushBackAndGet11test_methodEv
FNDA:1,_ZL29ATestInsertAndReplace_invokerv
FNDA:1,_ZN21ATestInsertAndReplace11test_methodEv
FNDA:1,_ZL19ATestDelete_invokerv
FNDA:1,_ZN11ATestDelete11test_methodEv
FNDA:1,_ZL24ATestSaveAndLoad_invokerv
FNDA:1,_ZN16ATestSaveAndLoad11test_methodEv
FNDA:1,_ZL27TestPrintEmptyArray_invokerv
FNDA:1,_ZN19TestPrintEmptyArray11test_methodEv
FNDA:1,_ZL22TestPrintArray_invokerv
FNDA:1,_ZN14TestPrintArray11test_methodEv
FNDA:1,_ZL25DLTestAndHeadTail_invokerv
FNDA:1,_ZN17DLTestAndHeadTail11test_methodEv
FNDA:1,_ZL28DLTestAddAfterBefore_invokerv
FNDA:1,_ZN20DLTestAddAfterBefore11test_methodEv
FNDA:1,_ZL28DLTestDeleteHeadTail_invokerv
FNDA:1,_ZN20DLTestDeleteHeadTail11test_methodEv
FNDA:1,_ZL28FLTestAddHeadAndTail_invokerv
FNDA:1,_ZN20FLTestAddHeadAndTail11test_methodEv
FNDA:1,_ZL36DLTestDeleteAfterBeforeValue_invokerv
FNDA:1,_ZN28DLTestDeleteAfterBeforeValue11test_methodEv
FNDA:1,_ZL22DLTestSaveLoad_invokerv
FNDA:1,_ZN14DLTestSaveLoad11test_methodEv
FNDA:1,_ZL27TestDeleteByValueDL_invokerv
FNDA:1,_ZN19TestDeleteByValueDL11test_methodEv
FNDA:1,_ZL26TestPrintForwardDL_invokerv
FNDA:1,_ZN18TestPrintForwardDL11test_methodEv
FNDA:1,_ZL27TestPrintBackwardDL_invokerv
FNDA:1,_ZN19TestPrintBackwardDL11test_methodEv
FNDA:1,_ZL31FLTestAddAfterAndBefore_invokerv
FNDA:1,_ZN23FLTestAddAfterAndBefore11test_methodEv
FNDA:1,_ZL20QTestPushPop_invokerv
FNDA:1,_ZN12QTestPushPop11test_methodEv
FNDA:1,_ZL20QTestIsEmpty_invokerv
FNDA:1,_ZN12QTestIsEmpty11test_methodEv
FNDA:1,_ZL21QTestSaveLoad_invokerv
FNDA:1,_ZN13QTestSaveLoad11test_methodEv
FNDA:1,_ZL27TestPrintEmptyQueue_invokerv
FNDA:1,_ZN19TestPrintEmptyQueue11test_methodEv
FNDA:1,_ZL22TestPrintQueue_invokerv
FNDA:1,_ZN14TestPrintQueue11test_methodEv
FNDA:1,_ZL28StackBasicOperations_invokerv
FNDA:1,_ZN20StackBasicOperations11test_methodEv
FNDA:1,_ZL29FLTestAddBeforeMiddle_invokerv
FNDA:1,_ZN21FLTestAddBeforeMiddle11test_methodEv
FNDA:1,_ZL21StackSaveLoad_invokerv
FNDA:1,_ZN13StackSaveLoad11test_methodEv
FNDA:1,_ZL27TestPrintEmptyStack_invokerv
FNDA:1,_ZN19TestPrintEmptyStack11test_methodEv
FNDA:1,_ZL22TestPrintStack_invokerv
FNDA:1,_ZN14TestPrintStack11test_methodEv
FNDA:1,_ZL37ChainHashTableBasicOperations_invokerv
FNDA:1,_ZN29ChainHashTableBasicOperations11test_methodEv
FNDA:1,_ZL39ChainHashTableCollisionHandling_invokerv
FNDA:1,_ZN31ChainHashTableCollisionHandling11test_methodEv
FNDA:1,_ZL31TreeTestInsertAndSearch_invokerv
FNDA:1,_ZN23TreeTestInsertAndSearch11test_methodEv
FNDA:1,_ZL26TreeTestIsComplete_invokerv
FNDA:1,_ZN18TreeTestIsComplete11test_methodEv
FNDA:1,_ZL27TreeTestSaveAndLoad_invokerv
FNDA:1,_ZN19TreeTestSaveAndLoad11test_methodEv
FNDA:1,_ZL27FLTestAddBeforeHead_invokerv
FNDA:1,_ZN19FLTestAddBeforeHead11test_methodEv
FNDA:1,_ZL21TestPrintTree_invokerv
FNDA:1,_ZN13TestPrintTree11test_methodEv
FNDA:1,_ZL31TestEmptyTreeOperations_invokerv
FNDA:1,_ZN23TestEmptyTreeOperations11test_methodEv
FNDA:1,_ZL26OHTTestInsertBasic_invokerv
FNDA:1,_ZN18OHTTestInsertBasic11test_methodEv
FNDA:1,_ZL30OHTTestInsertDuplicate_invokerv
FNDA:1,_ZN22OHTTestInsertDuplicate11test_methodEv
FNDA:1,_ZL29OHTTestInsertEmptyKey_invokerv
FNDA:1,_ZN21OHTTestInsertEmptyKey11test_methodEv
FNDA:1,_ZL37OHTTestLinearProbingCollision_invokerv
FNDA:1,_ZN29OHTTestLinearProbingCollision11test_methodEv
FNDA:1,_ZL26OHTTestGetNotFound_invokerv
FNDA:1,_ZN18OHTTestGetNotFound11test_methodEv
FNDA:1,_ZL31OHTTestGetStopsOnUnused_invokerv
FNDA:1,_ZN23OHTTestGetStopsOnUnused11test_methodEv
FNDA:1,_ZL23OHTTestContains_invokerv
FNDA:1,_ZN15OHTTestContains11test_methodEv
FNDA:1,_ZL36OHTTestContainsStopsOnUnused_invokerv
FNDA:1,_ZN28OHTTestContainsStopsOnUnused11test_methodEv
FNDA:1,_ZL21OHTTestRemove_invokerv
FNDA:1,_ZN13OHTTestRemove11test_methodEv
FNDA:1,_ZL29OHTTestRemoveNotFound_invokerv
FNDA:1,_ZN21OHTTestRemoveNotFound11test_methodEv
FNDA:1,_ZL25OHTTestPrintTable_invokerv
FNDA:1,_ZN17OHTTestPrintTable11test_methodEv
FNDA:1,_ZL30FLTestDeleteOperations_invokerv
FNDA:1,_ZN22FLTestDeleteOperations11test_methodEv
FNDA:1,_ZL30OHTTestHashDeterminism_invokerv
FNDA:1,_ZN22OHTTestHashDeterminism11test_methodEv
FNF:106
FNH:106
DA:19,2
DA:21,1
DA:22,1
DA:23,1
DA:25,1
DA:27,1
DA:28,1
DA:29,1
DA:31,2
DA:32,1
DA:33,2
DA:34,2
DA:36,3
DA:37,3
DA:38,1
DA:40,2
DA:41,1
DA:42,2
DA:43,2
DA:44,3
DA:45,1
DA:46,1
DA:47,1
DA:48,1
DA:49,1
DA:51,2
DA:53,1
DA:54,2
DA:55,2
DA:56,2
DA:58,4
DA:61,2
DA:62,1
DA:64,1
DA:65,1
DA:67,3
DA:68,3
DA:69,1
DA:71,2
DA:73,1
DA:74,2
DA:75,2
DA:77,4
DA:79,2
DA:80,1
DA:81,1
DA:82,1
DA:84,2
DA:85,1
DA:86,2
DA:87,2
DA:88,1
DA:90,1
DA:91,3
DA:93,1
DA:94,3
DA:96,2
DA:97,2
DA:98,3
DA:100,2
DA:101,2
DA:102,3
DA:104,2
DA:105,2
DA:106,3
DA:107,1
DA:109,2
DA:110,1
DA:111,2
DA:112,1
DA:113,1
DA:114,3
DA:115,3
DA:116,1
DA:118,2
DA:119,1
DA:120,2
DA:121,2
DA:122,1
DA:124,1
DA:125,2
DA:127,3
DA:128,3
DA:130,1
DA:131,1
DA:135,2
DA:137,1
DA:138,2
DA:139,2
DA:140,1
DA:142,1
DA:143,1
DA:145,1
DA:147,1
DA:150,1
DA:151,1
DA:152,1
DA:153,1
DA:155,2
DA:157,1
DA:158,2
DA:159,2
DA:160,1
DA:162,1
DA:163,1
DA:165,1
DA:167,1
DA:169,1
DA:170,1
DA:172,2
DA:174,1
DA:175,2
DA:176,2
DA:177,2
DA:179,4
DA:181,2
DA:182,1
DA:183,1
DA:185,1
DA:186,3
DA:187,1
DA:193,2
DA:194,1
DA:195,2
DA:196,2
DA:198,1
DA:199,1
DA:200,1
DA:201,1
DA:203,2
DA:204,1
DA:205,2
DA:206,2
DA:208,2
DA:209,1
DA:211,2
DA:212,1
DA:213,1
DA:215,2
DA:216,1
DA:217,2
DA:218,2
DA:219,1
DA:221,1
DA:222,1
DA:223,1
DA:224,1
DA:226,2
DA:227,1
DA:228,2
DA:229,2
DA:230,1
DA:232,1
DA:233,2
DA:235,1
DA:236,1
DA:238,1
DA:239,1
DA:243,2
DA:245,1
DA:247,1
DA:248,1
DA:250,1
DA:252,1
DA:254,1
DA:255,1
DA:257,2
DA:259,1
DA:260,2
DA:261,1
DA:263,1
DA:264,1
DA:266,1
DA:268,1
DA:270,1
DA:271,1
DA:272,1
DA:279,2
DA:280,1
DA:282,2
DA:283,2
DA:284,2
DA:286,3
DA:287,3
DA:288,3
DA:289,3
DA:290,1
DA:292,2
DA:293,1
DA:294,2
DA:295,2
DA:297,4
DA:298,4
DA:300,3
DA:301,3
DA:302,1
DA:304,2
DA:305,1
DA:306,2
DA:307,2
DA:308,1
DA:310,1
DA:311,3
DA:313,1
DA:314,3
DA:315,1
DA:317,2
DA:318,1
DA:319,2
DA:320,2
DA:321,2
DA:323,2
DA:324,3
DA:326,2
DA:327,3
DA:329,2
DA:330,3
DA:331,1
DA:333,2
DA:334,1
DA:335,2
DA:336,2
DA:337,2
DA:339,1
DA:341,1
DA:342,2
DA:344,3
DA:345,3
DA:346,3
DA:347,1
DA:350,2
DA:352,1
DA:353,2
DA:354,2
DA:355,2
DA:357,2
DA:359,3
DA:360,3
DA:361,3
DA:362,1
DA:364,2
DA:366,1
DA:367,2
DA:368,1
DA:370,1
DA:371,1
DA:373,1
DA:375,1
DA:377,1
DA:378,1
DA:379,1
DA:381,2
DA:383,1
DA:384,2
DA:385,1
DA:387,1
DA:388,1
DA:390,1
DA:392,1
DA:395,1
DA:396,1
DA:400,2
DA:401,1
DA:402,1
DA:404,2
DA:405,2
DA:406,2
DA:408,1
DA:410,1
DA:411,1
DA:412,1
DA:413,1
DA:416,1
DA:417,1
DA:419,2
DA:420,1
DA:421,1
DA:422,2
DA:423,1
DA:424,1
DA:425,1
DA:426,1
DA:428,2
DA:429,1
DA:430,2
DA:431,2
DA:432,2
DA:434,1
DA:436,1
DA:437,2
DA:439,1
DA:440,1
DA:441,1
DA:442,1
DA:443,1
DA:444,1
DA:448,2
DA:450,1
DA:452,1
DA:453,1
DA:455,1
DA:457,1
DA:459,1
DA:460,1
DA:462,2
DA:464,1
DA:465,2
DA:466,1
DA:468,1
DA:469,1
DA:471,1
DA:473,1
DA:475,1
DA:476,1
DA:477,1
DA:481,2
DA:483,1
DA:486,1
DA:489,2
DA:490,2
DA:491,2
DA:493,1
DA:494,1
DA:497,1
DA:498,1
DA:499,1
DA:501,1
DA:502,1
DA:503,1
DA:505,1
DA:506,1
DA:507,1
DA:510,1
DA:511,1
DA:514,2
DA:515,1
DA:516,1
DA:517,1
DA:518,1
DA:520,2
DA:522,1
DA:523,2
DA:524,2
DA:525,2
DA:527,1
DA:529,1
DA:530,2
DA:532,1
DA:533,1
DA:534,1
DA:535,1
DA:536,1
DA:539,2
DA:541,1
DA:543,1
DA:544,1
DA:546,1
DA:548,1
DA:551,1
DA:552,1
DA:554,2
DA:556,1
DA:557,2
DA:558,1
DA:560,1
DA:561,1
DA:563,1
DA:565,1
DA:567,1
DA:568,1
DA:569,1
DA:573,2
DA:575,1
DA:578,3
DA:581,5
DA:582,5
DA:583,5
DA:586,3
DA:587,3
DA:588,3
DA:589,3
DA:592,3
DA:593,3
DA:594,3
DA:595,3
DA:598,5
DA:601,2
DA:602,3
DA:603,3
DA:605,2
DA:606,3
DA:608,2
DA:609,3
DA:612,1
DA:613,1
DA:615,2
DA:617,1
DA:620,4
DA:621,4
DA:622,4
DA:625,3
DA:626,3
DA:627,3
DA:630,2
DA:631,3
DA:632,3
DA:633,3
DA:634,1
DA:638,2
DA:640,1
DA:641,1
DA:642,1
DA:643,1
DA:645,1
DA:646,1
DA:647,1
DA:648,1
DA:649,1
DA:651,2
DA:653,1
DA:655,1
DA:657,1
DA:658,1
DA:660,1
DA:661,1
DA:662,1
DA:664,1
DA:665,1
DA:666,1
DA:669,1
DA:670,1
DA:671,1
DA:672,1
DA:675,1
DA:676,1
DA:677,1
DA:680,1
DA:681,1
DA:682,1
DA:685,1
DA:686,1
DA:688,2
DA:690,1
DA:692,1
DA:693,1
DA:694,1
DA:695,1
DA:697,1
DA:699,1
DA:700,1
DA:702,1
DA:703,1
DA:704,1
DA:705,1
DA:708,1
DA:709,1
DA:711,2
DA:713,1
DA:714,1
DA:715,1
DA:716,1
DA:719,1
DA:720,1
DA:722,2
DA:724,1
DA:727,1
DA:728,1
DA:729,1
DA:731,1
DA:732,1
DA:733,1
DA:734,1
DA:735,1
DA:736,1
DA:738,1
DA:739,1
DA:743,2
DA:745,1
DA:746,5
DA:747,3
DA:748,3
DA:749,1
DA:751,2
DA:753,1
DA:754,5
DA:755,5
DA:756,1
DA:758,2
DA:760,1
DA:761,5
DA:762,1
DA:764,2
DA:766,1
DA:770,1
DA:773,17
DA:774,16
DA:775,16
DA:776,16
DA:777,16
DA:780,5
DA:781,1
DA:783,2
DA:785,1
DA:786,4
DA:788,3
DA:789,1
DA:791,2
DA:793,1
DA:794,4
DA:795,2
DA:797,3
DA:798,1
DA:800,2
DA:802,1
DA:803,4
DA:805,3
DA:806,3
DA:807,1
DA:809,2
DA:811,1
DA:812,4
DA:813,2
DA:815,3
DA:816,1
DA:818,2
DA:820,1
DA:821,4
DA:823,3
DA:824,3
DA:825,3
DA:826,1
DA:828,2
DA:830,1
DA:831,4
DA:833,3
DA:834,1
DA:836,2
DA:838,1
DA:839,3
DA:841,1
DA:842,1
DA:844,1
DA:846,1
DA:848,1
DA:849,1
DA:850,1
DA:851,1
DA:853,2
DA:855,1
DA:856,2
DA:857,2
DA:858,1
DA:859,1
LF:553
LH:553
end_of_record
TN:
SF:/usr/include/boost/algorithm/cxx11/all_of.hpp
FN:31,37,_ZN5boost9algorithm6all_ofIN9__gnu_cxx17__normal_iteratorIPcNSt7__cxx1112basic_stringIcSt11char_traitsIcESaIcEEEEEPFbcEEEbT_SE_T0_
FNDA:215,_ZN5boost9algorithm6all_ofIN9__gnu_cxx17__normal_iteratorIPcNSt7__cxx1112basic_stringIcSt11char_traitsIcESaIcEEEEEPFbcEEEbT_SE_T0_
FNF:1
FNH:1
DA:31,215
DA:33,1131
DA:34,916
DA:35,0
DA:36,215
LF:5
LH:4
end_of_record
TN:
SF:/usr/include/boost/bind/arg.hpp
FN:39,41,_ZN5boost3argILi1EEC1Ev
FNDA:0,_ZN5boost3argILi1EEC1Ev
FNF:1
FNH:0
DA:39,0
DA:41,0
LF:2
LH:0
end_of_record
TN:
SF:/usr/include/boost/bind/bind.hpp
FN:102,102,_ZN5boost3_bi5valueINS_10shared_ptrINS_9unit_test17test_unit_fixtureEEEEC2ERKS5_
FN:102,102,_ZN5boost3_bi5valueINS_9unit_test13output_formatEEC2ERKS3_
FN:102,102,_ZN5boost3_bi5valueINS_9unit_test17test_case_counter19readonly_property43EEC2ERKS4_
FN:102,102,_ZN5boost3_bi5valueIPFPNS_9unit_test10test_suiteEiPPcEEC2ERKS8_
FN:102,102,_ZN5boost3_bi5valueIPNS_9unit_test13test_observerEEC2ERKS4_
FN:102,102,_ZN5boost3_bi5valueIPNS_9unit_test15unit_test_log_tEEC2ERKS4_
FN:102,102,_ZN5boost3_bi5valueImEC2ERKm
FN:104,104,_ZN5boost3_bi5valueINS_10shared_ptrINS_9unit_test17test_unit_fixtureEEEE3getEv
FN:104,104,_ZN5boost3_bi5valueINS_9unit_test13output_formatEE3getEv
FN:104,104,_ZN5boost3_bi5valueINS_9unit_test17test_case_counter19readonly_property43EE3getEv
FN:104,104,_ZN5boost3_bi5valueIPFPNS_9unit_test10test_suiteEiPPcEE3getEv
FN:104,104,_ZN5boost3_bi5valueIPNS_9unit_test13test_observerEE3getEv
FN:104,104,_ZN5boost3_bi5valueIPNS_9unit_test15unit_test_log_tEE3getEv
FN:104,104,_ZN5boost3_bi5valueImE3getEv
FN:1267,1267,_ZN5boost3_bi6bind_tIbNS_4_mfi4cmf1IbNS_9unit_test9framework4impl11name_filter9componentERKNS4_9test_unitEEENS0_5list2INS_3argILi1EEENS_17reference_wrapperISA_EEEEEC2ESC_RKSI_
FN:1267,1267,_ZN5boost3_bi6bind_tIvNS_4_mfi3mf0IvNS_9unit_test17test_unit_fixtureEEENS0_5list1INS0_5valueINS_10shared_ptrIS5_EEEEEEEC2ES6_RKSC_
FN:1267,1267,_ZN5boost3_bi6bind_tIvNS_4_mfi3mf1IvNS_9unit_test15unit_test_log_tERSoEENS0_5list2INS0_5valueIPS5_EENS_17reference_wrapperISoEEEEEC2ES7_RKSE_
FN:1267,1267,_ZN5boost3_bi6bind_tIvNS_4_mfi3mf2IvNS_9unit_test13test_observerEmmEENS0_5list3INS0_5valueIPS5_EENS8_INS4_17test_case_counter19readonly_property43EEENS8_ImEEEEEC2ES6_RKSF_
FN:1267,1267,_ZN5boost3_bi6bind_tIvNS_4_mfi3mf2IvNS_9unit_test15unit_test_log_tENS4_13output_formatERSoEENS0_5list3INS0_5valueIPS5_EENSA_IS6_EENS_17reference_wrapperISoEEEEEC2ES8_RKSG_
FN:1267,1267,_ZN5boost3_bi6bind_tIvPFvPFPNS_9unit_test10test_suiteEiPPcEENS0_5list1INS0_5valueIS8_EEEEEC2ESA_RKSE_
FN:1267,1267,_ZN5boost3_bi6bind_tIvPFvRSoENS0_5list1INS_17reference_wrapperISoEEEEEC2ES4_RKS8_
FN:1271,1275,_ZN5boost3_bi6bind_tIvNS_4_mfi3mf0IvNS_9unit_test17test_unit_fixtureEEENS0_5list1INS0_5valueINS_10shared_ptrIS5_EEEEEEEclEv
FN:1271,1275,_ZN5boost3_bi6bind_tIvNS_4_mfi3mf1IvNS_9unit_test15unit_test_log_tERSoEENS0_5list2INS0_5valueIPS5_EENS_17reference_wrapperISoEEEEEclEv
FN:1271,1275,_ZN5boost3_bi6bind_tIvNS_4_mfi3mf2IvNS_9unit_test13test_observerEmmEENS0_5list3INS0_5valueIPS5_EENS8_INS4_17test_case_counter19readonly_property43EEENS8_ImEEEEEclEv
FN:1271,1275,_ZN5boost3_bi6bind_tIvNS_4_mfi3mf2IvNS_9unit_test15unit_test_log_tENS4_13output_formatERSoEENS0_5list3INS0_5valueIPS5_EENSA_IS6_EENS_17reference_wrapperISoEEEEEclEv
FN:1271,1275,_ZN5boost3_bi6bind_tIvPFvPFPNS_9unit_test10test_suiteEiPPcEENS0_5list1INS0_5valueIS8_EEEEEclEv
FN:1271,1275,_ZN5boost3_bi6bind_tIvPFvRSoENS0_5list1INS_17reference_wrapperISoEEEEEclEv
FN:1283,1287,_ZN5boost3_bi6bind_tIbNS_4_mfi4cmf1IbNS_9unit_test9framework4impl11name_filter9componentERKNS4_9test_unitEEENS0_5list2INS_3argILi1EEENS_17reference_wrapperISA_EEEEEclIRKS8_EEbOT_
FN:132,135,_ZN5boost3_bi9unwrapperINS_4_mfi3mf0IvNS_9unit_test17test_unit_fixtureEEEE6unwrapERS6_l
FN:132,135,_ZN5boost3_bi9unwrapperINS_4_mfi3mf1IvNS_9unit_test15unit_test_log_tERSoEEE6unwrapERS7_l
FN:132,135,_ZN5boost3_bi9unwrapperINS_4_mfi3mf2IvNS_9unit_test13test_observerEmmEEE6unwrapERS6_l
FN:132,135,_ZN5boost3_bi9unwrapperINS_4_mfi3mf2IvNS_9unit_test15unit_test_log_tENS4_13output_formatERSoEEE6unwrapERS8_l
FN:132,135,_ZN5boost3_bi9unwrapperINS_4_mfi4cmf1IbNS_9unit_test9framework4impl11name_filter9componentERKNS4_9test_unitEEEE6unwrapERSC_l
FN:132,135,_ZN5boost3_bi9unwrapperIPFvPFPNS_9unit_test10test_suiteEiPPcEEE6unwrapERSA_l
FN:132,135,_ZN5boost3_bi9unwrapperIPFvRSoEE6unwrapERS4_l
FN:154,154,_ZN5boost3_bi5list0C2Ev
FN:156,156,_ZNK5boost3_bi5list0ixINS_10shared_ptrINS_9unit_test17test_unit_fixtureEEEEERT_RNS0_5valueIS7_EE
FN:156,156,_ZNK5boost3_bi5list0ixINS_9unit_test13output_formatEEERT_RNS0_5valueIS5_EE
FN:156,156,_ZNK5boost3_bi5list0ixINS_9unit_test17test_case_counter19readonly_property43EEERT_RNS0_5valueIS6_EE
FN:156,156,_ZNK5boost3_bi5list0ixIPFPNS_9unit_test10test_suiteEiPPcEEERT_RNS0_5valueISA_EE
FN:156,156,_ZNK5boost3_bi5list0ixIPNS_9unit_test13test_observerEEERT_RNS0_5valueIS6_EE
FN:156,156,_ZNK5boost3_bi5list0ixIPNS_9unit_test15unit_test_log_tEEERT_RNS0_5valueIS6_EE
FN:156,156,_ZNK5boost3_bi5list0ixImEERT_RNS0_5valueIS3_EE
FN:160,160,_ZNK5boost3_bi5list0ixISoEERT_RKNS_17reference_wrapperIS3_EE
FN:211,211,_ZN5boost3_bi5list1INS0_5valueINS_10shared_ptrINS_9unit_test17test_unit_fixtureEEEEEEC2ES7_
FN:211,211,_ZN5boost3_bi5list1INS0_5valueIPFPNS_9unit_test10test_suiteEiPPcEEEEC2ESA_
FN:211,211,_ZN5boost3_bi5list1INS_17reference_wrapperISoEEEC2ES3_
FN:237,240,_ZN5boost3_bi5list1INS0_5valueINS_10shared_ptrINS_9unit_test17test_unit_fixtureEEEEEEclINS_4_mfi3mf0IvS5_EENS0_5list0EEEvNS0_4typeIvEERT_RT0_i
FN:237,240,_ZN5boost3_bi5list1INS0_5valueIPFPNS_9unit_test10test_suiteEiPPcEEEEclIPFvS9_ENS0_5list0EEEvNS0_4typeIvEERT_RT0_i
FN:237,240,_ZN5boost3_bi5list1INS_17reference_wrapperISoEEEclIPFvRSoENS0_5list0EEEvNS0_4typeIvEERT_RT0_i
FN:269,269,_ZN5boost3_bi5list2INS0_5valueIPNS_9unit_test15unit_test_log_tEEENS_17reference_wrapperISoEEEC2ES6_S8_
FN:269,269,_ZN5boost3_bi5list2INS_3argILi1EEENS_17reference_wrapperIKNS_9unit_test9test_unitEEEEC2ES3_S8_
FN:287,290,_ZN5boost3_bi5list2INS_3argILi1EEENS_17reference_wrapperIKNS_9unit_test9test_unitEEEEclIbNS_4_mfi4cmf1IbNS5_9framework4impl11name_filter9componentERS7_EENS0_7rrlist1IRKSG_EEEET_NS0_4typeISN_EERT0_RT1_l
FN:297,300,_ZN5boost3_bi5list2INS0_5valueIPNS_9unit_test15unit_test_log_tEEENS_17reference_wrapperISoEEEclINS_4_mfi3mf1IvS4_RSoEENS0_5list0EEEvNS0_4typeIvEERT_RT0_i
FN:346,346,_ZN5boost3_bi5list3INS0_5valueIPNS_9unit_test13test_observerEEENS2_INS3_17test_case_counter19readonly_property43EEENS2_ImEEEC2ES6_S9_SA_
FN:346,346,_ZN5boost3_bi5list3INS0_5valueIPNS_9unit_test15unit_test_log_tEEENS2_INS3_13output_formatEEENS_17reference_wrapperISoEEEC2ES6_S8_SA_
FN:376,379,_ZN5boost3_bi5list3INS0_5valueIPNS_9unit_test13test_observerEEENS2_INS3_17test_case_counter19readonly_property43EEENS2_ImEEEclINS_4_mfi3mf2IvS4_mmEENS0_5list0EEEvNS0_4typeIvEERT_RT0_i
FN:376,379,_ZN5boost3_bi5list3INS0_5valueIPNS_9unit_test15unit_test_log_tEEENS2_INS3_13output_formatEEENS_17reference_wrapperISoEEEclINS_4_mfi3mf2IvS4_S7_RSoEENS0_5list0EEEvNS0_4typeIvEERT_RT0_i
FN:858,858,_ZN5boost3_bi7rrlist1IRKNS_9unit_test9framework4impl11name_filter9componentEEC2ES8_
FN:862,862,_ZNK5boost3_bi7rrlist1IRKNS_9unit_test9framework4impl11name_filter9componentEEixEPFNS_3argILi1EEEvE
FN:868,868,_ZNK5boost3_bi7rrlist1IRKNS_9unit_test9framework4impl11name_filter9componentEEixIKNS2_9test_unitEEERT_RKNS_17reference_wrapperISD_EE
FNDA:0,_ZN5boost3_bi5valueINS_10shared_ptrINS_9unit_test17test_unit_fixtureEEEEC2ERKS5_
FNDA:0,_ZN5boost3_bi5valueINS_9unit_test13output_formatEEC2ERKS3_
FNDA:3,_ZN5boost3_bi5valueINS_9unit_test17test_case_counter19readonly_property43EEC2ERKS4_
FNDA:1,_ZN5boost3_bi5valueIPFPNS_9unit_test10test_suiteEiPPcEEC2ERKS8_
FNDA:3,_ZN5boost3_bi5valueIPNS_9unit_test13test_observerEEC2ERKS4_
FNDA:0,_ZN5boost3_bi5valueIPNS_9unit_test15unit_test_log_tEEC2ERKS4_
FNDA:3,_ZN5boost3_bi5valueImEC2ERKm
FNDA:0,_ZN5boost3_bi5valueINS_10shared_ptrINS_9unit_test17test_unit_fixtureEEEE3getEv
FNDA:0,_ZN5boost3_bi5valueINS_9unit_test13output_formatEE3getEv
FNDA:3,_ZN5boost3_bi5valueINS_9unit_test17test_case_counter19readonly_property43EE3getEv
FNDA:1,_ZN5boost3_bi5valueIPFPNS_9unit_test10test_suiteEiPPcEE3getEv
FNDA:3,_ZN5boost3_bi5valueIPNS_9unit_test13test_observerEE3getEv
FNDA:0,_ZN5boost3_bi5valueIPNS_9unit_test15unit_test_log_tEE3getEv
FNDA:3,_ZN5boost3_bi5valueImE3getEv
FNDA:0,_ZN5boost3_bi6bind_tIbNS_4_mfi4cmf1IbNS_9unit_test9framework4impl11name_filter9componentERKNS4_9test_unitEEENS0_5list2INS_3argILi1EEENS_17reference_wrapperISA_EEEEEC2ESC_RKSI_
FNDA:0,_ZN5boost3_bi6bind_tIvNS_4_mfi3mf0IvNS_9unit_test17test_unit_fixtureEEENS0_5list1INS0_5valueINS_10shared_ptrIS5_EEEEEEEC2ES6_RKSC_
FNDA:0,_ZN5boost3_bi6bind_tIvNS_4_mfi3mf1IvNS_9unit_test15unit_test_log_tERSoEENS0_5list2INS0_5valueIPS5_EENS_17reference_wrapperISoEEEEEC2ES7_RKSE_
FNDA:3,_ZN5boost3_bi6bind_tIvNS_4_mfi3mf2IvNS_9unit_test13test_observerEmmEENS0_5list3INS0_5valueIPS5_EENS8_INS4_17test_case_counter19readonly_property43EEENS8_ImEEEEEC2ES6_RKSF_
FNDA:0,_ZN5boost3_bi6bind_tIvNS_4_mfi3mf2IvNS_9unit_test15unit_test_log_tENS4_13output_formatERSoEENS0_5list3INS0_5valueIPS5_EENSA_IS6_EENS_17reference_wrapperISoEEEEEC2ES8_RKSG_
FNDA:1,_ZN5boost3_bi6bind_tIvPFvPFPNS_9unit_test10test_suiteEiPPcEENS0_5list1INS0_5valueIS8_EEEEEC2ESA_RKSE_
FNDA:0,_ZN5boost3_bi6bind_tIvPFvRSoENS0_5list1INS_17reference_wrapperISoEEEEEC2ES4_RKS8_
FNDA:0,_ZN5boost3_bi6bind_tIvNS_4_mfi3mf0IvNS_9unit_test17test_unit_fixtureEEENS0_5list1INS0_5valueINS_10shared_ptrIS5_EEEEEEEclEv
FNDA:0,_ZN5boost3_bi6bind_tIvNS_4_mfi3mf1IvNS_9unit_test15unit_test_log_tERSoEENS0_5list2INS0_5valueIPS5_EENS_17reference_wrapperISoEEEEEclEv
FNDA:3,_ZN5boost3_bi6bind_tIvNS_4_mfi3mf2IvNS_9unit_test13test_observerEmmEENS0_5list3INS0_5valueIPS5_EENS8_INS4_17test_case_counter19readonly_property43EEENS8_ImEEEEEclEv
FNDA:0,_ZN5boost3_bi6bind_tIvNS_4_mfi3mf2IvNS_9unit_test15unit_test_log_tENS4_13output_formatERSoEENS0_5list3INS0_5valueIPS5_EENSA_IS6_EENS_17reference_wrapperISoEEEEEclEv
FNDA:1,_ZN5boost3_bi6bind_tIvPFvPFPNS_9unit_test10test_suiteEiPPcEENS0_5list1INS0_5valueIS8_EEEEEclEv
FNDA:0,_ZN5boost3_bi6bind_tIvPFvRSoENS0_5list1INS_17reference_wrapperISoEEEEEclEv
FNDA:0,_ZN5boost3_bi6bind_tIbNS_4_mfi4cmf1IbNS_9unit_test9framework4impl11name_filter9componentERKNS4_9test_unitEEENS0_5list2INS_3argILi1EEENS_17reference_wrapperISA_EEEEEclIRKS8_EEbOT_
FNDA:0,_ZN5boost3_bi9unwrapperINS_4_mfi3mf0IvNS_9unit_test17test_unit_fixtureEEEE6unwrapERS6_l
FNDA:0,_ZN5boost3_bi9unwrapperINS_4_mfi3mf1IvNS_9unit_test15unit_test_log_tERSoEEE6unwrapERS7_l
FNDA:3,_ZN5boost3_bi9unwrapperINS_4_mfi3mf2IvNS_9unit_test13test_observerEmmEEE6unwrapERS6_l
FNDA:0,_ZN5boost3_bi9unwrapperINS_4_mfi3mf2IvNS_9unit_test15unit_test_log_tENS4_13output_formatERSoEEE6unwrapERS8_l
FNDA:0,_ZN5boost3_bi9unwrapperINS_4_mfi4cmf1IbNS_9unit_test9framework4impl11name_filter9componentERKNS4_9test_unitEEEE6unwrapERSC_l
FNDA:1,_ZN5boost3_bi9unwrapperIPFvPFPNS_9unit_test10test_suiteEiPPcEEE6unwrapERSA_l
FNDA:0,_ZN5boost3_bi9unwrapperIPFvRSoEE6unwrapERS4_l
FNDA:4,_ZN5boost3_bi5list0C2Ev
FNDA:0,_ZNK5boost3_bi5list0ixINS_10shared_ptrINS_9unit_test17test_unit_fixtureEEEEERT_RNS0_5valueIS7_EE
FNDA:0,_ZNK5boost3_bi5list0ixINS_9unit_test13output_formatEEERT_RNS0_5valueIS5_EE
FNDA:3,_ZNK5boost3_bi5list0ixINS_9unit_test17test_case_counter19readonly_property43EEERT_RNS0_5valueIS6_EE
FNDA:1,_ZNK5boost3_bi5list0ixIPFPNS_9unit_test10test_suiteEiPPcEEERT_RNS0_5valueISA_EE
FNDA:3,_ZNK5boost3_bi5list0ixIPNS_9unit_test13test_observerEEERT_RNS0_5valueIS6_EE
FNDA:0,_ZNK5boost3_bi5list0ixIPNS_9unit_test15unit_test_log_tEEERT_RNS0_5valueIS6_EE
FNDA:3,_ZNK5boost3_bi5list0ixImEERT_RNS0_5valueIS3_EE
FNDA:0,_ZNK5boost3_bi5list0ixISoEERT_RKNS_17reference_wrapperIS3_EE
FNDA:0,_ZN5boost3_bi5list1INS0_5valueINS_10shared_ptrINS_9unit_test17test_unit_fixtureEEEEEEC2ES7_
FNDA:1,_ZN5boost3_bi5list1INS0_5valueIPFPNS_9unit_test10test_suiteEiPPcEEEEC2ESA_
FNDA:0,_ZN5boost3_bi5list1INS_17reference_wrapperISoEEEC2ES3_
FNDA:0,_ZN5boost3_bi5list1INS0_5valueINS_10shared_ptrINS_9unit_test17test_unit_fixtureEEEEEEclINS_4_mfi3mf0IvS5_EENS0_5list0EEEvNS0_4typeIvEERT_RT0_i
FNDA:1,_ZN5boost3_bi5list1INS0_5valueIPFPNS_9unit_test10test_suiteEiPPcEEEEclIPFvS9_ENS0_5list0EEEvNS0_4typeIvEERT_RT0_i
FNDA:0,_ZN5boost3_bi5list1INS_17reference_wrapperISoEEEclIPFvRSoENS0_5list0EEEvNS0_4typeIvEERT_RT0_i
FNDA:0,_ZN5boost3_bi5list2INS0_5valueIPNS_9unit_test15unit_test_log_tEEENS_17reference_wrapperISoEEEC2ES6_S8_
FNDA:0,_ZN5boost3_bi5list2INS_3argILi1EEENS_17reference_wrapperIKNS_9unit_test9test_unitEEEEC2ES3_S8_
FNDA:0,_ZN5boost3_bi5list2INS_3argILi1EEENS_17reference_wrapperIKNS_9unit_test9test_unitEEEEclIbNS_4_mfi4cmf1IbNS5_9framework4impl11name_filter9componentERS7_EENS0_7rrlist1IRKSG_EEEET_NS0_4typeISN_EERT0_RT1_l
FNDA:0,_ZN5boost3_bi5list2INS0_5valueIPNS_9unit_test15unit_test_log_tEEENS_17reference_wrapperISoEEEclINS_4_mfi3mf1IvS4_RSoEENS0_5list0EEEvNS0_4typeIvEERT_RT0_i
FNDA:3,_ZN5boost3_bi5list3INS0_5valueIPNS_9unit_test13test_observerEEENS2_INS3_17test_case_counter19readonly_property43EEENS2_ImEEEC2ES6_S9_SA_
FNDA:0,_ZN5boost3_bi5list3INS0_5valueIPNS_9unit_test15unit_test_log_tEEENS2_INS3_13output_formatEEENS_17reference_wrapperISoEEEC2ES6_S8_SA_
FNDA:3,_ZN5boost3_bi5list3INS0_5valueIPNS_9unit_test13test_observerEEENS2_INS3_17test_case_counter19readonly_property43EEENS2_ImEEEclINS_4_mfi3mf2IvS4_mmEENS0_5list0EEEvNS0_4typeIvEERT_RT0_i
FNDA:0,_ZN5boost3_bi5list3INS0_5valueIPNS_9unit_test15unit_test_log_tEEENS2_INS3_13output_formatEEENS_17reference_wrapperISoEEEclINS_4_mfi3mf2IvS4_S7_RSoEENS0_5list0EEEvNS0_4typeIvEERT_RT0_i
FNDA:0,_ZN5boost3_bi7rrlist1IRKNS_9unit_test9framework4impl11name_filter9componentEEC2ES8_
FNDA:0,_ZNK5boost3_bi7rrlist1IRKNS_9unit_test9framework4impl11name_filter9componentEEixEPFNS_3argILi1EEEvE
FNDA:0,_ZNK5boost3_bi7rrlist1IRKNS_9unit_test9framework4impl11name_filter9componentEEixIKNS2_9test_unitEEERT_RKNS_17reference_wrapperISD_EE
FNF:61
FNH:23
DA:102,10
DA:104,10
DA:132,4
DA:134,4
DA:154,4
DA:156,10
DA:160,0
DA:211,1
DA:237,1
DA:239,1
DA:240,1
DA:269,0
DA:287,0
DA:289,0
DA:297,0
DA:299,0
DA:300,0
DA:346,3
DA:376,3
DA:378,3
DA:379,3
DA:858,0
DA:862,0
DA:868,0
DA:1267,4
DA:1271,4
DA:1273,4
DA:1274,8
DA:1283,0
DA:1285,0
DA:1286,0
LF:31
LH:18
end_of_record
TN:
SF:/usr/include/boost/bind/bind_cc.hpp
FN:26,31,_ZN5boost4bindIvPFPNS_9unit_test10test_suiteEiPPcES7_EENS_3_bi6bind_tIT_PFSA_T0_ENS8_9list_av_1IT1_E4typeEEESD_SF_
FN:26,31,_ZN5boost4bindIvRSoNS_17reference_wrapperISoEEEENS_3_bi6bind_tIT_PFS6_T0_ENS4_9list_av_1IT1_E4typeEEES9_SB_
FNDA:1,_ZN5boost4bindIvPFPNS_9unit_test10test_suiteEiPPcES7_EENS_3_bi6bind_tIT_PFSA_T0_ENS8_9list_av_1IT1_E4typeEEESD_SF_
FNDA:0,_ZN5boost4bindIvRSoNS_17reference_wrapperISoEEEENS_3_bi6bind_tIT_PFS6_T0_ENS4_9list_av_1IT1_E4typeEEES9_SB_
FNF:2
FNH:1
DA:26,1
DA:30,1
LF:2
LH:2
end_of_record
TN:
SF:/usr/include/boost/bind/bind_mf_cc.hpp
FN:113,118,_ZN5boost4bindIvNS_9unit_test13test_observerEmmPS2_NS1_17test_case_counter19readonly_property43EmEENS_3_bi6bind_tIT_NS_4_mfi3mf2IS8_T0_T1_T2_EENS6_9list_av_3IT3_T4_T5_E4typeEEEMSB_FS8_SC_SD_ESG_SH_SI_
FN:113,118,_ZN5boost4bindIvNS_9unit_test15unit_test_log_tENS1_13output_formatERSoPS2_S3_NS_17reference_wrapperISoEEEENS_3_bi6bind_tIT_NS_4_mfi3mf2ISA_T0_T1_T2_EENS8_9list_av_3IT3_T4_T5_E4typeEEEMSD_FSA_SE_SF_ESI_SJ_SK_
FN:20,25,_ZN5boost4bindIvNS_9unit_test17test_unit_fixtureENS_10shared_ptrIS2_EEEENS_3_bi6bind_tIT_NS_4_mfi3mf0IS7_T0_EENS5_9list_av_1IT1_E4typeEEEMSA_FS7_vESD_
FN:65,70,_ZN5boost4bindIvNS_9unit_test15unit_test_log_tERSoPS2_NS_17reference_wrapperISoEEEENS_3_bi6bind_tIT_NS_4_mfi3mf1IS9_T0_T1_EENS7_9list_av_2IT2_T3_E4typeEEEMSC_FS9_SD_ESG_SH_
FN:76,81,_ZN5boost4bindIbNS_9unit_test9framework4impl11name_filter9componentERKNS1_9test_unitENS_3argILi1EEENS_17reference_wrapperIS7_EEEENS_3_bi6bind_tIT_NS_4_mfi4cmf1ISF_T0_T1_EENSD_9list_av_2IT2_T3_E4typeEEEMSI_KFSF_SJ_ESM_SN_
FNDA:3,_ZN5boost4bindIvNS_9unit_test13test_observerEmmPS2_NS1_17test_case_counter19readonly_property43EmEENS_3_bi6bind_tIT_NS_4_mfi3mf2IS8_T0_T1_T2_EENS6_9list_av_3IT3_T4_T5_E4typeEEEMSB_FS8_SC_SD_ESG_SH_SI_
FNDA:0,_ZN5boost4bindIvNS_9unit_test15unit_test_log_tENS1_13output_formatERSoPS2_S3_NS_17reference_wrapperISoEEEENS_3_bi6bind_tIT_NS_4_mfi3mf2ISA_T0_T1_T2_EENS8_9list_av_3IT3_T4_T5_E4typeEEEMSD_FSA_SE_SF_ESI_SJ_SK_
FNDA:0,_ZN5boost4bindIvNS_9unit_test17test_unit_fixtureENS_10shared_ptrIS2_EEEENS_3_bi6bind_tIT_NS_4_mfi3mf0IS7_T0_EENS5_9list_av_1IT1_E4typeEEEMSA_FS7_vESD_
FNDA:0,_ZN5boost4bindIvNS_9unit_test15unit_test_log_tERSoPS2_NS_17reference_wrapperISoEEEENS_3_bi6bind_tIT_NS_4_mfi3mf1IS9_T0_T1_EENS7_9list_av_2IT2_T3_E4typeEEEMSC_FS9_SD_ESG_SH_
FNDA:0,_ZN5boost4bindIbNS_9unit_test9framework4impl11name_filter9componentERKNS1_9test_unitENS_3argILi1EEENS_17reference_wrapperIS7_EEEENS_3_bi6bind_tIT_NS_4_mfi4cmf1ISF_T0_T1_EENSD_9list_av_2IT2_T3_E4typeEEEMSI_KFSF_SJ_ESM_SN_
FNF:5
FNH:1
DA:20,0
DA:24,0
DA:65,0
DA:69,0
DA:76,0
DA:80,0
DA:113,3
DA:117,3
LF:8
LH:2
end_of_record
TN:
SF:/usr/include/boost/bind/mem_fn_template.hpp
FN:161,161,_ZN5boost4_mfi3mf1IvNS_9unit_test15unit_test_log_tERSoEC2EMS3_FvS4_E
FN:163,166,_ZNK5boost4_mfi3mf1IvNS_9unit_test15unit_test_log_tERSoEclEPS3_S4_
FN:227,227,_ZN5boost4_mfi4cmf1IbNS_9unit_test9framework4impl11name_filter9componentERKNS2_9test_unitEEC2EMS6_KFbS9_E
FN:235,238,_ZNK5boost4_mfi4cmf1IbNS_9unit_test9framework4impl11name_filter9componentERKNS2_9test_unitEEclERKS6_S9_
FN:276,276,_ZN5boost4_mfi3mf2IvNS_9unit_test13test_observerEmmEC2EMS3_FvmmE
FN:276,276,_ZN5boost4_mfi3mf2IvNS_9unit_test15unit_test_log_tENS2_13output_formatERSoEC2EMS3_FvS4_S5_E
FN:278,281,_ZNK5boost4_mfi3mf2IvNS_9unit_test13test_observerEmmEclEPS3_mm
FN:278,281,_ZNK5boost4_mfi3mf2IvNS_9unit_test15unit_test_log_tENS2_13output_formatERSoEclEPS3_S4_S5_
FN:38,41,_ZNK5boost4_mfi3mf0IvNS_9unit_test17test_unit_fixtureEE4callINS_10shared_ptrIS3_EEEEvRT_PKv
FN:45,45,_ZN5boost4_mfi3mf0IvNS_9unit_test17test_unit_fixtureEEC2EMS3_FvvE
FN:52,56,_ZNK5boost4_mfi3mf0IvNS_9unit_test17test_unit_fixtureEEclINS_10shared_ptrIS3_EEEEvRT_
FNDA:0,_ZN5boost4_mfi3mf1IvNS_9unit_test15unit_test_log_tERSoEC2EMS3_FvS4_E
FNDA:0,_ZNK5boost4_mfi3mf1IvNS_9unit_test15unit_test_log_tERSoEclEPS3_S4_
FNDA:0,_ZN5boost4_mfi4cmf1IbNS_9unit_test9framework4impl11name_filter9componentERKNS2_9test_unitEEC2EMS6_KFbS9_E
FNDA:0,_ZNK5boost4_mfi4cmf1IbNS_9unit_test9framework4impl11name_filter9componentERKNS2_9test_unitEEclERKS6_S9_
FNDA:3,_ZN5boost4_mfi3mf2IvNS_9unit_test13test_observerEmmEC2EMS3_FvmmE
FNDA:0,_ZN5boost4_mfi3mf2IvNS_9unit_test15unit_test_log_tENS2_13output_formatERSoEC2EMS3_FvS4_S5_E
FNDA:3,_ZNK5boost4_mfi3mf2IvNS_9unit_test13test_observerEmmEclEPS3_mm
FNDA:0,_ZNK5boost4_mfi3mf2IvNS_9unit_test15unit_test_log_tENS2_13output_formatERSoEclEPS3_S4_S5_
FNDA:0,_ZNK5boost4_mfi3mf0IvNS_9unit_test17test_unit_fixtureEE4callINS_10shared_ptrIS3_EEEEvRT_PKv
FNDA:0,_ZN5boost4_mfi3mf0IvNS_9unit_test17test_unit_fixtureEEC2EMS3_FvvE
FNDA:0,_ZNK5boost4_mfi3mf0IvNS_9unit_test17test_unit_fixtureEEclINS_10shared_ptrIS3_EEEEvRT_
FNF:11
FNH:2
DA:38,0
DA:40,0
DA:45,0
DA:52,0
DA:54,0
DA:55,0
DA:161,0
DA:163,0
DA:165,0
DA:227,0
DA:235,0
DA:237,0
DA:276,3
DA:278,3
DA:280,3
LF:15
LH:3
end_of_record
TN:
SF:/usr/include/boost/bind/storage.hpp
FN:130,130,_ZN5boost3_bi8storage3INS0_5valueIPNS_9unit_test13test_observerEEENS2_INS3_17test_case_counter19readonly_property43EEENS2_ImEEEC2ES6_S9_SA_
FN:130,130,_ZN5boost3_bi8storage3INS0_5valueIPNS_9unit_test15unit_test_log_tEEENS2_INS3_13output_formatEEENS_17reference_wrapperISoEEEC2ES6_S8_SA_
FN:43,43,_ZN5boost3_bi8storage1INS0_5valueINS_10shared_ptrINS_9unit_test17test_unit_fixtureEEEEEEC2ES7_
FN:43,43,_ZN5boost3_bi8storage1INS0_5valueIPFPNS_9unit_test10test_suiteEiPPcEEEEC2ESA_
FN:43,43,_ZN5boost3_bi8storage1INS0_5valueIPNS_9unit_test13test_observerEEEEC2ES6_
FN:43,43,_ZN5boost3_bi8storage1INS0_5valueIPNS_9unit_test15unit_test_log_tEEEEC2ES6_
FN:43,43,_ZN5boost3_bi8storage1INS_17reference_wrapperISoEEEC2ES3_
FN:57,57,_ZN5boost3_bi8storage1INS_3argILi1EEEEC2ES3_
FN:61,61,_ZN5boost3_bi8storage1INS_3argILi1EEEE3a1_Ev
FN:81,81,_ZN5boost3_bi8storage2INS0_5valueIPNS_9unit_test13test_observerEEENS2_INS3_17test_case_counter19readonly_property43EEEEC2ES6_S9_
FN:81,81,_ZN5boost3_bi8storage2INS0_5valueIPNS_9unit_test15unit_test_log_tEEENS2_INS3_13output_formatEEEEC2ES6_S8_
FN:81,81,_ZN5boost3_bi8storage2INS0_5valueIPNS_9unit_test15unit_test_log_tEEENS_17reference_wrapperISoEEEC2ES6_S8_
FN:81,81,_ZN5boost3_bi8storage2INS_3argILi1EEENS_17reference_wrapperIKNS_9unit_test9test_unitEEEEC2ES3_S8_
FNDA:3,_ZN5boost3_bi8storage3INS0_5valueIPNS_9unit_test13test_observerEEENS2_INS3_17test_case_counter19readonly_property43EEENS2_ImEEEC2ES6_S9_SA_
FNDA:0,_ZN5boost3_bi8storage3INS0_5valueIPNS_9unit_test15unit_test_log_tEEENS2_INS3_13output_formatEEENS_17reference_wrapperISoEEEC2ES6_S8_SA_
FNDA:0,_ZN5boost3_bi8storage1INS0_5valueINS_10shared_ptrINS_9unit_test17test_unit_fixtureEEEEEEC2ES7_
FNDA:1,_ZN5boost3_bi8storage1INS0_5valueIPFPNS_9unit_test10test_suiteEiPPcEEEEC2ESA_
FNDA:3,_ZN5boost3_bi8storage1INS0_5valueIPNS_9unit_test13test_observerEEEEC2ES6_
FNDA:0,_ZN5boost3_bi8storage1INS0_5valueIPNS_9unit_test15unit_test_log_tEEEEC2ES6_
FNDA:0,_ZN5boost3_bi8storage1INS_17reference_wrapperISoEEEC2ES3_
FNDA:0,_ZN5boost3_bi8storage1INS_3argILi1EEEEC2ES3_
FNDA:0,_ZN5boost3_bi8storage1INS_3argILi1EEEE3a1_Ev
FNDA:3,_ZN5boost3_bi8storage2INS0_5valueIPNS_9unit_test13test_observerEEENS2_INS3_17test_case_counter19readonly_property43EEEEC2ES6_S9_
FNDA:0,_ZN5boost3_bi8storage2INS0_5valueIPNS_9unit_test15unit_test_log_tEEENS2_INS3_13output_formatEEEEC2ES6_S8_
FNDA:0,_ZN5boost3_bi8storage2INS0_5valueIPNS_9unit_test15unit_test_log_tEEENS_17reference_wrapperISoEEEC2ES6_S8_
FNDA:0,_ZN5boost3_bi8storage2INS_3argILi1EEENS_17reference_wrapperIKNS_9unit_test9test_unitEEEEC2ES3_S8_
FNF:13
FNH:4
DA:43,4
DA:57,0
DA:61,0
DA:81,3
DA:130,3
LF:5
LH:3
end_of_record
TN:
SF:/usr/include/boost/core/addressof.hpp
FN:38,41,_ZN5boost9addressofIKNS_7runtime16parameter_cla_idEEEPT_RS4_
FN:38,41,_ZN5boost9addressofIKNS_9unit_test9test_unitEEEPT_RS4_
FN:38,41,_ZN5boost9addressofIKNSt7__cxx1112basic_stringIcSt11char_traitsIcESaIcEEEEEPT_RS8_
FN:38,41,_ZN5boost9addressofIKSt6vectorINSt7__cxx1112basic_stringIcSt11char_traitsIcESaIcEEESaIS7_EEEEPT_RSB_
FN:38,41,_ZN5boost9addressofINS_3_bi6bind_tIvNS_4_mfi3mf0IvNS_9unit_test17test_unit_fixtureEEENS1_5list1INS1_5valueINS_10shared_ptrIS6_EEEEEEEEEEPT_RSF_
FN:38,41,_ZN5boost9addressofINS_3_bi6bind_tIvNS_4_mfi3mf1IvNS_9unit_test15unit_test_log_tERSoEENS1_5list2INS1_5valueIPS6_EENS_17reference_wrapperISoEEEEEEEEPT_RSH_
FN:38,41,_ZN5boost9addressofINS_3_bi6bind_tIvNS_4_mfi3mf2IvNS_9unit_test13test_observerEmmEENS1_5list3INS1_5valueIPS6_EENS9_INS5_17test_case_counter19readonly_property43EEENS9_ImEEEEEEEEPT_RSI_
FN:38,41,_ZN5boost9addressofINS_3_bi6bind_tIvNS_4_mfi3mf2IvNS_9unit_test15unit_test_log_tENS5_13output_formatERSoEENS1_5list3INS1_5valueIPS6_EENSB_IS7_EENS_17reference_wrapperISoEEEEEEEEPT_RSJ_
FN:38,41,_ZN5boost9addressofINS_3_bi6bind_tIvPFvPFPNS_9unit_test10test_suiteEiPPcEENS1_5list1INS1_5valueIS9_EEEEEEEEPT_RSH_
FN:38,41,_ZN5boost9addressofINS_3_bi6bind_tIvPFvRSoENS1_5list1INS_17reference_wrapperISoEEEEEEEEPT_RSB_
FN:38,41,_ZN5boost9addressofINS_6detail13sp_ms_deleterINS_9unit_test14runtime_config13stream_holder16callback_cleanerEEEEEPT_RS8_
FN:38,41,_ZN5boost9addressofINS_6detail7forwardEEEPT_RS3_
FN:38,41,_ZN5boost9addressofINS_9unit_test13basic_cstringIKcEEEEPT_RS5_
FN:38,41,_ZN5boost9addressofISoEEPT_RS1_
FN:38,41,_ZN5boost9addressofIZNS_9unit_test14runtime_config12_GLOBAL__N_119register_parametersERNS_7runtime16parameters_storeEEUlNS1_13basic_cstringIKcEEE_EEPT_RSB_
FNDA:675,_ZN5boost9addressofIKNS_7runtime16parameter_cla_idEEEPT_RS4_
FNDA:0,_ZN5boost9addressofIKNS_9unit_test9test_unitEEEPT_RS4_
FNDA:0,_ZN5boost9addressofIKNSt7__cxx1112basic_stringIcSt11char_traitsIcESaIcEEEEEPT_RS8_
FNDA:0,_ZN5boost9addressofIKSt6vectorINSt7__cxx1112basic_stringIcSt11char_traitsIcESaIcEEESaIS7_EEEEPT_RSB_
FNDA:0,_ZN5boost9addressofINS_3_bi6bind_tIvNS_4_mfi3mf0IvNS_9unit_test17test_unit_fixtureEEENS1_5list1INS1_5valueINS_10shared_ptrIS6_EEEEEEEEEEPT_RSF_
FNDA:0,_ZN5boost9addressofINS_3_bi6bind_tIvNS_4_mfi3mf1IvNS_9unit_test15unit_test_log_tERSoEENS1_5list2INS1_5valueIPS6_EENS_17reference_wrapperISoEEEEEEEEPT_RSH_
FNDA:3,_ZN5boost9addressofINS_3_bi6bind_tIvNS_4_mfi3mf2IvNS_9unit_test13test_observerEmmEENS1_5list3INS1_5valueIPS6_EENS9_INS5_17test_case_counter19readonly_property43EEENS9_ImEEEEEEEEPT_RSI_
FNDA:0,_ZN5boost9addressofINS_3_bi6bind_tIvNS_4_mfi3mf2IvNS_9unit_test15unit_test_log_tENS5_13output_formatERSoEENS1_5list3INS1_5valueIPS6_EENSB_IS7_EENS_17reference_wrapperISoEEEEEEEEPT_RSJ_
FNDA:1,_ZN5boost9addressofINS_3_bi6bind_tIvPFvPFPNS_9unit_test10test_suiteEiPPcEENS1_5list1INS1_5valueIS9_EEEEEEEEPT_RSH_
FNDA:0,_ZN5boost9addressofINS_3_bi6bind_tIvPFvRSoENS1_5list1INS_17reference_wrapperISoEEEEEEEEPT_RSB_
FNDA:0,_ZN5boost9addressofINS_6detail13sp_ms_deleterINS_9unit_test14runtime_config13stream_holder16callback_cleanerEEEEEPT_RS8_
FNDA:57,_ZN5boost9addressofINS_6detail7forwardEEEPT_RS3_
FNDA:0,_ZN5boost9addressofINS_9unit_test13basic_cstringIKcEEEEPT_RS5_
FNDA:0,_ZN5boost9addressofISoEEPT_RS1_
FNDA:1,_ZN5boost9addressofIZNS_9unit_test14runtime_config12_GLOBAL__N_119register_parametersERNS_7runtime16parameters_storeEEUlNS1_13basic_cstringIKcEEE_EEPT_RSB_
FNF:15
FNH:5
DA:38,737
DA:40,737
LF:2
LH:2
end_of_record
TN:
SF:/usr/include/boost/core/checked_delete.hpp
FN:31,45,_ZN5boost14checked_deleteINS_16exception_detail15error_info_baseEEEvPT_
FN:31,45,_ZN5boost14checked_deleteINS_23basic_wrap_stringstreamIcEEEEvPT_
FN:31,45,_ZN5boost14checked_deleteINS_2io18ios_base_all_saverEEEvPT_
FN:31,45,_ZN5boost14checked_deleteINS_7runtime14enum_parameterINS_9unit_test12report_levelELNS1_11args_amountE0EEEEEvPT_
FN:31,45,_ZN5boost14checked_deleteINS_7runtime14enum_parameterINS_9unit_test13output_formatELNS1_11args_amountE0EEEEEvPT_
FN:31,45,_ZN5boost14checked_deleteINS_7runtime14enum_parameterINS_9unit_test9log_levelELNS1_11args_amountE0EEEEEvPT_
FN:31,45,_ZN5boost14checked_deleteINS_7runtime14typed_argumentINS_9unit_test12report_levelEEEEEvPT_
FN:31,45,_ZN5boost14checked_deleteINS_7runtime14typed_argumentINS_9unit_test13output_formatEEEEEvPT_
FN:31,45,_ZN5boost14checked_deleteINS_7runtime14typed_argumentINS_9unit_test9log_levelEEEEEvPT_
FN:31,45,_ZN5boost14checked_deleteINS_7runtime14typed_argumentINSt7__cxx1112basic_stringIcSt11char_traitsIcESaIcEEEEEEEvPT_
FN:31,45,_ZN5boost14checked_deleteINS_7runtime14typed_argumentISt6vectorINSt7__cxx1112basic_stringIcSt11char_traitsIcESaIcEEESaIS9_EEEEEEvPT_
FN:31,45,_ZN5boost14checked_deleteINS_7runtime14typed_argumentIbEEEEvPT_
FN:31,45,_ZN5boost14checked_deleteINS_7runtime14typed_argumentIjEEEEvPT_
FN:31,45,_ZN5boost14checked_deleteINS_7runtime14typed_argumentImEEEEvPT_
FN:31,45,_ZN5boost14checked_deleteINS_7runtime3cla13rt_cla_detail14parameter_trieEEEvPT_
FN:31,45,_ZN5boost14checked_deleteINS_7runtime3cla6parserEEEvPT_
FN:31,45,_ZN5boost14checked_deleteINS_7runtime6optionEEEvPT_
FN:31,45,_ZN5boost14checked_deleteINS_7runtime9parameterINS_9unit_test12report_levelELNS1_11args_amountE0ELb1EEEEEvPT_
FN:31,45,_ZN5boost14checked_deleteINS_7runtime9parameterINS_9unit_test13output_formatELNS1_11args_amountE0ELb1EEEEEvPT_
FN:31,45,_ZN5boost14checked_deleteINS_7runtime9parameterINS_9unit_test9log_levelELNS1_11args_amountE0ELb1EEEEEvPT_
FN:31,45,_ZN5boost14checked_deleteINS_7runtime9parameterINSt7__cxx1112basic_stringIcSt11char_traitsIcESaIcEEELNS1_11args_amountE0ELb0EEEEEvPT_
FN:31,45,_ZN5boost14checked_deleteINS_7runtime9parameterINSt7__cxx1112basic_stringIcSt11char_traitsIcESaIcEEELNS1_11args_amountE2ELb0EEEEEvPT_
FN:31,45,_ZN5boost14checked_deleteINS_7runtime9parameterIjLNS1_11args_amountE0ELb0EEEEEvPT_
FN:31,45,_ZN5boost14checked_deleteINS_7runtime9parameterImLNS1_11args_amountE0ELb0EEEEEvPT_
FN:31,45,_ZN5boost14checked_deleteINS_9unit_test16progress_displayEEEvPT_
FN:31,45,_ZN5boost14checked_deleteINS_9unit_test16results_reporter6formatEEEvPT_
FN:31,45,_ZN5boost14checked_deleteINS_9unit_test23unit_test_log_formatterEEEvPT_
FN:31,45,_ZN5boost14checked_deleteINS_9unit_test9decorator10depends_onEEEvPT_
FN:31,45,_ZN5boost14checked_deleteINS_9unit_test9decorator11descriptionEEEvPT_
FN:31,45,_ZN5boost14checked_deleteINS_9unit_test9decorator12preconditionEEEvPT_
FN:31,45,_ZN5boost14checked_deleteINS_9unit_test9decorator15stack_decoratorEEEvPT_
FN:31,45,_ZN5boost14checked_deleteINS_9unit_test9decorator17expected_failuresEEEvPT_
FN:31,45,_ZN5boost14checked_deleteINS_9unit_test9decorator5labelEEEvPT_
FN:31,45,_ZN5boost14checked_deleteINS_9unit_test9decorator7timeoutEEEvPT_
FN:31,45,_ZN5boost14checked_deleteINS_9unit_test9decorator9fixture_tEEEvPT_
FN:31,45,_ZN5boost14checked_deleteINS_9unit_test9framework4impl21global_fixture_handleEEEvPT_
FN:47,61,_ZN5boost20checked_array_deleteIcEEvPT_
FNDA:0,_ZN5boost14checked_deleteINS_16exception_detail15error_info_baseEEEvPT_
FNDA:0,_ZN5boost14checked_deleteINS_23basic_wrap_stringstreamIcEEEEvPT_
FNDA:8,_ZN5boost14checked_deleteINS_2io18ios_base_all_saverEEEvPT_
FNDA:1,_ZN5boost14checked_deleteINS_7runtime14enum_parameterINS_9unit_test12report_levelELNS1_11args_amountE0EEEEEvPT_
FNDA:4,_ZN5boost14checked_deleteINS_7runtime14enum_parameterINS_9unit_test13output_formatELNS1_11args_amountE0EEEEEvPT_
FNDA:1,_ZN5boost14checked_deleteINS_7runtime14enum_parameterINS_9unit_test9log_levelELNS1_11args_amountE0EEEEEvPT_
FNDA:1,_ZN5boost14checked_deleteINS_7runtime14typed_argumentINS_9unit_test12report_levelEEEEEvPT_
FNDA:3,_ZN5boost14checked_deleteINS_7runtime14typed_argumentINS_9unit_test13output_formatEEEEEvPT_
FNDA:1,_ZN5boost14checked_deleteINS_7runtime14typed_argumentINS_9unit_test9log_levelEEEEEvPT_
FNDA:1,_ZN5boost14checked_deleteINS_7runtime14typed_argumentINSt7__cxx1112basic_stringIcSt11char_traitsIcESaIcEEEEEEEvPT_
FNDA:2,_ZN5boost14checked_deleteINS_7runtime14typed_argumentISt6vectorINSt7__cxx1112basic_stringIcSt11char_traitsIcESaIcEEESaIS9_EEEEEEvPT_
FNDA:13,_ZN5boost14checked_deleteINS_7runtime14typed_argumentIbEEEEvPT_
FNDA:1,_ZN5boost14checked_deleteINS_7runtime14typed_argumentIjEEEEvPT_
FNDA:1,_ZN5boost14checked_deleteINS_7runtime14typed_argumentImEEEEvPT_
FNDA:572,_ZN5boost14checked_deleteINS_7runtime3cla13rt_cla_detail14parameter_trieEEEvPT_
FNDA:1,_ZN5boost14checked_deleteINS_7runtime3cla6parserEEEvPT_
FNDA:13,_ZN5boost14checked_deleteINS_7runtime6optionEEEvPT_
FNDA:0,_ZN5boost14checked_deleteINS_7runtime9parameterINS_9unit_test12report_levelELNS1_11args_amountE0ELb1EEEEEvPT_
FNDA:0,_ZN5boost14checked_deleteINS_7runtime9parameterINS_9unit_test13output_formatELNS1_11args_amountE0ELb1EEEEEvPT_
FNDA:0,_ZN5boost14checked_deleteINS_7runtime9parameterINS_9unit_test9log_levelELNS1_11args_amountE0ELb1EEEEEvPT_
FNDA:5,_ZN5boost14checked_deleteINS_7runtime9parameterINSt7__cxx1112basic_stringIcSt11char_traitsIcESaIcEEELNS1_11args_amountE0ELb0EEEEEvPT_
FNDA:2,_ZN5boost14checked_deleteINS_7runtime9parameterINSt7__cxx1112basic_stringIcSt11char_traitsIcESaIcEEELNS1_11args_amountE2ELb0EEEEEvPT_
FNDA:1,_ZN5boost14checked_deleteINS_7runtime9parameterIjLNS1_11args_amountE0ELb0EEEEEvPT_
FNDA:1,_ZN5boost14checked_deleteINS_7runtime9parameterImLNS1_11args_amountE0ELb0EEEEEvPT_
FNDA:0,_ZN5boost14checked_deleteINS_9unit_test16progress_displayEEEvPT_
FNDA:2,_ZN5boost14checked_deleteINS_9unit_test16results_reporter6formatEEEvPT_
FNDA:3,_ZN5boost14checked_deleteINS_9unit_test23unit_test_log_formatterEEEvPT_
FNDA:0,_ZN5boost14checked_deleteINS_9unit_test9decorator10depends_onEEEvPT_
FNDA:0,_ZN5boost14checked_deleteINS_9unit_test9decorator11descriptionEEEvPT_
FNDA:0,_ZN5boost14checked_deleteINS_9unit_test9decorator12preconditionEEEvPT_
FNDA:0,_ZN5boost14checked_deleteINS_9unit_test9decorator15stack_decoratorEEEvPT_
FNDA:0,_ZN5boost14checked_deleteINS_9unit_test9decorator17expected_failuresEEEvPT_
FNDA:0,_ZN5boost14checked_deleteINS_9unit_test9decorator5labelEEEvPT_
FNDA:0,_ZN5boost14checked_deleteINS_9unit_test9decorator7timeoutEEEvPT_
FNDA:0,_ZN5boost14checked_deleteINS_9unit_test9decorator9fixture_tEEEvPT_
FNDA:0,_ZN5boost14checked_deleteINS_9unit_test9framework4impl21global_fixture_handleEEEvPT_
FNDA:4,_ZN5boost20checked_array_deleteIcEEvPT_
FNF:37
FNH:22
DA:31,637
DA:44,637
DA:45,637
DA:47,4
DA:60,4
DA:61,4
LF:6
LH:6
end_of_record
TN:
SF:/usr/include/boost/core/demangle.hpp
FN:59,62,_ZN5boost4core21scoped_demangled_nameC2EPKc
FN:64,67,_ZN5boost4core21scoped_demangled_nameD2Ev
FN:69,72,_ZNK5boost4core21scoped_demangled_name3getEv
FN:81,86,_ZN5boost4core14demangle_allocEPKc
FN:88,91,_ZN5boost4core13demangle_freeEPKc
FN:93,100,_ZN5boost4core8demangleB5cxx11EPKc
FNDA:0,_ZN5boost4core21scoped_demangled_nameC2EPKc
FNDA:0,_ZN5boost4core21scoped_demangled_nameD2Ev
FNDA:0,_ZNK5boost4core21scoped_demangled_name3getEv
FNDA:0,_ZN5boost4core14demangle_allocEPKc
FNDA:0,_ZN5boost4core13demangle_freeEPKc
FNDA:0,_ZN5boost4core8demangleB5cxx11EPKc
FNF:6
FNH:0
DA:59,0
DA:60,0
DA:62,0
DA:64,0
DA:66,0
DA:67,0
DA:69,0
DA:71,0
DA:81,0
DA:83,0
DA:84,0
DA:85,0
DA:88,0
DA:90,0
DA:91,0
DA:93,0
DA:95,0
DA:96,0
DA:97,0
DA:98,0
DA:99,0
DA:100,0
LF:22
LH:0
end_of_record
TN:
SF:/usr/include/boost/core/ignore_unused.hpp
FNF:0
FNH:0
DA:20,175
LF:1
LH:1
end_of_record
TN:
SF:/usr/include/boost/core/ref.hpp
FNF:0
FNH:0
DA:95,675
DA:137,0
DA:143,0
DA:183,675
LF:4
LH:2
end_of_record
TN:
SF:/usr/include/boost/exception/current_exception_cast.hpp
FN:27,43,_ZN5boost22current_exception_castIKNS_9exceptionEEEPT_v
FNDA:0,_ZN5boost22current_exception_castIKNS_9exceptionEEEPT_v
FNF:1
FNH:0
DA:27,0
DA:31,0
DA:33,0
DA:34,0
DA:36,0
DA:38,0
DA:41,0
LF:7
LH:0
end_of_record
TN:
SF:/usr/include/boost/exception/detail/type_info.hpp
FN:64,67,_ZN5boost16exception_detail10type_info_C2ERKSt9type_info
FN:71,74,_ZN5boost16exception_detailltERKNS0_10type_info_ES3_
FNDA:0,_ZN5boost16exception_detail10type_info_C2ERKSt9type_info
FNDA:0,_ZN5boost16exception_detailltERKNS0_10type_info_ES3_
FNF:2
FNH:0
DA:64,0
DA:65,0
DA:67,0
DA:71,0
DA:73,0
LF:5
LH:0
end_of_record
TN:
SF:/usr/include/boost/exception/diagnostic_information.hpp
FN:122,175,_ZN5boost16exception_detail27diagnostic_information_implB5cxx11EPKNS_9exceptionEPKSt9exceptionbb
FN:180,183,_ZN5boost22diagnostic_informationINS_9exceptionEEENSt7__cxx1112basic_stringIcSt11char_traitsIcESaIcEEERKT_b
FN:71,74,_ZN5boost16exception_detail19get_boost_exceptionEPKNS_9exceptionE
FN:92,95,_ZN5boost16exception_detail17get_std_exceptionEz
FN:99,118,_ZN5boost16exception_detail26get_diagnostic_informationERKNS_9exceptionEPKc
FNDA:0,_ZN5boost16exception_detail27diagnostic_information_implB5cxx11EPKNS_9exceptionEPKSt9exceptionbb
FNDA:0,_ZN5boost22diagnostic_informationINS_9exceptionEEENSt7__cxx1112basic_stringIcSt11char_traitsIcESaIcEEERKT_b
FNDA:0,_ZN5boost16exception_detail19get_boost_exceptionEPKNS_9exceptionE
FNDA:0,_ZN5boost16exception_detail17get_std_exceptionEz
FNDA:0,_ZN5boost16exception_detail26get_diagnostic_informationERKNS_9exceptionEPKc
FNF:5
FNH:0
DA:71,0
DA:73,0
DA:92,0
DA:94,0
DA:99,0
DA:105,0
DA:106,0
DA:107,0
DA:108,0
DA:109,0
DA:110,0
DA:113,0
DA:115,0
DA:116,0
DA:122,0
DA:124,0
DA:125,0
DA:127,0
DA:128,0
DA:129,0
DA:130,0
DA:132,0
DA:133,0
DA:135,0
DA:136,0
DA:137,0
DA:139,0
DA:140,0
DA:142,0
DA:143,0
DA:144,0
DA:145,0
DA:146,0
DA:149,0
DA:151,0
DA:152,0
DA:153,0
DA:155,0
DA:156,0
DA:157,0
DA:159,0
DA:160,0
DA:164,0
DA:165,0
DA:166,0
DA:168,0
DA:169,0
DA:170,0
DA:171,0
DA:172,0
DA:173,0
DA:174,0
DA:175,0
DA:180,0
DA:182,0
LF:55
LH:0
end_of_record
TN:
SF:/usr/include/boost/exception/exception.hpp
FN:191,193,_ZN5boost16exception_detail20error_info_containerD2Ev
FN:260,266,_ZN5boost9exceptionC2Ev
FN:333,336,_ZN5boost9exceptionD0Ev
FN:333,336,_ZN5boost9exceptionD2Ev
FN:46,49,_ZN5boost16exception_detail12refcount_ptrINS0_20error_info_containerEEC2Ev
FN:484,486,_ZN5boost16exception_detail10clone_baseD0Ev
FN:484,486,_ZN5boost16exception_detail10clone_baseD2Ev
FN:491,501,_ZN5boost16exception_detail20copy_boost_exceptionEPNS_9exceptionEPKS1_
FN:51,54,_ZN5boost16exception_detail12refcount_ptrINS0_20error_info_containerEED2Ev
FN:56,60,_ZN5boost16exception_detail12refcount_ptrINS0_20error_info_containerEEC2ERKS3_
FN:63,67,_ZN5boost16exception_detail12refcount_ptrINS0_20error_info_containerEEaSERKS3_
FN:70,75,_ZN5boost16exception_detail12refcount_ptrINS0_20error_info_containerEE5adoptEPS2_
FN:78,81,_ZNK5boost16exception_detail12refcount_ptrINS0_20error_info_containerEE3getEv
FN:88,92,_ZN5boost16exception_detail12refcount_ptrINS0_20error_info_containerEE7add_refEv
FN:95,99,_ZN5boost16exception_detail12refcount_ptrINS0_20error_info_containerEE7releaseEv
FNDA:0,_ZN5boost16exception_detail20error_info_containerD2Ev
FNDA:0,_ZN5boost9exceptionC2Ev
FNDA:0,_ZN5boost9exceptionD0Ev
FNDA:0,_ZN5boost9exceptionD2Ev
FNDA:0,_ZN5boost16exception_detail12refcount_ptrINS0_20error_info_containerEEC2Ev
FNDA:0,_ZN5boost16exception_detail10clone_baseD0Ev
FNDA:0,_ZN5boost16exception_detail10clone_baseD2Ev
FNDA:0,_ZN5boost16exception_detail20copy_boost_exceptionEPNS_9exceptionEPKS1_
FNDA:0,_ZN5boost16exception_detail12refcount_ptrINS0_20error_info_containerEED2Ev
FNDA:0,_ZN5boost16exception_detail12refcount_ptrINS0_20error_info_containerEEC2ERKS3_
FNDA:0,_ZN5boost16exception_detail12refcount_ptrINS0_20error_info_containerEEaSERKS3_
FNDA:0,_ZN5boost16exception_detail12refcount_ptrINS0_20error_info_containerEE5adoptEPS2_
FNDA:0,_ZNK5boost16exception_detail12refcount_ptrINS0_20error_info_containerEE3getEv
FNDA:0,_ZN5boost16exception_detail12refcount_ptrINS0_20error_info_containerEE7add_refEv
FNDA:0,_ZN5boost16exception_detail12refcount_ptrINS0_20error_info_containerEE7releaseEv
FNF:15
FNH:0
DA:46,0
DA:47,0
DA:49,0
DA:51,0
DA:53,0
DA:54,0
DA:56,0
DA:57,0
DA:59,0
DA:60,0
DA:63,0
DA:65,0
DA:66,0
DA:70,0
DA:72,0
DA:73,0
DA:74,0
DA:75,0
DA:78,0
DA:80,0
DA:88,0
DA:90,0
DA:91,0
DA:92,0
DA:95,0
DA:97,0
DA:98,0
DA:99,0
DA:191,0
DA:192,0
DA:193,0
DA:260,0
DA:261,0
DA:262,0
DA:263,0
DA:264,0
DA:266,0
DA:333,0
DA:334,0
DA:336,0
DA:484,0
DA:485,0
DA:486,0
DA:491,0
DA:493,0
DA:494,0
DA:495,0
DA:496,0
DA:497,0
DA:498,0
DA:499,0
DA:500,0
DA:501,0
LF:53
LH:0
end_of_record
TN:
SF:/usr/include/boost/exception/get_error_info.hpp
FN:125,131,_ZN5boost14get_error_infoINS_10error_infoINS_11throw_file_EPKcEEKNS_9exceptionEEENS_16exception_detail26get_error_info_return_typeIT0_NT_10value_typeEE4typeERSA_
FN:125,131,_ZN5boost14get_error_infoINS_10error_infoINS_11throw_line_EiEEKNS_9exceptionEEENS_16exception_detail26get_error_info_return_typeIT0_NT_10value_typeEE4typeERS8_
FN:125,131,_ZN5boost14get_error_infoINS_10error_infoINS_15throw_function_EPKcEEKNS_9exceptionEEENS_16exception_detail26get_error_info_return_typeIT0_NT_10value_typeEE4typeERSA_
FN:61,64,_ZN5boost16exception_detail8get_infoINS_10error_infoINS_15throw_function_EPKcEEE3getERKNS_9exceptionE
FN:73,76,_ZN5boost16exception_detail8get_infoINS_10error_infoINS_11throw_file_EPKcEEE3getERKNS_9exceptionE
FN:85,88,_ZN5boost16exception_detail8get_infoINS_10error_infoINS_11throw_line_EiEEE3getERKNS_9exceptionE
FNDA:0,_ZN5boost14get_error_infoINS_10error_infoINS_11throw_file_EPKcEEKNS_9exceptionEEENS_16exception_detail26get_error_info_return_typeIT0_NT_10value_typeEE4typeERSA_
FNDA:0,_ZN5boost14get_error_infoINS_10error_infoINS_11throw_line_EiEEKNS_9exceptionEEENS_16exception_detail26get_error_info_return_typeIT0_NT_10value_typeEE4typeERS8_
FNDA:0,_ZN5boost14get_error_infoINS_10error_infoINS_15throw_function_EPKcEEKNS_9exceptionEEENS_16exception_detail26get_error_info_return_typeIT0_NT_10value_typeEE4typeERSA_
FNDA:0,_ZN5boost16exception_detail8get_infoINS_10error_infoINS_15throw_function_EPKcEEE3getERKNS_9exceptionE
FNDA:0,_ZN5boost16exception_detail8get_infoINS_10error_infoINS_11throw_file_EPKcEEE3getERKNS_9exceptionE
FNDA:0,_ZN5boost16exception_detail8get_infoINS_10error_infoINS_11throw_line_EiEEE3getERKNS_9exceptionE
FNF:6
FNH:0
DA:61,0
DA:63,0
DA:73,0
DA:75,0
DA:85,0
DA:87,0
DA:125,0
DA:127,0
DA:128,0
DA:130,0
LF:10
LH:0
end_of_record
TN:
SF:/usr/include/boost/exception/info.hpp
FN:124,127,_ZNK5boost16exception_detail25error_info_container_impl7add_refEv
FN:130,139,_ZNK5boost16exception_detail25error_info_container_impl7releaseEv
FN:142,153,_ZNK5boost16exception_detail25error_info_container_impl5cloneEv
FN:65,68,_ZN5boost16exception_detail25error_info_container_implC2Ev
FN:70,72,_ZN5boost16exception_detail25error_info_container_implD2Ev
FN:75,80,_ZN5boost16exception_detail25error_info_container_impl3setERKNS_10shared_ptrINS0_15error_info_baseEEERKNS0_10type_info_E
FN:83,92,_ZNK5boost16exception_detail25error_info_container_impl3getERKNS0_10type_info_E
FN:95,109,_ZNK5boost16exception_detail25error_info_container_impl22diagnostic_informationEPKc
FNDA:0,_ZNK5boost16exception_detail25error_info_container_impl7add_refEv
FNDA:0,_ZNK5boost16exception_detail25error_info_container_impl7releaseEv
FNDA:0,_ZNK5boost16exception_detail25error_info_container_impl5cloneEv
FNDA:0,_ZN5boost16exception_detail25error_info_container_implC2Ev
FNDA:0,_ZN5boost16exception_detail25error_info_container_implD2Ev
FNDA:0,_ZN5boost16exception_detail25error_info_container_impl3setERKNS_10shared_ptrINS0_15error_info_baseEEERKNS0_10type_info_E
FNDA:0,_ZNK5boost16exception_detail25error_info_container_impl3getERKNS0_10type_info_E
FNDA:0,_ZNK5boost16exception_detail25error_info_container_impl22diagnostic_informationEPKc
FNF:8
FNH:0
DA:65,0
DA:66,0
DA:68,0
DA:70,0
DA:71,0
DA:72,0
DA:75,0
DA:77,0
DA:78,0
DA:79,0
DA:80,0
DA:83,0
DA:85,0
DA:86,0
DA:88,0
DA:89,0
DA:91,0
DA:95,0
DA:97,0
DA:99,0
DA:100,0
DA:101,0
DA:103,0
DA:104,0
DA:106,0
DA:107,0
DA:108,0
DA:124,0
DA:126,0
DA:127,0
DA:130,0
DA:132,0
DA:133,0
DA:136,0
DA:137,0
DA:142,0
DA:144,0
DA:145,0
DA:146,0
DA:147,0
DA:149,0
DA:150,0
DA:151,0
DA:152,0
DA:153,0
LF:45
LH:0
end_of_record
TN:
SF:/usr/include/boost/function/function_base.hpp
FN:264,284,_ZN5boost6detail8function22functor_manager_commonIPFvRKNS_5debug16dbg_startup_infoEEE10manage_ptrERKNS1_15function_bufferERSA_NS1_30functor_manager_operation_typeE
FN:264,284,_ZN5boost6detail8function22functor_manager_commonIPFvvEE10manage_ptrERKNS1_15function_bufferERS6_NS1_30functor_manager_operation_typeE
FN:288,316,_ZN5boost6detail8function22functor_manager_commonINS0_7forwardEE12manage_smallERKNS1_15function_bufferERS5_NS1_30functor_manager_operation_typeE
FN:288,316,_ZN5boost6detail8function22functor_manager_commonINS_3_bi6bind_tIvPFvPFPNS_9unit_test10test_suiteEiPPcEENS3_5list1INS3_5valueISB_EEEEEEE12manage_smallERKNS1_15function_bufferERSK_NS1_30functor_manager_operation_typeE
FN:288,316,_ZN5boost6detail8function22functor_manager_commonINS_3_bi6bind_tIvPFvRSoENS3_5list1INS_17reference_wrapperISoEEEEEEE12manage_smallERKNS1_15function_bufferERSE_NS1_30functor_manager_operation_typeE
FN:288,316,_ZN5boost6detail8function22functor_manager_commonIZNS_9unit_test14runtime_config12_GLOBAL__N_119register_parametersERNS_7runtime16parameters_storeEEUlNS3_13basic_cstringIKcEEE_E12manage_smallERKNS1_15function_bufferERSE_NS1_30functor_manager_operation_typeE
FN:327,331,_ZN5boost6detail8function15functor_managerIPFvRKNS_5debug16dbg_startup_infoEEE7managerERKNS1_15function_bufferERSA_NS1_30functor_manager_operation_typeENS1_16function_ptr_tagE
FN:327,331,_ZN5boost6detail8function15functor_managerIPFvvEE7managerERKNS1_15function_bufferERS6_NS1_30functor_manager_operation_typeENS1_16function_ptr_tagE
FN:335,339,_ZN5boost6detail8function15functor_managerINS0_7forwardEE7managerERKNS1_15function_bufferERS5_NS1_30functor_manager_operation_typeENS_17integral_constantIbLb1EEE
FN:335,339,_ZN5boost6detail8function15functor_managerINS_3_bi6bind_tIvPFvPFPNS_9unit_test10test_suiteEiPPcEENS3_5list1INS3_5valueISB_EEEEEEE7managerERKNS1_15function_bufferERSK_NS1_30functor_manager_operation_typeENS_17integral_constantIbLb1EEE
FN:335,339,_ZN5boost6detail8function15functor_managerINS_3_bi6bind_tIvPFvRSoENS3_5list1INS_17reference_wrapperISoEEEEEEE7managerERKNS1_15function_bufferERSE_NS1_30functor_manager_operation_typeENS_17integral_constantIbLb1EEE
FN:335,339,_ZN5boost6detail8function15functor_managerIZNS_9unit_test14runtime_config12_GLOBAL__N_119register_parametersERNS_7runtime16parameters_storeEEUlNS3_13basic_cstringIKcEEE_E7managerERKNS1_15function_bufferERSE_NS1_30functor_manager_operation_typeENS_17integral_constantIbLb1EEE
FN:343,375,_ZN5boost6detail8function15functor_managerINS_3_bi6bind_tIvNS_4_mfi3mf0IvNS_9unit_test17test_unit_fixtureEEENS3_5list1INS3_5valueINS_10shared_ptrIS8_EEEEEEEEE7managerERKNS1_15function_bufferERSI_NS1_30functor_manager_operation_typeENS_17integral_constantIbLb0EEE
FN:343,375,_ZN5boost6detail8function15functor_managerINS_3_bi6bind_tIvNS_4_mfi3mf1IvNS_9unit_test15unit_test_log_tERSoEENS3_5list2INS3_5valueIPS8_EENS_17reference_wrapperISoEEEEEEE7managerERKNS1_15function_bufferERSK_NS1_30functor_manager_operation_typeENS_17integral_constantIbLb0EEE
FN:343,375,_ZN5boost6detail8function15functor_managerINS_3_bi6bind_tIvNS_4_mfi3mf2IvNS_9unit_test13test_observerEmmEENS3_5list3INS3_5valueIPS8_EENSB_INS7_17test_case_counter19readonly_property43EEENSB_ImEEEEEEE7managerERKNS1_15function_bufferERSL_NS1_30functor_manager_operation_typeENS_17integral_constantIbLb0EEE
FN:343,375,_ZN5boost6detail8function15functor_managerINS_3_bi6bind_tIvNS_4_mfi3mf2IvNS_9unit_test15unit_test_log_tENS7_13output_formatERSoEENS3_5list3INS3_5valueIPS8_EENSD_IS9_EENS_17reference_wrapperISoEEEEEEE7managerERKNS1_15function_bufferERSM_NS1_30functor_manager_operation_typeENS_17integral_constantIbLb0EEE
FN:381,386,_ZN5boost6detail8function15functor_managerINS0_7forwardEE7managerERKNS1_15function_bufferERS5_NS1_30functor_manager_operation_typeENS1_16function_obj_tagE
FN:381,386,_ZN5boost6detail8function15functor_managerINS_3_bi6bind_tIvNS_4_mfi3mf0IvNS_9unit_test17test_unit_fixtureEEENS3_5list1INS3_5valueINS_10shared_ptrIS8_EEEEEEEEE7managerERKNS1_15function_bufferERSI_NS1_30functor_manager_operation_typeENS1_16function_obj_tagE
FN:381,386,_ZN5boost6detail8function15functor_managerINS_3_bi6bind_tIvNS_4_mfi3mf1IvNS_9unit_test15unit_test_log_tERSoEENS3_5list2INS3_5valueIPS8_EENS_17reference_wrapperISoEEEEEEE7managerERKNS1_15function_bufferERSK_NS1_30functor_manager_operation_typeENS1_16function_obj_tagE
FN:381,386,_ZN5boost6detail8function15functor_managerINS_3_bi6bind_tIvNS_4_mfi3mf2IvNS_9unit_test13test_observerEmmEENS3_5list3INS3_5valueIPS8_EENSB_INS7_17test_case_counter19readonly_property43EEENSB_ImEEEEEEE7managerERKNS1_15function_bufferERSL_NS1_30functor_manager_operation_typeENS1_16function_obj_tagE
FN:381,386,_ZN5boost6detail8function15functor_managerINS_3_bi6bind_tIvNS_4_mfi3mf2IvNS_9unit_test15unit_test_log_tENS7_13output_formatERSoEENS3_5list3INS3_5valueIPS8_EENSD_IS9_EENS_17reference_wrapperISoEEEEEEE7managerERKNS1_15function_bufferERSM_NS1_30functor_manager_operation_typeENS1_16function_obj_tagE
FN:381,386,_ZN5boost6detail8function15functor_managerINS_3_bi6bind_tIvPFvPFPNS_9unit_test10test_suiteEiPPcEENS3_5list1INS3_5valueISB_EEEEEEE7managerERKNS1_15function_bufferERSK_NS1_30functor_manager_operation_typeENS1_16function_obj_tagE
FN:381,386,_ZN5boost6detail8function15functor_managerINS_3_bi6bind_tIvPFvRSoENS3_5list1INS_17reference_wrapperISoEEEEEEE7managerERKNS1_15function_bufferERSE_NS1_30functor_manager_operation_typeENS1_16function_obj_tagE
FN:381,386,_ZN5boost6detail8function15functor_managerIZNS_9unit_test14runtime_config12_GLOBAL__N_119register_parametersERNS_7runtime16parameters_storeEEUlNS3_13basic_cstringIKcEEE_E7managerERKNS1_15function_bufferERSE_NS1_30functor_manager_operation_typeENS1_16function_obj_tagE
FN:400,411,_ZN5boost6detail8function15functor_managerINS0_7forwardEE6manageERKNS1_15function_bufferERS5_NS1_30functor_manager_operation_typeE
FN:400,411,_ZN5boost6detail8function15functor_managerINS_3_bi6bind_tIvNS_4_mfi3mf0IvNS_9unit_test17test_unit_fixtureEEENS3_5list1INS3_5valueINS_10shared_ptrIS8_EEEEEEEEE6manageERKNS1_15function_bufferERSI_NS1_30functor_manager_operation_typeE
FN:400,411,_ZN5boost6detail8function15functor_managerINS_3_bi6bind_tIvNS_4_mfi3mf1IvNS_9unit_test15unit_test_log_tERSoEENS3_5list2INS3_5valueIPS8_EENS_17reference_wrapperISoEEEEEEE6manageERKNS1_15function_bufferERSK_NS1_30functor_manager_operation_typeE
FN:400,411,_ZN5boost6detail8function15functor_managerINS_3_bi6bind_tIvNS_4_mfi3mf2IvNS_9unit_test13test_observerEmmEENS3_5list3INS3_5valueIPS8_EENSB_INS7_17test_case_counter19readonly_property43EEENSB_ImEEEEEEE6manageERKNS1_15function_bufferERSL_NS1_30functor_manager_operation_typeE
FN:400,411,_ZN5boost6detail8function15functor_managerINS_3_bi6bind_tIvNS_4_mfi3mf2IvNS_9unit_test15unit_test_log_tENS7_13output_formatERSoEENS3_5list3INS3_5valueIPS8_EENSD_IS9_EENS_17reference_wrapperISoEEEEEEE6manageERKNS1_15function_bufferERSM_NS1_30functor_manager_operation_typeE
FN:400,411,_ZN5boost6detail8function15functor_managerINS_3_bi6bind_tIvPFvPFPNS_9unit_test10test_suiteEiPPcEENS3_5list1INS3_5valueISB_EEEEEEE6manageERKNS1_15function_bufferERSK_NS1_30functor_manager_operation_typeE
FN:400,411,_ZN5boost6detail8function15functor_managerINS_3_bi6bind_tIvPFvRSoENS3_5list1INS_17reference_wrapperISoEEEEEEE6manageERKNS1_15function_bufferERSE_NS1_30functor_manager_operation_typeE
FN:400,411,_ZN5boost6detail8function15functor_managerIPFvRKNS_5debug16dbg_startup_infoEEE6manageERKNS1_15function_bufferERSA_NS1_30functor_manager_operation_typeE
FN:400,411,_ZN5boost6detail8function15functor_managerIPFvvEE6manageERKNS1_15function_bufferERS6_NS1_30functor_manager_operation_typeE
FN:400,411,_ZN5boost6detail8function15functor_managerIZNS_9unit_test14runtime_config12_GLOBAL__N_119register_parametersERNS_7runtime16parameters_storeEEUlNS3_13basic_cstringIKcEEE_E6manageERKNS1_15function_bufferERSE_NS1_30functor_manager_operation_typeE
FN:608,608,_ZN5boost13function_baseC2Ev
FN:611,611,_ZNK5boost13function_base5emptyEv
FN:694,696,_ZNK5boost13function_base28has_trivial_copy_and_destroyEv
FN:713,713,_ZN5boost17bad_function_callC2Ev
FN:868,871,_ZN5boost6detail8function16has_empty_targetEz
FNDA:9,_ZN5boost6detail8function22functor_manager_commonIPFvRKNS_5debug16dbg_startup_infoEEE10manage_ptrERKNS1_15function_bufferERSA_NS1_30functor_manager_operation_typeE
FNDA:53,_ZN5boost6detail8function22functor_manager_commonIPFvvEE10manage_ptrERKNS1_15function_bufferERS6_NS1_30functor_manager_operation_typeE
FNDA:0,_ZN5boost6detail8function22functor_manager_commonINS0_7forwardEE12manage_smallERKNS1_15function_bufferERS5_NS1_30functor_manager_operation_typeE
FNDA:0,_ZN5boost6detail8function22functor_manager_commonINS_3_bi6bind_tIvPFvPFPNS_9unit_test10test_suiteEiPPcEENS3_5list1INS3_5valueISB_EEEEEEE12manage_smallERKNS1_15function_bufferERSK_NS1_30functor_manager_operation_typeE
FNDA:0,_ZN5boost6detail8function22functor_manager_commonINS_3_bi6bind_tIvPFvRSoENS3_5list1INS_17reference_wrapperISoEEEEEEE12manage_smallERKNS1_15function_bufferERSE_NS1_30functor_manager_operation_typeE
FNDA:0,_ZN5boost6detail8function22functor_manager_commonIZNS_9unit_test14runtime_config12_GLOBAL__N_119register_parametersERNS_7runtime16parameters_storeEEUlNS3_13basic_cstringIKcEEE_E12manage_smallERKNS1_15function_bufferERSE_NS1_30functor_manager_operation_typeE
FNDA:9,_ZN5boost6detail8function15functor_managerIPFvRKNS_5debug16dbg_startup_infoEEE7managerERKNS1_15function_bufferERSA_NS1_30functor_manager_operation_typeENS1_16function_ptr_tagE
FNDA:53,_ZN5boost6detail8function15functor_managerIPFvvEE7managerERKNS1_15function_bufferERS6_NS1_30functor_manager_operation_typeENS1_16function_ptr_tagE
FNDA:0,_ZN5boost6detail8function15functor_managerINS0_7forwardEE7managerERKNS1_15function_bufferERS5_NS1_30functor_manager_operation_typeENS_17integral_constantIbLb1EEE
FNDA:0,_ZN5boost6detail8function15functor_managerINS_3_bi6bind_tIvPFvPFPNS_9unit_test10test_suiteEiPPcEENS3_5list1INS3_5valueISB_EEEEEEE7managerERKNS1_15function_bufferERSK_NS1_30functor_manager_operation_typeENS_17integral_constantIbLb1EEE
FNDA:0,_ZN5boost6detail8function15functor_managerINS_3_bi6bind_tIvPFvRSoENS3_5list1INS_17reference_wrapperISoEEEEEEE7managerERKNS1_15function_bufferERSE_NS1_30functor_manager_operation_typeENS_17integral_constantIbLb1EEE
FNDA:0,_ZN5boost6detail8function15functor_managerIZNS_9unit_test14runtime_config12_GLOBAL__N_119register_parametersERNS_7runtime16parameters_storeEEUlNS3_13basic_cstringIKcEEE_E7managerERKNS1_15function_bufferERSE_NS1_30functor_manager_operation_typeENS_17integral_constantIbLb1EEE
FNDA:0,_ZN5boost6detail8function15functor_managerINS_3_bi6bind_tIvNS_4_mfi3mf0IvNS_9unit_test17test_unit_fixtureEEENS3_5list1INS3_5valueINS_10shared_ptrIS8_EEEEEEEEE7managerERKNS1_15function_bufferERSI_NS1_30functor_manager_operation_typeENS_17integral_constantIbLb0EEE
FNDA:0,_ZN5boost6detail8function15functor_managerINS_3_bi6bind_tIvNS_4_mfi3mf1IvNS_9unit_test15unit_test_log_tERSoEENS3_5list2INS3_5valueIPS8_EENS_17reference_wrapperISoEEEEEEE7managerERKNS1_15function_bufferERSK_NS1_30functor_manager_operation_typeENS_17integral_constantIbLb0EEE
FNDA:3,_ZN5boost6detail8function15functor_managerINS_3_bi6bind_tIvNS_4_mfi3mf2IvNS_9unit_test13test_observerEmmEENS3_5list3INS3_5valueIPS8_EENSB_INS7_17test_case_counter19readonly_property43EEENSB_ImEEEEEEE7managerERKNS1_15function_bufferERSL_NS1_30functor_manager_operation_typeENS_17integral_constantIbLb0EEE
FNDA:0,_ZN5boost6detail8function15functor_managerINS_3_bi6bind_tIvNS_4_mfi3mf2IvNS_9unit_test15unit_test_log_tENS7_13output_formatERSoEENS3_5list3INS3_5valueIPS8_EENSD_IS9_EENS_17reference_wrapperISoEEEEEEE7managerERKNS1_15function_bufferERSM_NS1_30functor_manager_operation_typeENS_17integral_constantIbLb0EEE
FNDA:0,_ZN5boost6detail8function15functor_managerINS0_7forwardEE7managerERKNS1_15function_bufferERS5_NS1_30functor_manager_operation_typeENS1_16function_obj_tagE
FNDA:0,_ZN5boost6detail8function15functor_managerINS_3_bi6bind_tIvNS_4_mfi3mf0IvNS_9unit_test17test_unit_fixtureEEENS3_5list1INS3_5valueINS_10shared_ptrIS8_EEEEEEEEE7managerERKNS1_15function_bufferERSI_NS1_30functor_manager_operation_typeENS1_16function_obj_tagE
FNDA:0,_ZN5boost6detail8function15functor_managerINS_3_bi6bind_tIvNS_4_mfi3mf1IvNS_9unit_test15unit_test_log_tERSoEENS3_5list2INS3_5valueIPS8_EENS_17reference_wrapperISoEEEEEEE7managerERKNS1_15function_bufferERSK_NS1_30functor_manager_operation_typeENS1_16function_obj_tagE
FNDA:3,_ZN5boost6detail8function15functor_managerINS_3_bi6bind_tIvNS_4_mfi3mf2IvNS_9unit_test13test_observerEmmEENS3_5list3INS3_5valueIPS8_EENSB_INS7_17test_case_counter19readonly_property43EEENSB_ImEEEEEEE7managerERKNS1_15function_bufferERSL_NS1_30functor_manager_operation_typeENS1_16function_obj_tagE
FNDA:0,_ZN5boost6detail8function15functor_managerINS_3_bi6bind_tIvNS_4_mfi3mf2IvNS_9unit_test15unit_test_log_tENS7_13output_formatERSoEENS3_5list3INS3_5valueIPS8_EENSD_IS9_EENS_17reference_wrapperISoEEEEEEE7managerERKNS1_15function_bufferERSM_NS1_30functor_manager_operation_typeENS1_16function_obj_tagE
FNDA:0,_ZN5boost6detail8function15functor_managerINS_3_bi6bind_tIvPFvPFPNS_9unit_test10test_suiteEiPPcEENS3_5list1INS3_5valueISB_EEEEEEE7managerERKNS1_15function_bufferERSK_NS1_30functor_manager_operation_typeENS1_16function_obj_tagE
FNDA:0,_ZN5boost6detail8function15functor_managerINS_3_bi6bind_tIvPFvRSoENS3_5list1INS_17reference_wrapperISoEEEEEEE7managerERKNS1_15function_bufferERSE_NS1_30functor_manager_operation_typeENS1_16function_obj_tagE
FNDA:0,_ZN5boost6detail8function15functor_managerIZNS_9unit_test14runtime_config12_GLOBAL__N_119register_parametersERNS_7runtime16parameters_storeEEUlNS3_13basic_cstringIKcEEE_E7managerERKNS1_15function_bufferERSE_NS1_30functor_manager_operation_typeENS1_16function_obj_tagE
FNDA:0,_ZN5boost6detail8function15functor_managerINS0_7forwardEE6manageERKNS1_15function_bufferERS5_NS1_30functor_manager_operation_typeE
FNDA:0,_ZN5boost6detail8function15functor_managerINS_3_bi6bind_tIvNS_4_mfi3mf0IvNS_9unit_test17test_unit_fixtureEEENS3_5list1INS3_5valueINS_10shared_ptrIS8_EEEEEEEEE6manageERKNS1_15function_bufferERSI_NS1_30functor_manager_operation_typeE
FNDA:0,_ZN5boost6detail8function15functor_managerINS_3_bi6bind_tIvNS_4_mfi3mf1IvNS_9unit_test15unit_test_log_tERSoEENS3_5list2INS3_5valueIPS8_EENS_17reference_wrapperISoEEEEEEE6manageERKNS1_15function_bufferERSK_NS1_30functor_manager_operation_typeE
FNDA:3,_ZN5boost6detail8function15functor_managerINS_3_bi6bind_tIvNS_4_mfi3mf2IvNS_9unit_test13test_observerEmmEENS3_5list3INS3_5valueIPS8_EENSB_INS7_17test_case_counter19readonly_property43EEENSB_ImEEEEEEE6manageERKNS1_15function_bufferERSL_NS1_30functor_manager_operation_typeE
FNDA:0,_ZN5boost6detail8function15functor_managerINS_3_bi6bind_tIvNS_4_mfi3mf2IvNS_9unit_test15unit_test_log_tENS7_13output_formatERSoEENS3_5list3INS3_5valueIPS8_EENSD_IS9_EENS_17reference_wrapperISoEEEEEEE6manageERKNS1_15function_bufferERSM_NS1_30functor_manager_operation_typeE
FNDA:0,_ZN5boost6detail8function15functor_managerINS_3_bi6bind_tIvPFvPFPNS_9unit_test10test_suiteEiPPcEENS3_5list1INS3_5valueISB_EEEEEEE6manageERKNS1_15function_bufferERSK_NS1_30functor_manager_operation_typeE
FNDA:0,_ZN5boost6detail8function15functor_managerINS_3_bi6bind_tIvPFvRSoENS3_5list1INS_17reference_wrapperISoEEEEEEE6manageERKNS1_15function_bufferERSE_NS1_30functor_manager_operation_typeE
FNDA:9,_ZN5boost6detail8function15functor_managerIPFvRKNS_5debug16dbg_startup_infoEEE6manageERKNS1_15function_bufferERSA_NS1_30functor_manager_operation_typeE
FNDA:53,_ZN5boost6detail8function15functor_managerIPFvvEE6manageERKNS1_15function_bufferERS6_NS1_30functor_manager_operation_typeE
FNDA:0,_ZN5boost6detail8function15functor_managerIZNS_9unit_test14runtime_config12_GLOBAL__N_119register_parametersERNS_7runtime16parameters_storeEEUlNS3_13basic_cstringIKcEEE_E6manageERKNS1_15function_bufferERSE_NS1_30functor_manager_operation_typeE
FNDA:281,_ZN5boost13function_baseC2Ev
FNDA:277,_ZNK5boost13function_base5emptyEv
FNDA:253,_ZNK5boost13function_base28has_trivial_copy_and_destroyEv
FNDA:0,_ZN5boost17bad_function_callC2Ev
FNDA:62,_ZN5boost6detail8function16has_empty_targetEz
FNF:39
FNH:13
DA:264,62
DA:267,62
DA:268,0
DA:269,62
DA:270,0
DA:271,0
DA:272,62
DA:273,62
DA:274,0
DA:275,0
DA:276,0
DA:278,0
DA:280,0
DA:281,0
DA:282,0
DA:284,62
DA:288,0
DA:291,0
DA:292,0
DA:294,0
DA:296,0
DA:297,0
DA:299,0
DA:301,0
DA:303,0
DA:305,0
DA:306,0
DA:307,0
DA:308,0
DA:310,0
DA:312,0
DA:313,0
DA:314,0
DA:316,0
DA:327,62
DA:330,62
DA:331,62
DA:335,0
DA:338,0
DA:339,0
DA:343,3
DA:346,3
DA:352,0
DA:354,0
DA:355,0
DA:356,3
DA:357,0
DA:358,0
DA:359,3
DA:361,3
DA:363,3
DA:364,3
DA:365,0
DA:366,0
DA:367,0
DA:369,0
DA:371,0
DA:372,0
DA:373,0
DA:375,3
DA:381,3
DA:384,3
DA:386,3
DA:400,65
DA:404,65
DA:405,0
DA:406,0
DA:407,0
DA:409,65
DA:411,65
DA:608,281
DA:611,277
DA:694,253
DA:695,253
DA:713,0
DA:868,62
DA:870,62
LF:77
LH:30
end_of_record
TN:
SF:/usr/include/boost/function/function_template.hpp
FN:1003,1048,_ZN5boost9function1IvNS_9unit_test13basic_cstringIKcEEE11move_assignERS5_
FN:1003,1048,_ZN5boost9function1IvRKNS_5debug16dbg_startup_infoEE11move_assignERS5_
FN:1100,1100,_ZN5boost8functionIFvNS_9unit_test13basic_cstringIKcEEEEC2Ev
FN:1100,1100,_ZN5boost8functionIFvRKNS_5debug16dbg_startup_infoEEEC2Ev
FN:1100,1100,_ZN5boost8functionIFvvEEC2Ev
FN:1103,1112,_ZN5boost8functionIFivEEC2INS_6detail7forwardEEET_NS_10enable_if_IXntsrNS_11is_integralIS6_EE5valueEiE4typeE
FN:1103,1112,_ZN5boost8functionIFvNS_9unit_test13basic_cstringIKcEEEEC2IZNS1_14runtime_config12_GLOBAL__N_119register_parametersERNS_7runtime16parameters_storeEEUlS4_E_EET_NS_10enable_if_IXntsrNS_11is_integralISE_EE5valueEiE4typeE
FN:1103,1112,_ZN5boost8functionIFvRKNS_5debug16dbg_startup_infoEEEC2IPS5_EET_NS_10enable_if_IXntsrNS_11is_integralIS9_EE5valueEiE4typeE
FN:1103,1112,_ZN5boost8functionIFvvEEC2INS_3_bi6bind_tIvNS_4_mfi3mf0IvNS_9unit_test17test_unit_fixtureEEENS4_5list1INS4_5valueINS_10shared_ptrIS9_EEEEEEEEEET_NS_10enable_if_IXntsrNS_11is_integralISI_EE5valueEiE4typeE
FN:1103,1112,_ZN5boost8functionIFvvEEC2INS_3_bi6bind_tIvNS_4_mfi3mf1IvNS_9unit_test15unit_test_log_tERSoEENS4_5list2INS4_5valueIPS9_EENS_17reference_wrapperISoEEEEEEEET_NS_10enable_if_IXntsrNS_11is_integralISK_EE5valueEiE4typeE
FN:1103,1112,_ZN5boost8functionIFvvEEC2INS_3_bi6bind_tIvNS_4_mfi3mf2IvNS_9unit_test13test_observerEmmEENS4_5list3INS4_5valueIPS9_EENSC_INS8_17test_case_counter19readonly_property43EEENSC_ImEEEEEEEET_NS_10enable_if_IXntsrNS_11is_integralISL_EE5valueEiE4typeE
FN:1103,1112,_ZN5boost8functionIFvvEEC2INS_3_bi6bind_tIvNS_4_mfi3mf2IvNS_9unit_test15unit_test_log_tENS8_13output_formatERSoEENS4_5list3INS4_5valueIPS9_EENSE_ISA_EENS_17reference_wrapperISoEEEEEEEET_NS_10enable_if_IXntsrNS_11is_integralISM_EE5valueEiE4typeE
FN:1103,1112,_ZN5boost8functionIFvvEEC2INS_3_bi6bind_tIvPFvPFPNS_9unit_test10test_suiteEiPPcEENS4_5list1INS4_5valueISC_EEEEEEEET_NS_10enable_if_IXntsrNS_11is_integralISK_EE5valueEiE4typeE
FN:1103,1112,_ZN5boost8functionIFvvEEC2INS_3_bi6bind_tIvPFvRSoENS4_5list1INS_17reference_wrapperISoEEEEEEEET_NS_10enable_if_IXntsrNS_11is_integralISE_EE5valueEiE4typeE
FN:1103,1112,_ZN5boost8functionIFvvEEC2IPS1_EET_NS_10enable_if_IXntsrNS_11is_integralIS5_EE5valueEiE4typeE
FN:112,118,_ZN5boost6detail8function22void_function_invoker0IPFvvEvE6invokeERNS1_15function_bufferE
FN:112,118,_ZN5boost6detail8function22void_function_invoker1IPFvRKNS_5debug16dbg_startup_infoEEvS6_E6invokeERNS1_15function_bufferES6_
FN:1129,1129,_ZN5boost8functionIFNS_10test_tools16assertion_resultEmEEC2ERKS4_
FN:1129,1129,_ZN5boost8functionIFvNS_9unit_test13basic_cstringIKcEEEEC2ERKS6_
FN:1129,1129,_ZN5boost8functionIFvRKNS_5debug16dbg_startup_infoEEEC2ERKS6_
FN:1129,1129,_ZN5boost8functionIFvvEEC2ERKS2_
FN:1135,1135,_ZN5boost8functionIFvNS_9unit_test13basic_cstringIKcEEEEC2EOS6_
FN:1139,1143,_ZN5boost8functionIFvRKNS_5debug16dbg_startup_infoEEEaSERKS6_
FN:1161,1165,_ZN5boost8functionIFvNS_9unit_test13basic_cstringIKcEEEEaSIZNS1_14runtime_config12_GLOBAL__N_119register_parametersERNS_7runtime16parameters_storeEEUlS4_E_EENS_10enable_if_IXntsrNS_11is_integralIT_EE5valueERS6_E4typeESG_
FN:1161,1165,_ZN5boost8functionIFvRKNS_5debug16dbg_startup_infoEEEaSIPS5_EENS_10enable_if_IXntsrNS_11is_integralIT_EE5valueERS6_E4typeESB_
FN:128,138,_ZN5boost6detail8function21function_obj_invoker0INS0_7forwardEiE6invokeERNS1_15function_bufferE
FN:149,159,_ZN5boost6detail8function26void_function_obj_invoker0INS_3_bi6bind_tIvNS_4_mfi3mf0IvNS_9unit_test17test_unit_fixtureEEENS3_5list1INS3_5valueINS_10shared_ptrIS8_EEEEEEEEvE6invokeERNS1_15function_bufferE
FN:149,159,_ZN5boost6detail8function26void_function_obj_invoker0INS_3_bi6bind_tIvNS_4_mfi3mf1IvNS_9unit_test15unit_test_log_tERSoEENS3_5list2INS3_5valueIPS8_EENS_17reference_wrapperISoEEEEEEvE6invokeERNS1_15function_bufferE
FN:149,159,_ZN5boost6detail8function26void_function_obj_invoker0INS_3_bi6bind_tIvNS_4_mfi3mf2IvNS_9unit_test13test_observerEmmEENS3_5list3INS3_5valueIPS8_EENSB_INS7_17test_case_counter19readonly_property43EEENSB_ImEEEEEEvE6invokeERNS1_15function_bufferE
FN:149,159,_ZN5boost6detail8function26void_function_obj_invoker0INS_3_bi6bind_tIvNS_4_mfi3mf2IvNS_9unit_test15unit_test_log_tENS7_13output_formatERSoEENS3_5list3INS3_5valueIPS8_EENSD_IS9_EENS_17reference_wrapperISoEEEEEEvE6invokeERNS1_15function_bufferE
FN:149,159,_ZN5boost6detail8function26void_function_obj_invoker0INS_3_bi6bind_tIvPFvPFPNS_9unit_test10test_suiteEiPPcEENS3_5list1INS3_5valueISB_EEEEEEvE6invokeERNS1_15function_bufferE
FN:149,159,_ZN5boost6detail8function26void_function_obj_invoker0INS_3_bi6bind_tIvPFvRSoENS3_5list1INS_17reference_wrapperISoEEEEEEvE6invokeERNS1_15function_bufferE
FN:149,159,_ZN5boost6detail8function26void_function_obj_invoker1IZNS_9unit_test14runtime_config12_GLOBAL__N_119register_parametersERNS_7runtime16parameters_storeEEUlNS3_13basic_cstringIKcEEE_vSB_E6invokeERNS1_15function_bufferESB_
FN:490,494,_ZNK5boost6detail8function13basic_vtable0IiE9assign_toINS0_7forwardEEEbT_RNS1_15function_bufferE
FN:490,494,_ZNK5boost6detail8function13basic_vtable0IvE9assign_toINS_3_bi6bind_tIvNS_4_mfi3mf0IvNS_9unit_test17test_unit_fixtureEEENS5_5list1INS5_5valueINS_10shared_ptrISA_EEEEEEEEEEbT_RNS1_15function_bufferE
FN:490,494,_ZNK5boost6detail8function13basic_vtable0IvE9assign_toINS_3_bi6bind_tIvNS_4_mfi3mf1IvNS_9unit_test15unit_test_log_tERSoEENS5_5list2INS5_5valueIPSA_EENS_17reference_wrapperISoEEEEEEEEbT_RNS1_15function_bufferE
FN:490,494,_ZNK5boost6detail8function13basic_vtable0IvE9assign_toINS_3_bi6bind_tIvNS_4_mfi3mf2IvNS_9unit_test13test_observerEmmEENS5_5list3INS5_5valueIPSA_EENSD_INS9_17test_case_counter19readonly_property43EEENSD_ImEEEEEEEEbT_RNS1_15function_bufferE
FN:490,494,_ZNK5boost6detail8function13basic_vtable0IvE9assign_toINS_3_bi6bind_tIvNS_4_mfi3mf2IvNS_9unit_test15unit_test_log_tENS9_13output_formatERSoEENS5_5list3INS5_5valueIPSA_EENSF_ISB_EENS_17reference_wrapperISoEEEEEEEEbT_RNS1_15function_bufferE
FN:490,494,_ZNK5boost6detail8function13basic_vtable0IvE9assign_toINS_3_bi6bind_tIvPFvPFPNS_9unit_test10test_suiteEiPPcEENS5_5list1INS5_5valueISD_EEEEEEEEbT_RNS1_15function_bufferE
FN:490,494,_ZNK5boost6detail8function13basic_vtable0IvE9assign_toINS_3_bi6bind_tIvPFvRSoENS5_5list1INS_17reference_wrapperISoEEEEEEEEbT_RNS1_15function_bufferE
FN:490,494,_ZNK5boost6detail8function13basic_vtable0IvE9assign_toIPFvvEEEbT_RNS1_15function_bufferE
FN:490,494,_ZNK5boost6detail8function13basic_vtable1IvNS_9unit_test13basic_cstringIKcEEE9assign_toIZNS3_14runtime_config12_GLOBAL__N_119register_parametersERNS_7runtime16parameters_storeEEUlS6_E_EEbT_RNS1_15function_bufferE
FN:490,494,_ZNK5boost6detail8function13basic_vtable1IvRKNS_5debug16dbg_startup_infoEE9assign_toIPFvS6_EEEbT_RNS1_15function_bufferE
FN:502,514,_ZNK5boost6detail8function13basic_vtable0IiE5clearERNS1_15function_bufferE
FN:502,514,_ZNK5boost6detail8function13basic_vtable0IvE5clearERNS1_15function_bufferE
FN:502,514,_ZNK5boost6detail8function13basic_vtable1INS_10test_tools16assertion_resultEmE5clearERNS1_15function_bufferE
FN:502,514,_ZNK5boost6detail8function13basic_vtable1IvNS_9unit_test13basic_cstringIKcEEE5clearERNS1_15function_bufferE
FN:502,514,_ZNK5boost6detail8function13basic_vtable1IvRKNS_5debug16dbg_startup_infoEE5clearERNS1_15function_bufferE
FN:520,531,_ZNK5boost6detail8function13basic_vtable0IvE9assign_toIPFvvEEEbT_RNS1_15function_bufferENS1_16function_ptr_tagE
FN:520,531,_ZNK5boost6detail8function13basic_vtable1IvRKNS_5debug16dbg_startup_infoEE9assign_toIPFvS6_EEEbT_RNS1_15function_bufferENS1_16function_ptr_tagE
FN:573,576,_ZNK5boost6detail8function13basic_vtable0IiE14assign_functorINS0_7forwardEEEvT_RNS1_15function_bufferENS_17integral_constantIbLb1EEE
FN:573,576,_ZNK5boost6detail8function13basic_vtable0IvE14assign_functorINS_3_bi6bind_tIvPFvPFPNS_9unit_test10test_suiteEiPPcEENS5_5list1INS5_5valueISD_EEEEEEEEvT_RNS1_15function_bufferENS_17integral_constantIbLb1EEE
FN:573,576,_ZNK5boost6detail8function13basic_vtable0IvE14assign_functorINS_3_bi6bind_tIvPFvRSoENS5_5list1INS_17reference_wrapperISoEEEEEEEEvT_RNS1_15function_bufferENS_17integral_constantIbLb1EEE
FN:573,576,_ZNK5boost6detail8function13basic_vtable1IvNS_9unit_test13basic_cstringIKcEEE14assign_functorIZNS3_14runtime_config12_GLOBAL__N_119register_parametersERNS_7runtime16parameters_storeEEUlS6_E_EEvT_RNS1_15function_bufferENS_17integral_constantIbLb1EEE
FN:587,590,_ZNK5boost6detail8function13basic_vtable0IvE14assign_functorINS_3_bi6bind_tIvNS_4_mfi3mf0IvNS_9unit_test17test_unit_fixtureEEENS5_5list1INS5_5valueINS_10shared_ptrISA_EEEEEEEEEEvT_RNS1_15function_bufferENS_17integral_constantIbLb0EEE
FN:587,590,_ZNK5boost6detail8function13basic_vtable0IvE14assign_functorINS_3_bi6bind_tIvNS_4_mfi3mf1IvNS_9unit_test15unit_test_log_tERSoEENS5_5list2INS5_5valueIPSA_EENS_17reference_wrapperISoEEEEEEEEvT_RNS1_15function_bufferENS_17integral_constantIbLb0EEE
FN:587,590,_ZNK5boost6detail8function13basic_vtable0IvE14assign_functorINS_3_bi6bind_tIvNS_4_mfi3mf2IvNS_9unit_test13test_observerEmmEENS5_5list3INS5_5valueIPSA_EENSD_INS9_17test_case_counter19readonly_property43EEENSD_ImEEEEEEEEvT_RNS1_15function_bufferENS_17integral_constantIbLb0EEE
FN:587,590,_ZNK5boost6detail8function13basic_vtable0IvE14assign_functorINS_3_bi6bind_tIvNS_4_mfi3mf2IvNS_9unit_test15unit_test_log_tENS9_13output_formatERSoEENS5_5list3INS5_5valueIPSA_EENSF_ISB_EENS_17reference_wrapperISoEEEEEEEEvT_RNS1_15function_bufferENS_17integral_constantIbLb0EEE
FN:617,626,_ZNK5boost6detail8function13basic_vtable0IiE9assign_toINS0_7forwardEEEbT_RNS1_15function_bufferENS1_16function_obj_tagE
FN:617,626,_ZNK5boost6detail8function13basic_vtable0IvE9assign_toINS_3_bi6bind_tIvNS_4_mfi3mf0IvNS_9unit_test17test_unit_fixtureEEENS5_5list1INS5_5valueINS_10shared_ptrISA_EEEEEEEEEEbT_RNS1_15function_bufferENS1_16function_obj_tagE
FN:617,626,_ZNK5boost6detail8function13basic_vtable0IvE9assign_toINS_3_bi6bind_tIvNS_4_mfi3mf1IvNS_9unit_test15unit_test_log_tERSoEENS5_5list2INS5_5valueIPSA_EENS_17reference_wrapperISoEEEEEEEEbT_RNS1_15function_bufferENS1_16function_obj_tagE
FN:617,626,_ZNK5boost6detail8function13basic_vtable0IvE9assign_toINS_3_bi6bind_tIvNS_4_mfi3mf2IvNS_9unit_test13test_observerEmmEENS5_5list3INS5_5valueIPSA_EENSD_INS9_17test_case_counter19readonly_property43EEENSD_ImEEEEEEEEbT_RNS1_15function_bufferENS1_16function_obj_tagE
FN:617,626,_ZNK5boost6detail8function13basic_vtable0IvE9assign_toINS_3_bi6bind_tIvNS_4_mfi3mf2IvNS_9unit_test15unit_test_log_tENS9_13output_formatERSoEENS5_5list3INS5_5valueIPSA_EENSF_ISB_EENS_17reference_wrapperISoEEEEEEEEbT_RNS1_15function_bufferENS1_16function_obj_tagE
FN:617,626,_ZNK5boost6detail8function13basic_vtable0IvE9assign_toINS_3_bi6bind_tIvPFvPFPNS_9unit_test10test_suiteEiPPcEENS5_5list1INS5_5valueISD_EEEEEEEEbT_RNS1_15function_bufferENS1_16function_obj_tagE
FN:617,626,_ZNK5boost6detail8function13basic_vtable0IvE9assign_toINS_3_bi6bind_tIvPFvRSoENS5_5list1INS_17reference_wrapperISoEEEEEEEEbT_RNS1_15function_bufferENS1_16function_obj_tagE
FN:617,626,_ZNK5boost6detail8function13basic_vtable1IvNS_9unit_test13basic_cstringIKcEEE9assign_toIZNS3_14runtime_config12_GLOBAL__N_119register_parametersERNS_7runtime16parameters_storeEEUlS6_E_EEbT_RNS1_15function_bufferENS1_16function_obj_tagE
FN:685,688,_ZNK5boost9function0IiE10get_vtableEv
FN:685,688,_ZNK5boost9function0IvE10get_vtableEv
FN:685,688,_ZNK5boost9function1INS_10test_tools16assertion_resultEmE10get_vtableEv
FN:685,688,_ZNK5boost9function1IvNS_9unit_test13basic_cstringIKcEEE10get_vtableEv
FN:685,688,_ZNK5boost9function1IvRKNS_5debug16dbg_startup_infoEE10get_vtableEv
FN:714,714,_ZN5boost9function0IvEC2Ev
FN:714,714,_ZN5boost9function1IvNS_9unit_test13basic_cstringIKcEEEC2Ev
FN:714,714,_ZN5boost9function1IvRKNS_5debug16dbg_startup_infoEEC2Ev
FN:719,729,_ZN5boost9function0IiEC2INS_6detail7forwardEEET_NS_10enable_if_IXntsrNS_11is_integralIS5_EE5valueEiE4typeE
FN:719,729,_ZN5boost9function0IvEC2INS_3_bi6bind_tIvNS_4_mfi3mf0IvNS_9unit_test17test_unit_fixtureEEENS3_5list1INS3_5valueINS_10shared_ptrIS8_EEEEEEEEEET_NS_10enable_if_IXntsrNS_11is_integralISH_EE5valueEiE4typeE
FN:719,729,_ZN5boost9function0IvEC2INS_3_bi6bind_tIvNS_4_mfi3mf1IvNS_9unit_test15unit_test_log_tERSoEENS3_5list2INS3_5valueIPS8_EENS_17reference_wrapperISoEEEEEEEET_NS_10enable_if_IXntsrNS_11is_integralISJ_EE5valueEiE4typeE
FN:719,729,_ZN5boost9function0IvEC2INS_3_bi6bind_tIvNS_4_mfi3mf2IvNS_9unit_test13test_observerEmmEENS3_5list3INS3_5valueIPS8_EENSB_INS7_17test_case_counter19readonly_property43EEENSB_ImEEEEEEEET_NS_10enable_if_IXntsrNS_11is_integralISK_EE5valueEiE4typeE
FN:719,729,_ZN5boost9function0IvEC2INS_3_bi6bind_tIvNS_4_mfi3mf2IvNS_9unit_test15unit_test_log_tENS7_13output_formatERSoEENS3_5list3INS3_5valueIPS8_EENSD_IS9_EENS_17reference_wrapperISoEEEEEEEET_NS_10enable_if_IXntsrNS_11is_integralISL_EE5valueEiE4typeE
FN:719,729,_ZN5boost9function0IvEC2INS_3_bi6bind_tIvPFvPFPNS_9unit_test10test_suiteEiPPcEENS3_5list1INS3_5valueISB_EEEEEEEET_NS_10enable_if_IXntsrNS_11is_integralISJ_EE5valueEiE4typeE
FN:719,729,_ZN5boost9function0IvEC2INS_3_bi6bind_tIvPFvRSoENS3_5list1INS_17reference_wrapperISoEEEEEEEET_NS_10enable_if_IXntsrNS_11is_integralISD_EE5valueEiE4typeE
FN:719,729,_ZN5boost9function0IvEC2IPFvvEEET_NS_10enable_if_IXntsrNS_11is_integralIS5_EE5valueEiE4typeE
FN:719,729,_ZN5boost9function1IvNS_9unit_test13basic_cstringIKcEEEC2IZNS1_14runtime_config12_GLOBAL__N_119register_parametersERNS_7runtime16parameters_storeEEUlS4_E_EET_NS_10enable_if_IXntsrNS_11is_integralISD_EE5valueEiE4typeE
FN:719,729,_ZN5boost9function1IvRKNS_5debug16dbg_startup_infoEEC2IPFvS4_EEET_NS_10enable_if_IXntsrNS_11is_integralIS9_EE5valueEiE4typeE
FN:752,755,_ZN5boost9function0IvEC2ERKS1_
FN:752,755,_ZN5boost9function1INS_10test_tools16assertion_resultEmEC2ERKS3_
FN:752,755,_ZN5boost9function1IvNS_9unit_test13basic_cstringIKcEEEC2ERKS5_
FN:752,755,_ZN5boost9function1IvRKNS_5debug16dbg_startup_infoEEC2ERKS5_
FN:758,761,_ZN5boost9function1IvNS_9unit_test13basic_cstringIKcEEEC2EOS5_
FN:764,764,_ZN5boost9function0IiED2Ev
FN:764,764,_ZN5boost9function0IvED2Ev
FN:764,764,_ZN5boost9function1INS_10test_tools16assertion_resultEmED2Ev
FN:764,764,_ZN5boost9function1IvNS_9unit_test13basic_cstringIKcEEED2Ev
FN:764,764,_ZN5boost9function1IvRKNS_5debug16dbg_startup_infoEED2Ev
FN:766,773,_ZNK5boost9function0IiEclEv
FN:766,773,_ZNK5boost9function0IvEclEv
FN:766,773,_ZNK5boost9function1INS_10test_tools16assertion_resultEmEclEm
FN:766,773,_ZNK5boost9function1IvNS_9unit_test13basic_cstringIKcEEEclES4_
FN:766,773,_ZNK5boost9function1IvRKNS_5debug16dbg_startup_infoEEclES4_
FN:864,873,_ZN5boost9function1IvNS_9unit_test13basic_cstringIKcEEE4swapERS5_
FN:864,873,_ZN5boost9function1IvRKNS_5debug16dbg_startup_infoEE4swapERS5_
FN:876,883,_ZN5boost9function0IiE5clearEv
FN:876,883,_ZN5boost9function0IvE5clearEv
FN:876,883,_ZN5boost9function1INS_10test_tools16assertion_resultEmE5clearEv
FN:876,883,_ZN5boost9function1IvNS_9unit_test13basic_cstringIKcEEE5clearEv
FN:876,883,_ZN5boost9function1IvRKNS_5debug16dbg_startup_infoEE5clearEv
FN:891,891,_ZN5boost9function0IvE5dummy7nonnullEv
FN:897,898,_ZNK5boost9function0IvEcvMNS1_5dummyEFvvEEv
FN:900,901,_ZNK5boost9function1IvNS_9unit_test13basic_cstringIKcEEEntEv
FN:900,901,_ZNK5boost9function1IvRKNS_5debug16dbg_startup_infoEEntEv
FN:905,930,_ZN5boost9function0IvE13assign_to_ownERKS1_
FN:905,930,_ZN5boost9function1INS_10test_tools16assertion_resultEmE13assign_to_ownERKS3_
FN:905,930,_ZN5boost9function1IvNS_9unit_test13basic_cstringIKcEEE13assign_to_ownERKS5_
FN:905,930,_ZN5boost9function1IvRKNS_5debug16dbg_startup_infoEE13assign_to_ownERKS5_
FN:933,964,_ZN5boost9function0IiE9assign_toINS_6detail7forwardEEEvT_
FN:933,964,_ZN5boost9function0IvE9assign_toINS_3_bi6bind_tIvNS_4_mfi3mf0IvNS_9unit_test17test_unit_fixtureEEENS3_5list1INS3_5valueINS_10shared_ptrIS8_EEEEEEEEEEvT_
FN:933,964,_ZN5boost9function0IvE9assign_toINS_3_bi6bind_tIvNS_4_mfi3mf1IvNS_9unit_test15unit_test_log_tERSoEENS3_5list2INS3_5valueIPS8_EENS_17reference_wrapperISoEEEEEEEEvT_
FN:933,964,_ZN5boost9function0IvE9assign_toINS_3_bi6bind_tIvNS_4_mfi3mf2IvNS_9unit_test13test_observerEmmEENS3_5list3INS3_5valueIPS8_EENSB_INS7_17test_case_counter19readonly_property43EEENSB_ImEEEEEEEEvT_
FN:933,964,_ZN5boost9function0IvE9assign_toINS_3_bi6bind_tIvNS_4_mfi3mf2IvNS_9unit_test15unit_test_log_tENS7_13output_formatERSoEENS3_5list3INS3_5valueIPS8_EENSD_IS9_EENS_17reference_wrapperISoEEEEEEEEvT_
FN:933,964,_ZN5boost9function0IvE9assign_toINS_3_bi6bind_tIvPFvPFPNS_9unit_test10test_suiteEiPPcEENS3_5list1INS3_5valueISB_EEEEEEEEvT_
FN:933,964,_ZN5boost9function0IvE9assign_toINS_3_bi6bind_tIvPFvRSoENS3_5list1INS_17reference_wrapperISoEEEEEEEEvT_
FN:933,964,_ZN5boost9function0IvE9assign_toIPFvvEEEvT_
FN:933,964,_ZN5boost9function1IvNS_9unit_test13basic_cstringIKcEEE9assign_toIZNS1_14runtime_config12_GLOBAL__N_119register_parametersERNS_7runtime16parameters_storeEEUlS4_E_EEvT_
FN:933,964,_ZN5boost9function1IvRKNS_5debug16dbg_startup_infoEE9assign_toIPFvS4_EEEvT_
FNDA:31,_ZN5boost9function1IvNS_9unit_test13basic_cstringIKcEEE11move_assignERS5_
FNDA:27,_ZN5boost9function1IvRKNS_5debug16dbg_startup_infoEE11move_assignERS5_
FNDA:28,_ZN5boost8functionIFvNS_9unit_test13basic_cstringIKcEEEEC2Ev
FNDA:9,_ZN5boost8functionIFvRKNS_5debug16dbg_startup_infoEEEC2Ev
FNDA:1,_ZN5boost8functionIFvvEEC2Ev
FNDA:57,_ZN5boost8functionIFivEEC2INS_6detail7forwardEEET_NS_10enable_if_IXntsrNS_11is_integralIS6_EE5valueEiE4typeE
FNDA:1,_ZN5boost8functionIFvNS_9unit_test13basic_cstringIKcEEEEC2IZNS1_14runtime_config12_GLOBAL__N_119register_parametersERNS_7runtime16parameters_storeEEUlS4_E_EET_NS_10enable_if_IXntsrNS_11is_integralISE_EE5valueEiE4typeE
FNDA:9,_ZN5boost8functionIFvRKNS_5debug16dbg_startup_infoEEEC2IPS5_EET_NS_10enable_if_IXntsrNS_11is_integralIS9_EE5valueEiE4typeE
FNDA:0,_ZN5boost8functionIFvvEEC2INS_3_bi6bind_tIvNS_4_mfi3mf0IvNS_9unit_test17test_unit_fixtureEEENS4_5list1INS4_5valueINS_10shared_ptrIS9_EEEEEEEEEET_NS_10enable_if_IXntsrNS_11is_integralISI_EE5valueEiE4typeE
FNDA:0,_ZN5boost8functionIFvvEEC2INS_3_bi6bind_tIvNS_4_mfi3mf1IvNS_9unit_test15unit_test_log_tERSoEENS4_5list2INS4_5valueIPS9_EENS_17reference_wrapperISoEEEEEEEET_NS_10enable_if_IXntsrNS_11is_integralISK_EE5valueEiE4typeE
FNDA:3,_ZN5boost8functionIFvvEEC2INS_3_bi6bind_tIvNS_4_mfi3mf2IvNS_9unit_test13test_observerEmmEENS4_5list3INS4_5valueIPS9_EENSC_INS8_17test_case_counter19readonly_property43EEENSC_ImEEEEEEEET_NS_10enable_if_IXntsrNS_11is_integralISL_EE5valueEiE4typeE
FNDA:0,_ZN5boost8functionIFvvEEC2INS_3_bi6bind_tIvNS_4_mfi3mf2IvNS_9unit_test15unit_test_log_tENS8_13output_formatERSoEENS4_5list3INS4_5valueIPS9_EENSE_ISA_EENS_17reference_wrapperISoEEEEEEEET_NS_10enable_if_IXntsrNS_11is_integralISM_EE5valueEiE4typeE
FNDA:1,_ZN5boost8functionIFvvEEC2INS_3_bi6bind_tIvPFvPFPNS_9unit_test10test_suiteEiPPcEENS4_5list1INS4_5valueISC_EEEEEEEET_NS_10enable_if_IXntsrNS_11is_integralISK_EE5valueEiE4typeE
FNDA:0,_ZN5boost8functionIFvvEEC2INS_3_bi6bind_tIvPFvRSoENS4_5list1INS_17reference_wrapperISoEEEEEEEET_NS_10enable_if_IXntsrNS_11is_integralISE_EE5valueEiE4typeE
FNDA:53,_ZN5boost8functionIFvvEEC2IPS1_EET_NS_10enable_if_IXntsrNS_11is_integralIS5_EE5valueEiE4typeE
FNDA:53,_ZN5boost6detail8function22void_function_invoker0IPFvvEvE6invokeERNS1_15function_bufferE
FNDA:0,_ZN5boost6detail8function22void_function_invoker1IPFvRKNS_5debug16dbg_startup_infoEEvS6_E6invokeERNS1_15function_bufferES6_
FNDA:0,_ZN5boost8functionIFNS_10test_tools16assertion_resultEmEEC2ERKS4_
FNDA:28,_ZN5boost8functionIFvNS_9unit_test13basic_cstringIKcEEEEC2ERKS6_
FNDA:0,_ZN5boost8functionIFvRKNS_5debug16dbg_startup_infoEEEC2ERKS6_
FNDA:53,_ZN5boost8functionIFvvEEC2ERKS2_
FNDA:28,_ZN5boost8functionIFvNS_9unit_test13basic_cstringIKcEEEEC2EOS6_
FNDA:0,_ZN5boost8functionIFvRKNS_5debug16dbg_startup_infoEEEaSERKS6_
FNDA:1,_ZN5boost8functionIFvNS_9unit_test13basic_cstringIKcEEEEaSIZNS1_14runtime_config12_GLOBAL__N_119register_parametersERNS_7runtime16parameters_storeEEUlS4_E_EENS_10enable_if_IXntsrNS_11is_integralIT_EE5valueERS6_E4typeESG_
FNDA:9,_ZN5boost8functionIFvRKNS_5debug16dbg_startup_infoEEEaSIPS5_EENS_10enable_if_IXntsrNS_11is_integralIT_EE5valueERS6_E4typeESB_
FNDA:57,_ZN5boost6detail8function21function_obj_invoker0INS0_7forwardEiE6invokeERNS1_15function_bufferE
FNDA:0,_ZN5boost6detail8function26void_function_obj_invoker0INS_3_bi6bind_tIvNS_4_mfi3mf0IvNS_9unit_test17test_unit_fixtureEEENS3_5list1INS3_5valueINS_10shared_ptrIS8_EEEEEEEEvE6invokeERNS1_15function_bufferE
FNDA:0,_ZN5boost6detail8function26void_function_obj_invoker0INS_3_bi6bind_tIvNS_4_mfi3mf1IvNS_9unit_test15unit_test_log_tERSoEENS3_5list2INS3_5valueIPS8_EENS_17reference_wrapperISoEEEEEEvE6invokeERNS1_15function_bufferE
FNDA:3,_ZN5boost6detail8function26void_function_obj_invoker0INS_3_bi6bind_tIvNS_4_mfi3mf2IvNS_9unit_test13test_observerEmmEENS3_5list3INS3_5valueIPS8_EENSB_INS7_17test_case_counter19readonly_property43EEENSB_ImEEEEEEvE6invokeERNS1_15function_bufferE
FNDA:0,_ZN5boost6detail8function26void_function_obj_invoker0INS_3_bi6bind_tIvNS_4_mfi3mf2IvNS_9unit_test15unit_test_log_tENS7_13output_formatERSoEENS3_5list3INS3_5valueIPS8_EENSD_IS9_EENS_17reference_wrapperISoEEEEEEvE6invokeERNS1_15function_bufferE
FNDA:1,_ZN5boost6detail8function26void_function_obj_invoker0INS_3_bi6bind_tIvPFvPFPNS_9unit_test10test_suiteEiPPcEENS3_5list1INS3_5valueISB_EEEEEEvE6invokeERNS1_15function_bufferE
FNDA:0,_ZN5boost6detail8function26void_function_obj_invoker0INS_3_bi6bind_tIvPFvRSoENS3_5list1INS_17reference_wrapperISoEEEEEEvE6invokeERNS1_15function_bufferE
FNDA:0,_ZN5boost6detail8function26void_function_obj_invoker1IZNS_9unit_test14runtime_config12_GLOBAL__N_119register_parametersERNS_7runtime16parameters_storeEEUlNS3_13basic_cstringIKcEEE_vSB_E6invokeERNS1_15function_bufferESB_
FNDA:57,_ZNK5boost6detail8function13basic_vtable0IiE9assign_toINS0_7forwardEEEbT_RNS1_15function_bufferE
FNDA:0,_ZNK5boost6detail8function13basic_vtable0IvE9assign_toINS_3_bi6bind_tIvNS_4_mfi3mf0IvNS_9unit_test17test_unit_fixtureEEENS5_5list1INS5_5valueINS_10shared_ptrISA_EEEEEEEEEEbT_RNS1_15function_bufferE
FNDA:0,_ZNK5boost6detail8function13basic_vtable0IvE9assign_toINS_3_bi6bind_tIvNS_4_mfi3mf1IvNS_9unit_test15unit_test_log_tERSoEENS5_5list2INS5_5valueIPSA_EENS_17reference_wrapperISoEEEEEEEEbT_RNS1_15function_bufferE
FNDA:3,_ZNK5boost6detail8function13basic_vtable0IvE9assign_toINS_3_bi6bind_tIvNS_4_mfi3mf2IvNS_9unit_test13test_observerEmmEENS5_5list3INS5_5valueIPSA_EENSD_INS9_17test_case_counter19readonly_property43EEENSD_ImEEEEEEEEbT_RNS1_15function_bufferE
FNDA:0,_ZNK5boost6detail8function13basic_vtable0IvE9assign_toINS_3_bi6bind_tIvNS_4_mfi3mf2IvNS_9unit_test15unit_test_log_tENS9_13output_formatERSoEENS5_5list3INS5_5valueIPSA_EENSF_ISB_EENS_17reference_wrapperISoEEEEEEEEbT_RNS1_15function_bufferE
FNDA:1,_ZNK5boost6detail8function13basic_vtable0IvE9assign_toINS_3_bi6bind_tIvPFvPFPNS_9unit_test10test_suiteEiPPcEENS5_5list1INS5_5valueISD_EEEEEEEEbT_RNS1_15function_bufferE
FNDA:0,_ZNK5boost6detail8function13basic_vtable0IvE9assign_toINS_3_bi6bind_tIvPFvRSoENS5_5list1INS_17reference_wrapperISoEEEEEEEEbT_RNS1_15function_bufferE
FNDA:53,_ZNK5boost6detail8function13basic_vtable0IvE9assign_toIPFvvEEEbT_RNS1_15function_bufferE
FNDA:1,_ZNK5boost6detail8function13basic_vtable1IvNS_9unit_test13basic_cstringIKcEEE9assign_toIZNS3_14runtime_config12_GLOBAL__N_119register_parametersERNS_7runtime16parameters_storeEEUlS6_E_EEbT_RNS1_15function_bufferE
FNDA:9,_ZNK5boost6detail8function13basic_vtable1IvRKNS_5debug16dbg_startup_infoEE9assign_toIPFvS6_EEEbT_RNS1_15function_bufferE
FNDA:0,_ZNK5boost6detail8function13basic_vtable0IiE5clearERNS1_15function_bufferE
FNDA:56,_ZNK5boost6detail8function13basic_vtable0IvE5clearERNS1_15function_bufferE
FNDA:0,_ZNK5boost6detail8function13basic_vtable1INS_10test_tools16assertion_resultEmE5clearERNS1_15function_bufferE
FNDA:0,_ZNK5boost6detail8function13basic_vtable1IvNS_9unit_test13basic_cstringIKcEEE5clearERNS1_15function_bufferE
FNDA:9,_ZNK5boost6detail8function13basic_vtable1IvRKNS_5debug16dbg_startup_infoEE5clearERNS1_15function_bufferE
FNDA:53,_ZNK5boost6detail8function13basic_vtable0IvE9assign_toIPFvvEEEbT_RNS1_15function_bufferENS1_16function_ptr_tagE
FNDA:9,_ZNK5boost6detail8function13basic_vtable1IvRKNS_5debug16dbg_startup_infoEE9assign_toIPFvS6_EEEbT_RNS1_15function_bufferENS1_16function_ptr_tagE
FNDA:57,_ZNK5boost6detail8function13basic_vtable0IiE14assign_functorINS0_7forwardEEEvT_RNS1_15function_bufferENS_17integral_constantIbLb1EEE
FNDA:1,_ZNK5boost6detail8function13basic_vtable0IvE14assign_functorINS_3_bi6bind_tIvPFvPFPNS_9unit_test10test_suiteEiPPcEENS5_5list1INS5_5valueISD_EEEEEEEEvT_RNS1_15function_bufferENS_17integral_constantIbLb1EEE
FNDA:0,_ZNK5boost6detail8function13basic_vtable0IvE14assign_functorINS_3_bi6bind_tIvPFvRSoENS5_5list1INS_17reference_wrapperISoEEEEEEEEvT_RNS1_15function_bufferENS_17integral_constantIbLb1EEE
FNDA:1,_ZNK5boost6detail8function13basic_vtable1IvNS_9unit_test13basic_cstringIKcEEE14assign_functorIZNS3_14runtime_config12_GLOBAL__N_119register_parametersERNS_7runtime16parameters_storeEEUlS6_E_EEvT_RNS1_15function_bufferENS_17integral_constantIbLb1EEE
FNDA:0,_ZNK5boost6detail8function13basic_vtable0IvE14assign_functorINS_3_bi6bind_tIvNS_4_mfi3mf0IvNS_9unit_test17test_unit_fixtureEEENS5_5list1INS5_5valueINS_10shared_ptrISA_EEEEEEEEEEvT_RNS1_15function_bufferENS_17integral_constantIbLb0EEE
FNDA:0,_ZNK5boost6detail8function13basic_vtable0IvE14assign_functorINS_3_bi6bind_tIvNS_4_mfi3mf1IvNS_9unit_test15unit_test_log_tERSoEENS5_5list2INS5_5valueIPSA_EENS_17reference_wrapperISoEEEEEEEEvT_RNS1_15function_bufferENS_17integral_constantIbLb0EEE
FNDA:3,_ZNK5boost6detail8function13basic_vtable0IvE14assign_functorINS_3_bi6bind_tIvNS_4_mfi3mf2IvNS_9unit_test13test_observerEmmEENS5_5list3INS5_5valueIPSA_EENSD_INS9_17test_case_counter19readonly_property43EEENSD_ImEEEEEEEEvT_RNS1_15function_bufferENS_17integral_constantIbLb0EEE
FNDA:0,_ZNK5boost6detail8function13basic_vtable0IvE14assign_functorINS_3_bi6bind_tIvNS_4_mfi3mf2IvNS_9unit_test15unit_test_log_tENS9_13output_formatERSoEENS5_5list3INS5_5valueIPSA_EENSF_ISB_EENS_17reference_wrapperISoEEEEEEEEvT_RNS1_15function_bufferENS_17integral_constantIbLb0EEE
FNDA:57,_ZNK5boost6detail8function13basic_vtable0IiE9assign_toINS0_7forwardEEEbT_RNS1_15function_bufferENS1_16function_obj_tagE
FNDA:0,_ZNK5boost6detail8function13basic_vtable0IvE9assign_toINS_3_bi6bind_tIvNS_4_mfi3mf0IvNS_9unit_test17test_unit_fixtureEEENS5_5list1INS5_5valueINS_10shared_ptrISA_EEEEEEEEEEbT_RNS1_15function_bufferENS1_16function_obj_tagE
FNDA:0,_ZNK5boost6detail8function13basic_vtable0IvE9assign_toINS_3_bi6bind_tIvNS_4_mfi3mf1IvNS_9unit_test15unit_test_log_tERSoEENS5_5list2INS5_5valueIPSA_EENS_17reference_wrapperISoEEEEEEEEbT_RNS1_15function_bufferENS1_16function_obj_tagE
FNDA:3,_ZNK5boost6detail8function13basic_vtable0IvE9assign_toINS_3_bi6bind_tIvNS_4_mfi3mf2IvNS_9unit_test13test_observerEmmEENS5_5list3INS5_5valueIPSA_EENSD_INS9_17test_case_counter19readonly_property43EEENSD_ImEEEEEEEEbT_RNS1_15function_bufferENS1_16function_obj_tagE
FNDA:0,_ZNK5boost6detail8function13basic_vtable0IvE9assign_toINS_3_bi6bind_tIvNS_4_mfi3mf2IvNS_9unit_test15unit_test_log_tENS9_13output_formatERSoEENS5_5list3INS5_5valueIPSA_EENSF_ISB_EENS_17reference_wrapperISoEEEEEEEEbT_RNS1_15function_bufferENS1_16function_obj_tagE
FNDA:1,_ZNK5boost6detail8function13basic_vtable0IvE9assign_toINS_3_bi6bind_tIvPFvPFPNS_9unit_test10test_suiteEiPPcEENS5_5list1INS5_5valueISD_EEEEEEEEbT_RNS1_15function_bufferENS1_16function_obj_tagE
FNDA:0,_ZNK5boost6detail8function13basic_vtable0IvE9assign_toINS_3_bi6bind_tIvPFvRSoENS5_5list1INS_17reference_wrapperISoEEEEEEEEbT_RNS1_15function_bufferENS1_16function_obj_tagE
FNDA:1,_ZNK5boost6detail8function13basic_vtable1IvNS_9unit_test13basic_cstringIKcEEE9assign_toIZNS3_14runtime_config12_GLOBAL__N_119register_parametersERNS_7runtime16parameters_storeEEUlS6_E_EEbT_RNS1_15function_bufferENS1_16function_obj_tagE
FNDA:57,_ZNK5boost9function0IiE10get_vtableEv
FNDA:60,_ZNK5boost9function0IvE10get_vtableEv
FNDA:0,_ZNK5boost9function1INS_10test_tools16assertion_resultEmE10get_vtableEv
FNDA:0,_ZNK5boost9function1IvNS_9unit_test13basic_cstringIKcEEE10get_vtableEv
FNDA:0,_ZNK5boost9function1IvRKNS_5debug16dbg_startup_infoEE10get_vtableEv
FNDA:1,_ZN5boost9function0IvEC2Ev
FNDA:29,_ZN5boost9function1IvNS_9unit_test13basic_cstringIKcEEEC2Ev
FNDA:18,_ZN5boost9function1IvRKNS_5debug16dbg_startup_infoEEC2Ev
FNDA:57,_ZN5boost9function0IiEC2INS_6detail7forwardEEET_NS_10enable_if_IXntsrNS_11is_integralIS5_EE5valueEiE4typeE
FNDA:0,_ZN5boost9function0IvEC2INS_3_bi6bind_tIvNS_4_mfi3mf0IvNS_9unit_test17test_unit_fixtureEEENS3_5list1INS3_5valueINS_10shared_ptrIS8_EEEEEEEEEET_NS_10enable_if_IXntsrNS_11is_integralISH_EE5valueEiE4typeE
FNDA:0,_ZN5boost9function0IvEC2INS_3_bi6bind_tIvNS_4_mfi3mf1IvNS_9unit_test15unit_test_log_tERSoEENS3_5list2INS3_5valueIPS8_EENS_17reference_wrapperISoEEEEEEEET_NS_10enable_if_IXntsrNS_11is_integralISJ_EE5valueEiE4typeE
FNDA:3,_ZN5boost9function0IvEC2INS_3_bi6bind_tIvNS_4_mfi3mf2IvNS_9unit_test13test_observerEmmEENS3_5list3INS3_5valueIPS8_EENSB_INS7_17test_case_counter19readonly_property43EEENSB_ImEEEEEEEET_NS_10enable_if_IXntsrNS_11is_integralISK_EE5valueEiE4typeE
FNDA:0,_ZN5boost9function0IvEC2INS_3_bi6bind_tIvNS_4_mfi3mf2IvNS_9unit_test15unit_test_log_tENS7_13output_formatERSoEENS3_5list3INS3_5valueIPS8_EENSD_IS9_EENS_17reference_wrapperISoEEEEEEEET_NS_10enable_if_IXntsrNS_11is_integralISL_EE5valueEiE4typeE
FNDA:1,_ZN5boost9function0IvEC2INS_3_bi6bind_tIvPFvPFPNS_9unit_test10test_suiteEiPPcEENS3_5list1INS3_5valueISB_EEEEEEEET_NS_10enable_if_IXntsrNS_11is_integralISJ_EE5valueEiE4typeE
FNDA:0,_ZN5boost9function0IvEC2INS_3_bi6bind_tIvPFvRSoENS3_5list1INS_17reference_wrapperISoEEEEEEEET_NS_10enable_if_IXntsrNS_11is_integralISD_EE5valueEiE4typeE
FNDA:53,_ZN5boost9function0IvEC2IPFvvEEET_NS_10enable_if_IXntsrNS_11is_integralIS5_EE5valueEiE4typeE
FNDA:1,_ZN5boost9function1IvNS_9unit_test13basic_cstringIKcEEEC2IZNS1_14runtime_config12_GLOBAL__N_119register_parametersERNS_7runtime16parameters_storeEEUlS4_E_EET_NS_10enable_if_IXntsrNS_11is_integralISD_EE5valueEiE4typeE
FNDA:9,_ZN5boost9function1IvRKNS_5debug16dbg_startup_infoEEC2IPFvS4_EEET_NS_10enable_if_IXntsrNS_11is_integralIS9_EE5valueEiE4typeE
FNDA:53,_ZN5boost9function0IvEC2ERKS1_
FNDA:0,_ZN5boost9function1INS_10test_tools16assertion_resultEmEC2ERKS3_
FNDA:28,_ZN5boost9function1IvNS_9unit_test13basic_cstringIKcEEEC2ERKS5_
FNDA:0,_ZN5boost9function1IvRKNS_5debug16dbg_startup_infoEEC2ERKS5_
FNDA:28,_ZN5boost9function1IvNS_9unit_test13basic_cstringIKcEEEC2EOS5_
FNDA:57,_ZN5boost9function0IiED2Ev
FNDA:111,_ZN5boost9function0IvED2Ev
FNDA:0,_ZN5boost9function1INS_10test_tools16assertion_resultEmED2Ev
FNDA:86,_ZN5boost9function1IvNS_9unit_test13basic_cstringIKcEEED2Ev
FNDA:27,_ZN5boost9function1IvRKNS_5debug16dbg_startup_infoEED2Ev
FNDA:57,_ZNK5boost9function0IiEclEv
FNDA:57,_ZNK5boost9function0IvEclEv
FNDA:0,_ZNK5boost9function1INS_10test_tools16assertion_resultEmEclEm
FNDA:0,_ZNK5boost9function1IvNS_9unit_test13basic_cstringIKcEEEclES4_
FNDA:0,_ZNK5boost9function1IvRKNS_5debug16dbg_startup_infoEEclES4_
FNDA:1,_ZN5boost9function1IvNS_9unit_test13basic_cstringIKcEEE4swapERS5_
FNDA:9,_ZN5boost9function1IvRKNS_5debug16dbg_startup_infoEE4swapERS5_
FNDA:57,_ZN5boost9function0IiE5clearEv
FNDA:111,_ZN5boost9function0IvE5clearEv
FNDA:0,_ZN5boost9function1INS_10test_tools16assertion_resultEmE5clearEv
FNDA:114,_ZN5boost9function1IvNS_9unit_test13basic_cstringIKcEEE5clearEv
FNDA:36,_ZN5boost9function1IvRKNS_5debug16dbg_startup_infoEE5clearEv
FNDA:0,_ZN5boost9function0IvE5dummy7nonnullEv
FNDA:1,_ZNK5boost9function0IvEcvMNS1_5dummyEFvvEEv
FNDA:23,_ZNK5boost9function1IvNS_9unit_test13basic_cstringIKcEEEntEv
FNDA:0,_ZNK5boost9function1IvRKNS_5debug16dbg_startup_infoEEntEv
FNDA:53,_ZN5boost9function0IvE13assign_to_ownERKS1_
FNDA:0,_ZN5boost9function1INS_10test_tools16assertion_resultEmE13assign_to_ownERKS3_
FNDA:28,_ZN5boost9function1IvNS_9unit_test13basic_cstringIKcEEE13assign_to_ownERKS5_
FNDA:0,_ZN5boost9function1IvRKNS_5debug16dbg_startup_infoEE13assign_to_ownERKS5_
FNDA:57,_ZN5boost9function0IiE9assign_toINS_6detail7forwardEEEvT_
FNDA:0,_ZN5boost9function0IvE9assign_toINS_3_bi6bind_tIvNS_4_mfi3mf0IvNS_9unit_test17test_unit_fixtureEEENS3_5list1INS3_5valueINS_10shared_ptrIS8_EEEEEEEEEEvT_
FNDA:0,_ZN5boost9function0IvE9assign_toINS_3_bi6bind_tIvNS_4_mfi3mf1IvNS_9unit_test15unit_test_log_tERSoEENS3_5list2INS3_5valueIPS8_EENS_17reference_wrapperISoEEEEEEEEvT_
FNDA:3,_ZN5boost9function0IvE9assign_toINS_3_bi6bind_tIvNS_4_mfi3mf2IvNS_9unit_test13test_observerEmmEENS3_5list3INS3_5valueIPS8_EENSB_INS7_17test_case_counter19readonly_property43EEENSB_ImEEEEEEEEvT_
FNDA:0,_ZN5boost9function0IvE9assign_toINS_3_bi6bind_tIvNS_4_mfi3mf2IvNS_9unit_test15unit_test_log_tENS7_13output_formatERSoEENS3_5list3INS3_5valueIPS8_EENSD_IS9_EENS_17reference_wrapperISoEEEEEEEEvT_
FNDA:1,_ZN5boost9function0IvE9assign_toINS_3_bi6bind_tIvPFvPFPNS_9unit_test10test_suiteEiPPcEENS3_5list1INS3_5valueISB_EEEEEEEEvT_
FNDA:0,_ZN5boost9function0IvE9assign_toINS_3_bi6bind_tIvPFvRSoENS3_5list1INS_17reference_wrapperISoEEEEEEEEvT_
FNDA:53,_ZN5boost9function0IvE9assign_toIPFvvEEEvT_
FNDA:1,_ZN5boost9function1IvNS_9unit_test13basic_cstringIKcEEE9assign_toIZNS1_14runtime_config12_GLOBAL__N_119register_parametersERNS_7runtime16parameters_storeEEUlS4_E_EEvT_
FNDA:9,_ZN5boost9function1IvRKNS_5debug16dbg_startup_infoEE9assign_toIPFvS4_EEEvT_
FNF:124
FNH:74
DA:112,53
DA:116,53
DA:117,53
DA:118,53
DA:128,57
DA:134,57
DA:137,57
DA:149,4
DA:155,1
DA:157,3
DA:158,4
DA:159,4
DA:490,124
DA:493,124
DA:502,65
DA:509,65
DA:510,65
DA:514,65
DA:520,62
DA:522,62
DA:523,62
DA:526,62
DA:527,62
DA:529,0
DA:573,59
DA:575,59
DA:576,59
DA:587,3
DA:589,3
DA:590,3
DA:617,62
DA:619,62
DA:620,62
DA:622,62
DA:624,0
DA:685,117
DA:687,117
DA:714,48
DA:719,124
DA:726,124
DA:728,124
DA:729,124
DA:752,81
DA:754,81
DA:755,81
DA:758,28
DA:760,28
DA:761,28
DA:764,281
DA:766,114
DA:768,114
DA:769,0
DA:771,114
DA:772,114
DA:864,10
DA:866,10
DA:867,0
DA:869,10
DA:870,10
DA:871,10
DA:872,10
DA:873,10
DA:876,318
DA:878,318
DA:879,178
DA:880,3
DA:881,178
DA:883,318
DA:891,0
DA:897,1
DA:898,1
DA:900,23
DA:901,23
DA:905,81
DA:907,81
DA:908,54
DA:909,54
DA:922,54
DA:927,0
DA:930,81
DA:933,124
DA:954,124
DA:955,124
DA:960,121
DA:961,124
DA:963,0
DA:964,124
DA:1003,58
DA:1005,58
DA:1006,0
DA:1009,58
DA:1010,21
DA:1011,21
DA:1024,21
DA:1034,0
DA:1039,21
DA:1041,37
DA:1043,0
DA:1044,0
DA:1045,0
DA:1100,38
DA:1103,124
DA:1110,124
DA:1112,124
DA:1129,81
DA:1135,28
DA:1139,0
DA:1141,0
DA:1142,0
DA:1161,10
DA:1163,10
DA:1164,10
LF:112
LH:97
end_of_record
TN:
SF:/usr/include/boost/io/ios_state.hpp
FN:370,374,_ZN5boost2io18ios_base_all_saverC2ERSt8ios_base
FN:376,378,_ZN5boost2io18ios_base_all_saverD2Ev
FN:380,384,_ZN5boost2io18ios_base_all_saver7restoreEv
FNDA:8,_ZN5boost2io18ios_base_all_saverC2ERSt8ios_base
FNDA:8,_ZN5boost2io18ios_base_all_saverD2Ev
FNDA:170,_ZN5boost2io18ios_base_all_saver7restoreEv
FNF:3
FNH:3
DA:370,8
DA:371,8
DA:372,8
DA:373,8
DA:374,8
DA:376,8
DA:377,8
DA:378,8
DA:380,170
DA:381,170
DA:382,170
DA:383,170
DA:384,170
LF:13
LH:13
end_of_record
TN:
SF:/usr/include/boost/iterator/iterator_facade.hpp
FN:407,407,_ZN5boost9iterators6detail23operator_arrow_dispatchINS_9unit_test13basic_cstringIKcEEPS6_E5proxyC2ERKS6_
FN:408,408,_ZN5boost9iterators6detail23operator_arrow_dispatchINS_9unit_test13basic_cstringIKcEEPS6_E5proxyptEv
FN:415,418,_ZN5boost9iterators6detail23operator_arrow_dispatchINS_9unit_test13basic_cstringIKcEEPS6_E5applyERKS6_
FN:629,632,_ZN5boost9iterators20iterator_core_access11dereferenceINS_9unit_test5utils27basic_string_token_iteratorIcNS4_9ut_detail20default_char_compareIcEEEEEENT_9referenceERKSA_
FN:635,638,_ZN5boost9iterators20iterator_core_access9incrementINS_9unit_test5utils27basic_string_token_iteratorIcNS4_9ut_detail20default_char_compareIcEEEEEEvRT_
FN:647,650,_ZN5boost9iterators20iterator_core_access5equalINS_9unit_test5utils27basic_string_token_iteratorIcNS4_9ut_detail20default_char_compareIcEEEES9_EEbRKT_RKT0_N4mpl_5bool_ILb1EEE
FN:735,738,_ZNK5boost9iterators6detail20iterator_facade_baseINS_9unit_test5utils27basic_string_token_iteratorIcNS4_9ut_detail20default_char_compareIcEEEENS3_13basic_cstringIKcEENS0_21forward_traversal_tagESC_lLb0ELb0EEdeEv
FN:740,743,_ZNK5boost9iterators6detail20iterator_facade_baseINS_9unit_test5utils27basic_string_token_iteratorIcNS4_9ut_detail20default_char_compareIcEEEENS3_13basic_cstringIKcEENS0_21forward_traversal_tagESC_lLb0ELb0EEptEv
FN:745,749,_ZN5boost9iterators6detail20iterator_facade_baseINS_9unit_test5utils27basic_string_token_iteratorIcNS4_9ut_detail20default_char_compareIcEEEENS3_13basic_cstringIKcEENS0_21forward_traversal_tagESC_lLb0ELb0EEppEv
FN:755,758,_ZN5boost9iterators6detail20iterator_facade_baseINS_9unit_test5utils27basic_string_token_iteratorIcNS4_9ut_detail20default_char_compareIcEEEENS3_13basic_cstringIKcEENS0_21forward_traversal_tagESC_lLb0ELb0EE7derivedEv
FN:760,763,_ZNK5boost9iterators6detail20iterator_facade_baseINS_9unit_test5utils27basic_string_token_iteratorIcNS4_9ut_detail20default_char_compareIcEEEENS3_13basic_cstringIKcEENS0_21forward_traversal_tagESC_lLb0ELb0EE7derivedEv
FN:982,982,_ZN5boost9iteratorsneINS_9unit_test5utils27basic_string_token_iteratorIcNS3_9ut_detail20default_char_compareIcEEEENS2_13basic_cstringIKcEENS0_21forward_traversal_tagESB_lS8_SB_SC_SB_lEENS0_6detail23enable_if_interoperableIT_T4_NS_3mpl6apply2INSD_12always_bool2ESF_SG_E4typeEE4typeERKNS0_15iterator_facadeISF_T0_T1_T2_T3_EERKNSO_ISG_T5_T6_T7_T8_EE
FNDA:0,_ZN5boost9iterators6detail23operator_arrow_dispatchINS_9unit_test13basic_cstringIKcEEPS6_E5proxyC2ERKS6_
FNDA:0,_ZN5boost9iterators6detail23operator_arrow_dispatchINS_9unit_test13basic_cstringIKcEEPS6_E5proxyptEv
FNDA:0,_ZN5boost9iterators6detail23operator_arrow_dispatchINS_9unit_test13basic_cstringIKcEEPS6_E5applyERKS6_
FNDA:0,_ZN5boost9iterators20iterator_core_access11dereferenceINS_9unit_test5utils27basic_string_token_iteratorIcNS4_9ut_detail20default_char_compareIcEEEEEENT_9referenceERKSA_
FNDA:0,_ZN5boost9iterators20iterator_core_access9incrementINS_9unit_test5utils27basic_string_token_iteratorIcNS4_9ut_detail20default_char_compareIcEEEEEEvRT_
FNDA:0,_ZN5boost9iterators20iterator_core_access5equalINS_9unit_test5utils27basic_string_token_iteratorIcNS4_9ut_detail20default_char_compareIcEEEES9_EEbRKT_RKT0_N4mpl_5bool_ILb1EEE
FNDA:0,_ZNK5boost9iterators6detail20iterator_facade_baseINS_9unit_test5utils27basic_string_token_iteratorIcNS4_9ut_detail20default_char_compareIcEEEENS3_13basic_cstringIKcEENS0_21forward_traversal_tagESC_lLb0ELb0EEdeEv
FNDA:0,_ZNK5boost9iterators6detail20iterator_facade_baseINS_9unit_test5utils27basic_string_token_iteratorIcNS4_9ut_detail20default_char_compareIcEEEENS3_13basic_cstringIKcEENS0_21forward_traversal_tagESC_lLb0ELb0EEptEv
FNDA:0,_ZN5boost9iterators6detail20iterator_facade_baseINS_9unit_test5utils27basic_string_token_iteratorIcNS4_9ut_detail20default_char_compareIcEEEENS3_13basic_cstringIKcEENS0_21forward_traversal_tagESC_lLb0ELb0EEppEv
FNDA:0,_ZN5boost9iterators6detail20iterator_facade_baseINS_9unit_test5utils27basic_string_token_iteratorIcNS4_9ut_detail20default_char_compareIcEEEENS3_13basic_cstringIKcEENS0_21forward_traversal_tagESC_lLb0ELb0EE7derivedEv
FNDA:0,_ZNK5boost9iterators6detail20iterator_facade_baseINS_9unit_test5utils27basic_string_token_iteratorIcNS4_9ut_detail20default_char_compareIcEEEENS3_13basic_cstringIKcEENS0_21forward_traversal_tagESC_lLb0ELb0EE7derivedEv
FNDA:0,_ZN5boost9iteratorsneINS_9unit_test5utils27basic_string_token_iteratorIcNS3_9ut_detail20default_char_compareIcEEEENS2_13basic_cstringIKcEENS0_21forward_traversal_tagESB_lS8_SB_SC_SB_lEENS0_6detail23enable_if_interoperableIT_T4_NS_3mpl6apply2INSD_12always_bool2ESF_SG_E4typeEE4typeERKNS0_15iterator_facadeISF_T0_T1_T2_T3_EERKNSO_ISG_T5_T6_T7_T8_EE
FNF:12
FNH:0
DA:407,0
DA:408,0
DA:415,0
DA:417,0
DA:629,0
DA:631,0
DA:635,0
DA:637,0
DA:638,0
DA:647,0
DA:649,0
DA:735,0
DA:737,0
DA:740,0
DA:742,0
DA:745,0
DA:747,0
DA:748,0
DA:755,0
DA:757,0
DA:760,0
DA:762,0
DA:982,0
LF:23
LH:0
end_of_record
TN:
SF:/usr/include/boost/smart_ptr/detail/operator_bool.hpp
FN:12,15,_ZNK5boost10shared_ptrINS_16exception_detail15error_info_baseEEcvbEv
FN:12,15,_ZNK5boost10shared_ptrINS_6detail22translator_holder_baseEEcvbEv
FN:12,15,_ZNK5boost10shared_ptrINS_7runtime3cla13rt_cla_detail14parameter_trieEEcvbEv
FN:12,15,_ZNK5boost10shared_ptrINS_7runtime3cla6parserEEcvbEv
FN:61,64,_ZNK5boost10shared_ptrINS_23basic_wrap_stringstreamIcEEEntEv
FN:61,64,_ZNK5boost10shared_ptrINS_7runtime3cla13rt_cla_detail14parameter_trieEEntEv
FN:61,64,_ZNK5boost12scoped_arrayIcEntEv
FNDA:0,_ZNK5boost10shared_ptrINS_16exception_detail15error_info_baseEEcvbEv
FNDA:57,_ZNK5boost10shared_ptrINS_6detail22translator_holder_baseEEcvbEv
FNDA:0,_ZNK5boost10shared_ptrINS_7runtime3cla13rt_cla_detail14parameter_trieEEcvbEv
FNDA:0,_ZNK5boost10shared_ptrINS_7runtime3cla6parserEEcvbEv
FNDA:161,_ZNK5boost10shared_ptrINS_23basic_wrap_stringstreamIcEEEntEv
FNDA:71,_ZNK5boost10shared_ptrINS_7runtime3cla13rt_cla_detail14parameter_trieEEntEv
FNDA:57,_ZNK5boost12scoped_arrayIcEntEv
FNF:7
FNH:4
DA:12,57
DA:14,57
DA:61,289
DA:63,289
LF:4
LH:4
end_of_record
TN:
SF:/usr/include/boost/smart_ptr/detail/shared_count.hpp
FN:127,132,_ZN5boost6detail12shared_countC2Ev
FN:141,169,_ZN5boost6detail12shared_countC2INS_16exception_detail15error_info_baseEEEPT_
FN:141,169,_ZN5boost6detail12shared_countC2INS_23basic_wrap_stringstreamIcEEEEPT_
FN:141,169,_ZN5boost6detail12shared_countC2INS_2io18ios_base_all_saverEEEPT_
FN:141,169,_ZN5boost6detail12shared_countC2INS_7runtime14enum_parameterINS_9unit_test12report_levelELNS3_11args_amountE0EEEEEPT_
FN:141,169,_ZN5boost6detail12shared_countC2INS_7runtime14enum_parameterINS_9unit_test13output_formatELNS3_11args_amountE0EEEEEPT_
FN:141,169,_ZN5boost6detail12shared_countC2INS_7runtime14enum_parameterINS_9unit_test9log_levelELNS3_11args_amountE0EEEEEPT_
FN:141,169,_ZN5boost6detail12shared_countC2INS_7runtime14typed_argumentINS_9unit_test12report_levelEEEEEPT_
FN:141,169,_ZN5boost6detail12shared_countC2INS_7runtime14typed_argumentINS_9unit_test13output_formatEEEEEPT_
FN:141,169,_ZN5boost6detail12shared_countC2INS_7runtime14typed_argumentINS_9unit_test9log_levelEEEEEPT_
FN:141,169,_ZN5boost6detail12shared_countC2INS_7runtime14typed_argumentINSt7__cxx1112basic_stringIcSt11char_traitsIcESaIcEEEEEEEPT_
FN:141,169,_ZN5boost6detail12shared_countC2INS_7runtime14typed_argumentISt6vectorINSt7__cxx1112basic_stringIcSt11char_traitsIcESaIcEEESaISB_EEEEEEPT_
FN:141,169,_ZN5boost6detail12shared_countC2INS_7runtime14typed_argumentIbEEEEPT_
FN:141,169,_ZN5boost6detail12shared_countC2INS_7runtime14typed_argumentIjEEEEPT_
FN:141,169,_ZN5boost6detail12shared_countC2INS_7runtime14typed_argumentImEEEEPT_
FN:141,169,_ZN5boost6detail12shared_countC2INS_7runtime3cla13rt_cla_detail14parameter_trieEEEPT_
FN:141,169,_ZN5boost6detail12shared_countC2INS_7runtime3cla6parserEEEPT_
FN:141,169,_ZN5boost6detail12shared_countC2INS_7runtime6optionEEEPT_
FN:141,169,_ZN5boost6detail12shared_countC2INS_7runtime9parameterINS_9unit_test12report_levelELNS3_11args_amountE0ELb1EEEEEPT_
FN:141,169,_ZN5boost6detail12shared_countC2INS_7runtime9parameterINS_9unit_test13output_formatELNS3_11args_amountE0ELb1EEEEEPT_
FN:141,169,_ZN5boost6detail12shared_countC2INS_7runtime9parameterINS_9unit_test9log_levelELNS3_11args_amountE0ELb1EEEEEPT_
FN:141,169,_ZN5boost6detail12shared_countC2INS_7runtime9parameterINSt7__cxx1112basic_stringIcSt11char_traitsIcESaIcEEELNS3_11args_amountE0ELb0EEEEEPT_
FN:141,169,_ZN5boost6detail12shared_countC2INS_7runtime9parameterINSt7__cxx1112basic_stringIcSt11char_traitsIcESaIcEEELNS3_11args_amountE2ELb0EEEEEPT_
FN:141,169,_ZN5boost6detail12shared_countC2INS_7runtime9parameterIjLNS3_11args_amountE0ELb0EEEEEPT_
FN:141,169,_ZN5boost6detail12shared_countC2INS_7runtime9parameterImLNS3_11args_amountE0ELb0EEEEEPT_
FN:141,169,_ZN5boost6detail12shared_countC2INS_9unit_test23unit_test_log_formatterEEEPT_
FN:141,169,_ZN5boost6detail12shared_countC2INS_9unit_test9decorator10depends_onEEEPT_
FN:141,169,_ZN5boost6detail12shared_countC2INS_9unit_test9decorator11descriptionEEEPT_
FN:141,169,_ZN5boost6detail12shared_countC2INS_9unit_test9decorator12preconditionEEEPT_
FN:141,169,_ZN5boost6detail12shared_countC2INS_9unit_test9decorator15stack_decoratorEEEPT_
FN:141,169,_ZN5boost6detail12shared_countC2INS_9unit_test9decorator17expected_failuresEEEPT_
FN:141,169,_ZN5boost6detail12shared_countC2INS_9unit_test9decorator5labelEEEPT_
FN:141,169,_ZN5boost6detail12shared_countC2INS_9unit_test9decorator7timeoutEEEPT_
FN:141,169,_ZN5boost6detail12shared_countC2INS_9unit_test9decorator9fixture_tEEEPT_
FN:141,169,_ZN5boost6detail12shared_countC2INS_9unit_test9framework4impl21global_fixture_handleEEEPT_
FN:210,238,_ZN5boost6detail12shared_countC2IPNS_9unit_test14runtime_config13stream_holder16callback_cleanerENS0_13sp_ms_deleterIS6_EEEET_NS0_14sp_inplace_tagIT0_EE
FN:430,436,_ZN5boost6detail12shared_countD2Ev
FN:438,444,_ZN5boost6detail12shared_countC2ERKS1_
FN:448,454,_ZN5boost6detail12shared_countC2EOS1_
FN:475,480,_ZN5boost6detail12shared_count4swapERS1_
FN:521,524,_ZNK5boost6detail12shared_count19get_untyped_deleterEv
FNDA:1560,_ZN5boost6detail12shared_countC2Ev
FNDA:0,_ZN5boost6detail12shared_countC2INS_16exception_detail15error_info_baseEEEPT_
FNDA:0,_ZN5boost6detail12shared_countC2INS_23basic_wrap_stringstreamIcEEEEPT_
FNDA:6,_ZN5boost6detail12shared_countC2INS_2io18ios_base_all_saverEEEPT_
FNDA:1,_ZN5boost6detail12shared_countC2INS_7runtime14enum_parameterINS_9unit_test12report_levelELNS3_11args_amountE0EEEEEPT_
FNDA:4,_ZN5boost6detail12shared_countC2INS_7runtime14enum_parameterINS_9unit_test13output_formatELNS3_11args_amountE0EEEEEPT_
FNDA:1,_ZN5boost6detail12shared_countC2INS_7runtime14enum_parameterINS_9unit_test9log_levelELNS3_11args_amountE0EEEEEPT_
FNDA:1,_ZN5boost6detail12shared_countC2INS_7runtime14typed_argumentINS_9unit_test12report_levelEEEEEPT_
FNDA:3,_ZN5boost6detail12shared_countC2INS_7runtime14typed_argumentINS_9unit_test13output_formatEEEEEPT_
FNDA:1,_ZN5boost6detail12shared_countC2INS_7runtime14typed_argumentINS_9unit_test9log_levelEEEEEPT_
FNDA:1,_ZN5boost6detail12shared_countC2INS_7runtime14typed_argumentINSt7__cxx1112basic_stringIcSt11char_traitsIcESaIcEEEEEEEPT_
FNDA:2,_ZN5boost6detail12shared_countC2INS_7runtime14typed_argumentISt6vectorINSt7__cxx1112basic_stringIcSt11char_traitsIcESaIcEEESaISB_EEEEEEPT_
FNDA:13,_ZN5boost6detail12shared_countC2INS_7runtime14typed_argumentIbEEEEPT_
FNDA:1,_ZN5boost6detail12shared_countC2INS_7runtime14typed_argumentIjEEEEPT_
FNDA:1,_ZN5boost6detail12shared_countC2INS_7runtime14typed_argumentImEEEEPT_
FNDA:572,_ZN5boost6detail12shared_countC2INS_7runtime3cla13rt_cla_detail14parameter_trieEEEPT_
FNDA:1,_ZN5boost6detail12shared_countC2INS_7runtime3cla6parserEEEPT_
FNDA:13,_ZN5boost6detail12shared_countC2INS_7runtime6optionEEEPT_
FNDA:0,_ZN5boost6detail12shared_countC2INS_7runtime9parameterINS_9unit_test12report_levelELNS3_11args_amountE0ELb1EEEEEPT_
FNDA:0,_ZN5boost6detail12shared_countC2INS_7runtime9parameterINS_9unit_test13output_formatELNS3_11args_amountE0ELb1EEEEEPT_
FNDA:0,_ZN5boost6detail12shared_countC2INS_7runtime9parameterINS_9unit_test9log_levelELNS3_11args_amountE0ELb1EEEEEPT_
FNDA:5,_ZN5boost6detail12shared_countC2INS_7runtime9parameterINSt7__cxx1112basic_stringIcSt11char_traitsIcESaIcEEELNS3_11args_amountE0ELb0EEEEEPT_
FNDA:2,_ZN5boost6detail12shared_countC2INS_7runtime9parameterINSt7__cxx1112basic_stringIcSt11char_traitsIcESaIcEEELNS3_11args_amountE2ELb0EEEEEPT_
FNDA:1,_ZN5boost6detail12shared_countC2INS_7runtime9parameterIjLNS3_11args_amountE0ELb0EEEEEPT_
FNDA:1,_ZN5boost6detail12shared_countC2INS_7runtime9parameterImLNS3_11args_amountE0ELb0EEEEEPT_
FNDA:3,_ZN5boost6detail12shared_countC2INS_9unit_test23unit_test_log_formatterEEEPT_
FNDA:0,_ZN5boost6detail12shared_countC2INS_9unit_test9decorator10depends_onEEEPT_
FNDA:0,_ZN5boost6detail12shared_countC2INS_9unit_test9decorator11descriptionEEEPT_
FNDA:0,_ZN5boost6detail12shared_countC2INS_9unit_test9decorator12preconditionEEEPT_
FNDA:0,_ZN5boost6detail12shared_countC2INS_9unit_test9decorator15stack_decoratorEEEPT_
FNDA:0,_ZN5boost6detail12shared_countC2INS_9unit_test9decorator17expected_failuresEEEPT_
FNDA:0,_ZN5boost6detail12shared_countC2INS_9unit_test9decorator5labelEEEPT_
FNDA:0,_ZN5boost6detail12shared_countC2INS_9unit_test9decorator7timeoutEEEPT_
FNDA:0,_ZN5boost6detail12shared_countC2INS_9unit_test9decorator9fixture_tEEEPT_
FNDA:0,_ZN5boost6detail12shared_countC2INS_9unit_test9framework4impl21global_fixture_handleEEEPT_
FNDA:0,_ZN5boost6detail12shared_countC2IPNS_9unit_test14runtime_config13stream_holder16callback_cleanerENS0_13sp_ms_deleterIS6_EEEET_NS0_14sp_inplace_tagIT0_EE
FNDA:6423,_ZN5boost6detail12shared_countD2Ev
FNDA:2350,_ZN5boost6detail12shared_countC2ERKS1_
FNDA:1879,_ZN5boost6detail12shared_countC2EOS1_
FNDA:2020,_ZN5boost6detail12shared_count4swapERS1_
FNDA:0,_ZNK5boost6detail12shared_count19get_untyped_deleterEv
FNF:41
FNH:25
DA:127,1560
DA:132,1560
DA:141,633
DA:150,633
DA:152,0
DA:154,0
DA:155,0
DA:169,633
DA:210,0
DA:219,0
DA:221,0
DA:223,0
DA:224,0
DA:238,0
DA:430,6423
DA:432,6423
DA:436,6423
DA:438,2350
DA:443,2350
DA:444,2350
DA:448,1879
DA:453,1879
DA:454,1879
DA:475,2020
DA:477,2020
DA:478,2020
DA:479,2020
DA:480,2020
DA:521,0
DA:523,0
LF:30
LH:19
end_of_record
TN:
SF:/usr/include/boost/smart_ptr/detail/sp_counted_base_gcc_atomic.hpp
FN:106,109,_ZN5boost6detail15sp_counted_base12add_ref_copyEv
FN:116,123,_ZN5boost6detail15sp_counted_base7releaseEv
FN:130,136,_ZN5boost6detail15sp_counted_base12weak_releaseEv
FN:33,36,_ZN5boost6detail16atomic_incrementEPj
FN:38,41,_ZN5boost6detail16atomic_decrementEPj
FN:82,84,_ZN5boost6detail15sp_counted_baseC2Ev
FN:86,88,_ZN5boost6detail15sp_counted_baseD0Ev
FN:86,88,_ZN5boost6detail15sp_counted_baseD2Ev
FN:97,100,_ZN5boost6detail15sp_counted_base7destroyEv
FNDA:2347,_ZN5boost6detail15sp_counted_base12add_ref_copyEv
FNDA:2980,_ZN5boost6detail15sp_counted_base7releaseEv
FNDA:633,_ZN5boost6detail15sp_counted_base12weak_releaseEv
FNDA:2347,_ZN5boost6detail16atomic_incrementEPj
FNDA:3613,_ZN5boost6detail16atomic_decrementEPj
FNDA:633,_ZN5boost6detail15sp_counted_baseC2Ev
FNDA:0,_ZN5boost6detail15sp_counted_baseD0Ev
FNDA:633,_ZN5boost6detail15sp_counted_baseD2Ev
FNDA:633,_ZN5boost6detail15sp_counted_base7destroyEv
FNF:9
FNH:8
DA:33,2347
DA:35,2347
DA:36,2347
DA:38,3613
DA:40,3613
DA:82,633
DA:84,633
DA:86,633
DA:87,633
DA:88,633
DA:97,633
DA:99,633
DA:100,633
DA:106,2347
DA:108,2347
DA:109,2347
DA:116,2980
DA:118,2980
DA:120,633
DA:121,633
DA:123,2980
DA:130,633
DA:132,633
DA:134,633
DA:136,633
LF:25
LH:25
end_of_record
TN:
SF:/usr/include/boost/smart_ptr/detail/sp_counted_impl.hpp
FN:102,105,_ZN5boost6detail17sp_counted_impl_pINS_16exception_detail15error_info_baseEE19get_untyped_deleterEv
FN:102,105,_ZN5boost6detail17sp_counted_impl_pINS_23basic_wrap_stringstreamIcEEE19get_untyped_deleterEv
FN:102,105,_ZN5boost6detail17sp_counted_impl_pINS_2io18ios_base_all_saverEE19get_untyped_deleterEv
FN:102,105,_ZN5boost6detail17sp_counted_impl_pINS_7runtime14enum_parameterINS_9unit_test12report_levelELNS2_11args_amountE0EEEE19get_untyped_deleterEv
FN:102,105,_ZN5boost6detail17sp_counted_impl_pINS_7runtime14enum_parameterINS_9unit_test13output_formatELNS2_11args_amountE0EEEE19get_untyped_deleterEv
FN:102,105,_ZN5boost6detail17sp_counted_impl_pINS_7runtime14enum_parameterINS_9unit_test9log_levelELNS2_11args_amountE0EEEE19get_untyped_deleterEv
FN:102,105,_ZN5boost6detail17sp_counted_impl_pINS_7runtime14typed_argumentINS_9unit_test12report_levelEEEE19get_untyped_deleterEv
FN:102,105,_ZN5boost6detail17sp_counted_impl_pINS_7runtime14typed_argumentINS_9unit_test13output_formatEEEE19get_untyped_deleterEv
FN:102,105,_ZN5boost6detail17sp_counted_impl_pINS_7runtime14typed_argumentINS_9unit_test9log_levelEEEE19get_untyped_deleterEv
FN:102,105,_ZN5boost6detail17sp_counted_impl_pINS_7runtime14typed_argumentINSt7__cxx1112basic_stringIcSt11char_traitsIcESaIcEEEEEE19get_untyped_deleterEv
FN:102,105,_ZN5boost6detail17sp_counted_impl_pINS_7runtime14typed_argumentISt6vectorINSt7__cxx1112basic_stringIcSt11char_traitsIcESaIcEEESaISA_EEEEE19get_untyped_deleterEv
FN:102,105,_ZN5boost6detail17sp_counted_impl_pINS_7runtime14typed_argumentIbEEE19get_untyped_deleterEv
FN:102,105,_ZN5boost6detail17sp_counted_impl_pINS_7runtime14typed_argumentIjEEE19get_untyped_deleterEv
FN:102,105,_ZN5boost6detail17sp_counted_impl_pINS_7runtime14typed_argumentImEEE19get_untyped_deleterEv
FN:102,105,_ZN5boost6detail17sp_counted_impl_pINS_7runtime3cla13rt_cla_detail14parameter_trieEE19get_untyped_deleterEv
FN:102,105,_ZN5boost6detail17sp_counted_impl_pINS_7runtime3cla6parserEE19get_untyped_deleterEv
FN:102,105,_ZN5boost6detail17sp_counted_impl_pINS_7runtime6optionEE19get_untyped_deleterEv
FN:102,105,_ZN5boost6detail17sp_counted_impl_pINS_7runtime9parameterINS_9unit_test12report_levelELNS2_11args_amountE0ELb1EEEE19get_untyped_deleterEv
FN:102,105,_ZN5boost6detail17sp_counted_impl_pINS_7runtime9parameterINS_9unit_test13output_formatELNS2_11args_amountE0ELb1EEEE19get_untyped_deleterEv
FN:102,105,_ZN5boost6detail17sp_counted_impl_pINS_7runtime9parameterINS_9unit_test9log_levelELNS2_11args_amountE0ELb1EEEE19get_untyped_deleterEv
FN:102,105,_ZN5boost6detail17sp_counted_impl_pINS_7runtime9parameterINSt7__cxx1112basic_stringIcSt11char_traitsIcESaIcEEELNS2_11args_amountE0ELb0EEEE19get_untyped_deleterEv
FN:102,105,_ZN5boost6detail17sp_counted_impl_pINS_7runtime9parameterINSt7__cxx1112basic_stringIcSt11char_traitsIcESaIcEEELNS2_11args_amountE2ELb0EEEE19get_untyped_deleterEv
FN:102,105,_ZN5boost6detail17sp_counted_impl_pINS_7runtime9parameterIjLNS2_11args_amountE0ELb0EEEE19get_untyped_deleterEv
FN:102,105,_ZN5boost6detail17sp_counted_impl_pINS_7runtime9parameterImLNS2_11args_amountE0ELb0EEEE19get_untyped_deleterEv
FN:102,105,_ZN5boost6detail17sp_counted_impl_pINS_9unit_test23unit_test_log_formatterEE19get_untyped_deleterEv
FN:102,105,_ZN5boost6detail17sp_counted_impl_pINS_9unit_test9decorator10depends_onEE19get_untyped_deleterEv
FN:102,105,_ZN5boost6detail17sp_counted_impl_pINS_9unit_test9decorator11descriptionEE19get_untyped_deleterEv
FN:102,105,_ZN5boost6detail17sp_counted_impl_pINS_9unit_test9decorator12preconditionEE19get_untyped_deleterEv
FN:102,105,_ZN5boost6detail17sp_counted_impl_pINS_9unit_test9decorator15stack_decoratorEE19get_untyped_deleterEv
FN:102,105,_ZN5boost6detail17sp_counted_impl_pINS_9unit_test9decorator17expected_failuresEE19get_untyped_deleterEv
FN:102,105,_ZN5boost6detail17sp_counted_impl_pINS_9unit_test9decorator5labelEE19get_untyped_deleterEv
FN:102,105,_ZN5boost6detail17sp_counted_impl_pINS_9unit_test9decorator7timeoutEE19get_untyped_deleterEv
FN:102,105,_ZN5boost6detail17sp_counted_impl_pINS_9unit_test9decorator9fixture_tEE19get_untyped_deleterEv
FN:102,105,_ZN5boost6detail17sp_counted_impl_pINS_9unit_test9framework4impl21global_fixture_handleEE19get_untyped_deleterEv
FN:173,175,_ZN5boost6detail18sp_counted_impl_pdIPNS_9unit_test14runtime_config13stream_holder16callback_cleanerENS0_13sp_ms_deleterIS5_EEEC2ES6_
FN:177,180,_ZN5boost6detail18sp_counted_impl_pdIPNS_9unit_test14runtime_config13stream_holder16callback_cleanerENS0_13sp_ms_deleterIS5_EEE7disposeEv
FN:182,185,_ZN5boost6detail18sp_counted_impl_pdIPNS_9unit_test14runtime_config13stream_holder16callback_cleanerENS0_13sp_ms_deleterIS5_EEE11get_deleterERKSt9type_info
FN:187,190,_ZN5boost6detail18sp_counted_impl_pdIPNS_9unit_test14runtime_config13stream_holder16callback_cleanerENS0_13sp_ms_deleterIS5_EEE17get_local_deleterERKSt9type_info
FN:192,195,_ZN5boost6detail18sp_counted_impl_pdIPNS_9unit_test14runtime_config13stream_holder16callback_cleanerENS0_13sp_ms_deleterIS5_EEE19get_untyped_deleterEv
FN:55,58,_ZN5boost6detail17get_local_deleterINS0_13sp_ms_deleterINS_9unit_test14runtime_config13stream_holder16callback_cleanerEEEEEPT_S9_
FN:77,82,_ZN5boost6detail17sp_counted_impl_pINS_16exception_detail15error_info_baseEEC2EPS3_
FN:77,82,_ZN5boost6detail17sp_counted_impl_pINS_23basic_wrap_stringstreamIcEEEC2EPS3_
FN:77,82,_ZN5boost6detail17sp_counted_impl_pINS_2io18ios_base_all_saverEEC2EPS3_
FN:77,82,_ZN5boost6detail17sp_counted_impl_pINS_7runtime14enum_parameterINS_9unit_test12report_levelELNS2_11args_amountE0EEEEC2EPS7_
FN:77,82,_ZN5boost6detail17sp_counted_impl_pINS_7runtime14enum_parameterINS_9unit_test13output_formatELNS2_11args_amountE0EEEEC2EPS7_
FN:77,82,_ZN5boost6detail17sp_counted_impl_pINS_7runtime14enum_parameterINS_9unit_test9log_levelELNS2_11args_amountE0EEEEC2EPS7_
FN:77,82,_ZN5boost6detail17sp_counted_impl_pINS_7runtime14typed_argumentINS_9unit_test12report_levelEEEEC2EPS6_
FN:77,82,_ZN5boost6detail17sp_counted_impl_pINS_7runtime14typed_argumentINS_9unit_test13output_formatEEEEC2EPS6_
FN:77,82,_ZN5boost6detail17sp_counted_impl_pINS_7runtime14typed_argumentINS_9unit_test9log_levelEEEEC2EPS6_
FN:77,82,_ZN5boost6detail17sp_counted_impl_pINS_7runtime14typed_argumentINSt7__cxx1112basic_stringIcSt11char_traitsIcESaIcEEEEEEC2EPSA_
FN:77,82,_ZN5boost6detail17sp_counted_impl_pINS_7runtime14typed_argumentISt6vectorINSt7__cxx1112basic_stringIcSt11char_traitsIcESaIcEEESaISA_EEEEEC2EPSD_
FN:77,82,_ZN5boost6detail17sp_counted_impl_pINS_7runtime14typed_argumentIbEEEC2EPS4_
FN:77,82,_ZN5boost6detail17sp_counted_impl_pINS_7runtime14typed_argumentIjEEEC2EPS4_
FN:77,82,_ZN5boost6detail17sp_counted_impl_pINS_7runtime14typed_argumentImEEEC2EPS4_
FN:77,82,_ZN5boost6detail17sp_counted_impl_pINS_7runtime3cla13rt_cla_detail14parameter_trieEEC2EPS5_
FN:77,82,_ZN5boost6detail17sp_counted_impl_pINS_7runtime3cla6parserEEC2EPS4_
FN:77,82,_ZN5boost6detail17sp_counted_impl_pINS_7runtime6optionEEC2EPS3_
FN:77,82,_ZN5boost6detail17sp_counted_impl_pINS_7runtime9parameterINS_9unit_test12report_levelELNS2_11args_amountE0ELb1EEEEC2EPS7_
FN:77,82,_ZN5boost6detail17sp_counted_impl_pINS_7runtime9parameterINS_9unit_test13output_formatELNS2_11args_amountE0ELb1EEEEC2EPS7_
FN:77,82,_ZN5boost6detail17sp_counted_impl_pINS_7runtime9parameterINS_9unit_test9log_levelELNS2_11args_amountE0ELb1EEEEC2EPS7_
FN:77,82,_ZN5boost6detail17sp_counted_impl_pINS_7runtime9parameterINSt7__cxx1112basic_stringIcSt11char_traitsIcESaIcEEELNS2_11args_amountE0ELb0EEEEC2EPSB_
FN:77,82,_ZN5boost6detail17sp_counted_impl_pINS_7runtime9parameterINSt7__cxx1112basic_stringIcSt11char_traitsIcESaIcEEELNS2_11args_amountE2ELb0EEEEC2EPSB_
FN:77,82,_ZN5boost6detail17sp_counted_impl_pINS_7runtime9parameterIjLNS2_11args_amountE0ELb0EEEEC2EPS5_
FN:77,82,_ZN5boost6detail17sp_counted_impl_pINS_7runtime9parameterImLNS2_11args_amountE0ELb0EEEEC2EPS5_
FN:77,82,_ZN5boost6detail17sp_counted_impl_pINS_9unit_test23unit_test_log_formatterEEC2EPS3_
FN:77,82,_ZN5boost6detail17sp_counted_impl_pINS_9unit_test9decorator10depends_onEEC2EPS4_
FN:77,82,_ZN5boost6detail17sp_counted_impl_pINS_9unit_test9decorator11descriptionEEC2EPS4_
FN:77,82,_ZN5boost6detail17sp_counted_impl_pINS_9unit_test9decorator12preconditionEEC2EPS4_
FN:77,82,_ZN5boost6detail17sp_counted_impl_pINS_9unit_test9decorator15stack_decoratorEEC2EPS4_
FN:77,82,_ZN5boost6detail17sp_counted_impl_pINS_9unit_test9decorator17expected_failuresEEC2EPS4_
FN:77,82,_ZN5boost6detail17sp_counted_impl_pINS_9unit_test9decorator5labelEEC2EPS4_
FN:77,82,_ZN5boost6detail17sp_counted_impl_pINS_9unit_test9decorator7timeoutEEC2EPS4_
FN:77,82,_ZN5boost6detail17sp_counted_impl_pINS_9unit_test9decorator9fixture_tEEC2EPS4_
FN:77,82,_ZN5boost6detail17sp_counted_impl_pINS_9unit_test9framework4impl21global_fixture_handleEEC2EPS5_
FN:84,90,_ZN5boost6detail17sp_counted_impl_pINS_16exception_detail15error_info_baseEE7disposeEv
FN:84,90,_ZN5boost6detail17sp_counted_impl_pINS_23basic_wrap_stringstreamIcEEE7disposeEv
FN:84,90,_ZN5boost6detail17sp_counted_impl_pINS_2io18ios_base_all_saverEE7disposeEv
FN:84,90,_ZN5boost6detail17sp_counted_impl_pINS_7runtime14enum_parameterINS_9unit_test12report_levelELNS2_11args_amountE0EEEE7disposeEv
FN:84,90,_ZN5boost6detail17sp_counted_impl_pINS_7runtime14enum_parameterINS_9unit_test13output_formatELNS2_11args_amountE0EEEE7disposeEv
FN:84,90,_ZN5boost6detail17sp_counted_impl_pINS_7runtime14enum_parameterINS_9unit_test9log_levelELNS2_11args_amountE0EEEE7disposeEv
FN:84,90,_ZN5boost6detail17sp_counted_impl_pINS_7runtime14typed_argumentINS_9unit_test12report_levelEEEE7disposeEv
FN:84,90,_ZN5boost6detail17sp_counted_impl_pINS_7runtime14typed_argumentINS_9unit_test13output_formatEEEE7disposeEv
FN:84,90,_ZN5boost6detail17sp_counted_impl_pINS_7runtime14typed_argumentINS_9unit_test9log_levelEEEE7disposeEv
FN:84,90,_ZN5boost6detail17sp_counted_impl_pINS_7runtime14typed_argumentINSt7__cxx1112basic_stringIcSt11char_traitsIcESaIcEEEEEE7disposeEv
FN:84,90,_ZN5boost6detail17sp_counted_impl_pINS_7runtime14typed_argumentISt6vectorINSt7__cxx1112basic_stringIcSt11char_traitsIcESaIcEEESaISA_EEEEE7disposeEv
FN:84,90,_ZN5boost6detail17sp_counted_impl_pINS_7runtime14typed_argumentIbEEE7disposeEv
FN:84,90,_ZN5boost6detail17sp_counted_impl_pINS_7runtime14typed_argumentIjEEE7disposeEv
FN:84,90,_ZN5boost6detail17sp_counted_impl_pINS_7runtime14typed_argumentImEEE7disposeEv
FN:84,90,_ZN5boost6detail17sp_counted_impl_pINS_7runtime3cla13rt_cla_detail14parameter_trieEE7disposeEv
FN:84,90,_ZN5boost6detail17sp_counted_impl_pINS_7runtime3cla6parserEE7disposeEv
FN:84,90,_ZN5boost6detail17sp_counted_impl_pINS_7runtime6optionEE7disposeEv
FN:84,90,_ZN5boost6detail17sp_counted_impl_pINS_7runtime9parameterINS_9unit_test12report_levelELNS2_11args_amountE0ELb1EEEE7disposeEv
FN:84,90,_ZN5boost6detail17sp_counted_impl_pINS_7runtime9parameterINS_9unit_test13output_formatELNS2_11args_amountE0ELb1EEEE7disposeEv
FN:84,90,_ZN5boost6detail17sp_counted_impl_pINS_7runtime9parameterINS_9unit_test9log_levelELNS2_11args_amountE0ELb1EEEE7disposeEv
FN:84,90,_ZN5boost6detail17sp_counted_impl_pINS_7runtime9parameterINSt7__cxx1112basic_stringIcSt11char_traitsIcESaIcEEELNS2_11args_amountE0ELb0EEEE7disposeEv
FN:84,90,_ZN5boost6detail17sp_counted_impl_pINS_7runtime9parameterINSt7__cxx1112basic_stringIcSt11char_traitsIcESaIcEEELNS2_11args_amountE2ELb0EEEE7disposeEv
FN:84,90,_ZN5boost6detail17sp_counted_impl_pINS_7runtime9parameterIjLNS2_11args_amountE0ELb0EEEE7disposeEv
FN:84,90,_ZN5boost6detail17sp_counted_impl_pINS_7runtime9parameterImLNS2_11args_amountE0ELb0EEEE7disposeEv
FN:84,90,_ZN5boost6detail17sp_counted_impl_pINS_9unit_test23unit_test_log_formatterEE7disposeEv
FN:84,90,_ZN5boost6detail17sp_counted_impl_pINS_9unit_test9decorator10depends_onEE7disposeEv
FN:84,90,_ZN5boost6detail17sp_counted_impl_pINS_9unit_test9decorator11descriptionEE7disposeEv
FN:84,90,_ZN5boost6detail17sp_counted_impl_pINS_9unit_test9decorator12preconditionEE7disposeEv
FN:84,90,_ZN5boost6detail17sp_counted_impl_pINS_9unit_test9decorator15stack_decoratorEE7disposeEv
FN:84,90,_ZN5boost6detail17sp_counted_impl_pINS_9unit_test9decorator17expected_failuresEE7disposeEv
FN:84,90,_ZN5boost6detail17sp_counted_impl_pINS_9unit_test9decorator5labelEE7disposeEv
FN:84,90,_ZN5boost6detail17sp_counted_impl_pINS_9unit_test9decorator7timeoutEE7disposeEv
FN:84,90,_ZN5boost6detail17sp_counted_impl_pINS_9unit_test9decorator9fixture_tEE7disposeEv
FN:84,90,_ZN5boost6detail17sp_counted_impl_pINS_9unit_test9framework4impl21global_fixture_handleEE7disposeEv
FN:92,95,_ZN5boost6detail17sp_counted_impl_pINS_16exception_detail15error_info_baseEE11get_deleterERKSt9type_info
FN:92,95,_ZN5boost6detail17sp_counted_impl_pINS_23basic_wrap_stringstreamIcEEE11get_deleterERKSt9type_info
FN:92,95,_ZN5boost6detail17sp_counted_impl_pINS_2io18ios_base_all_saverEE11get_deleterERKSt9type_info
FN:92,95,_ZN5boost6detail17sp_counted_impl_pINS_7runtime14enum_parameterINS_9unit_test12report_levelELNS2_11args_amountE0EEEE11get_deleterERKSt9type_info
FN:92,95,_ZN5boost6detail17sp_counted_impl_pINS_7runtime14enum_parameterINS_9unit_test13output_formatELNS2_11args_amountE0EEEE11get_deleterERKSt9type_info
FN:92,95,_ZN5boost6detail17sp_counted_impl_pINS_7runtime14enum_parameterINS_9unit_test9log_levelELNS2_11args_amountE0EEEE11get_deleterERKSt9type_info
FN:92,95,_ZN5boost6detail17sp_counted_impl_pINS_7runtime14typed_argumentINS_9unit_test12report_levelEEEE11get_deleterERKSt9type_info
FN:92,95,_ZN5boost6detail17sp_counted_impl_pINS_7runtime14typed_argumentINS_9unit_test13output_formatEEEE11get_deleterERKSt9type_info
FN:92,95,_ZN5boost6detail17sp_counted_impl_pINS_7runtime14typed_argumentINS_9unit_test9log_levelEEEE11get_deleterERKSt9type_info
FN:92,95,_ZN5boost6detail17sp_counted_impl_pINS_7runtime14typed_argumentINSt7__cxx1112basic_stringIcSt11char_traitsIcESaIcEEEEEE11get_deleterERKSt9type_info
FN:92,95,_ZN5boost6detail17sp_counted_impl_pINS_7runtime14typed_argumentISt6vectorINSt7__cxx1112basic_stringIcSt11char_traitsIcESaIcEEESaISA_EEEEE11get_deleterERKSt9type_info
FN:92,95,_ZN5boost6detail17sp_counted_impl_pINS_7runtime14typed_argumentIbEEE11get_deleterERKSt9type_info
FN:92,95,_ZN5boost6detail17sp_counted_impl_pINS_7runtime14typed_argumentIjEEE11get_deleterERKSt9type_info
FN:92,95,_ZN5boost6detail17sp_counted_impl_pINS_7runtime14typed_argumentImEEE11get_deleterERKSt9type_info
FN:92,95,_ZN5boost6detail17sp_counted_impl_pINS_7runtime3cla13rt_cla_detail14parameter_trieEE11get_deleterERKSt9type_info
FN:92,95,_ZN5boost6detail17sp_counted_impl_pINS_7runtime3cla6parserEE11get_deleterERKSt9type_info
FN:92,95,_ZN5boost6detail17sp_counted_impl_pINS_7runtime6optionEE11get_deleterERKSt9type_info
FN:92,95,_ZN5boost6detail17sp_counted_impl_pINS_7runtime9parameterINS_9unit_test12report_levelELNS2_11args_amountE0ELb1EEEE11get_deleterERKSt9type_info
FN:92,95,_ZN5boost6detail17sp_counted_impl_pINS_7runtime9parameterINS_9unit_test13output_formatELNS2_11args_amountE0ELb1EEEE11get_deleterERKSt9type_info
FN:92,95,_ZN5boost6detail17sp_counted_impl_pINS_7runtime9parameterINS_9unit_test9log_levelELNS2_11args_amountE0ELb1EEEE11get_deleterERKSt9type_info
FN:92,95,_ZN5boost6detail17sp_counted_impl_pINS_7runtime9parameterINSt7__cxx1112basic_stringIcSt11char_traitsIcESaIcEEELNS2_11args_amountE0ELb0EEEE11get_deleterERKSt9type_info
FN:92,95,_ZN5boost6detail17sp_counted_impl_pINS_7runtime9parameterINSt7__cxx1112basic_stringIcSt11char_traitsIcESaIcEEELNS2_11args_amountE2ELb0EEEE11get_deleterERKSt9type_info
FN:92,95,_ZN5boost6detail17sp_counted_impl_pINS_7runtime9parameterIjLNS2_11args_amountE0ELb0EEEE11get_deleterERKSt9type_info
FN:92,95,_ZN5boost6detail17sp_counted_impl_pINS_7runtime9parameterImLNS2_11args_amountE0ELb0EEEE11get_deleterERKSt9type_info
FN:92,95,_ZN5boost6detail17sp_counted_impl_pINS_9unit_test23unit_test_log_formatterEE11get_deleterERKSt9type_info
FN:92,95,_ZN5boost6detail17sp_counted_impl_pINS_9unit_test9decorator10depends_onEE11get_deleterERKSt9type_info
FN:92,95,_ZN5boost6detail17sp_counted_impl_pINS_9unit_test9decorator11descriptionEE11get_deleterERKSt9type_info
FN:92,95,_ZN5boost6detail17sp_counted_impl_pINS_9unit_test9decorator12preconditionEE11get_deleterERKSt9type_info
FN:92,95,_ZN5boost6detail17sp_counted_impl_pINS_9unit_test9decorator15stack_decoratorEE11get_deleterERKSt9type_info
FN:92,95,_ZN5boost6detail17sp_counted_impl_pINS_9unit_test9decorator17expected_failuresEE11get_deleterERKSt9type_info
FN:92,95,_ZN5boost6detail17sp_counted_impl_pINS_9unit_test9decorator5labelEE11get_deleterERKSt9type_info
FN:92,95,_ZN5boost6detail17sp_counted_impl_pINS_9unit_test9decorator7timeoutEE11get_deleterERKSt9type_info
FN:92,95,_ZN5boost6detail17sp_counted_impl_pINS_9unit_test9decorator9fixture_tEE11get_deleterERKSt9type_info
FN:92,95,_ZN5boost6detail17sp_counted_impl_pINS_9unit_test9framework4impl21global_fixture_handleEE11get_deleterERKSt9type_info
FN:97,100,_ZN5boost6detail17sp_counted_impl_pINS_16exception_detail15error_info_baseEE17get_local_deleterERKSt9type_info
FN:97,100,_ZN5boost6detail17sp_counted_impl_pINS_23basic_wrap_stringstreamIcEEE17get_local_deleterERKSt9type_info
FN:97,100,_ZN5boost6detail17sp_counted_impl_pINS_2io18ios_base_all_saverEE17get_local_deleterERKSt9type_info
FN:97,100,_ZN5boost6detail17sp_counted_impl_pINS_7runtime14enum_parameterINS_9unit_test12report_levelELNS2_11args_amountE0EEEE17get_local_deleterERKSt9type_info
FN:97,100,_ZN5boost6detail17sp_counted_impl_pINS_7runtime14enum_parameterINS_9unit_test13output_formatELNS2_11args_amountE0EEEE17get_local_deleterERKSt9type_info
FN:97,100,_ZN5boost6detail17sp_counted_impl_pINS_7runtime14enum_parameterINS_9unit_test9log_levelELNS2_11args_amountE0EEEE17get_local_deleterERKSt9type_info
FN:97,100,_ZN5boost6detail17sp_counted_impl_pINS_7runtime14typed_argumentINS_9unit_test12report_levelEEEE17get_local_deleterERKSt9type_info
FN:97,100,_ZN5boost6detail17sp_counted_impl_pINS_7runtime14typed_argumentINS_9unit_test13output_formatEEEE17get_local_deleterERKSt9type_info
FN:97,100,_ZN5boost6detail17sp_counted_impl_pINS_7runtime14typed_argumentINS_9unit_test9log_levelEEEE17get_local_deleterERKSt9type_info
FN:97,100,_ZN5boost6detail17sp_counted_impl_pINS_7runtime14typed_argumentINSt7__cxx1112basic_stringIcSt11char_traitsIcESaIcEEEEEE17get_local_deleterERKSt9type_info
FN:97,100,_ZN5boost6detail17sp_counted_impl_pINS_7runtime14typed_argumentISt6vectorINSt7__cxx1112basic_stringIcSt11char_traitsIcESaIcEEESaISA_EEEEE17get_local_deleterERKSt9type_info
FN:97,100,_ZN5boost6detail17sp_counted_impl_pINS_7runtime14typed_argumentIbEEE17get_local_deleterERKSt9type_info
FN:97,100,_ZN5boost6detail17sp_counted_impl_pINS_7runtime14typed_argumentIjEEE17get_local_deleterERKSt9type_info
FN:97,100,_ZN5boost6detail17sp_counted_impl_pINS_7runtime14typed_argumentImEEE17get_local_deleterERKSt9type_info
FN:97,100,_ZN5boost6detail17sp_counted_impl_pINS_7runtime3cla13rt_cla_detail14parameter_trieEE17get_local_deleterERKSt9type_info
FN:97,100,_ZN5boost6detail17sp_counted_impl_pINS_7runtime3cla6parserEE17get_local_deleterERKSt9type_info
FN:97,100,_ZN5boost6detail17sp_counted_impl_pINS_7runtime6optionEE17get_local_deleterERKSt9type_info
FN:97,100,_ZN5boost6detail17sp_counted_impl_pINS_7runtime9parameterINS_9unit_test12report_levelELNS2_11args_amountE0ELb1EEEE17get_local_deleterERKSt9type_info
FN:97,100,_ZN5boost6detail17sp_counted_impl_pINS_7runtime9parameterINS_9unit_test13output_formatELNS2_11args_amountE0ELb1EEEE17get_local_deleterERKSt9type_info
FN:97,100,_ZN5boost6detail17sp_counted_impl_pINS_7runtime9parameterINS_9unit_test9log_levelELNS2_11args_amountE0ELb1EEEE17get_local_deleterERKSt9type_info
FN:97,100,_ZN5boost6detail17sp_counted_impl_pINS_7runtime9parameterINSt7__cxx1112basic_stringIcSt11char_traitsIcESaIcEEELNS2_11args_amountE0ELb0EEEE17get_local_deleterERKSt9type_info
FN:97,100,_ZN5boost6detail17sp_counted_impl_pINS_7runtime9parameterINSt7__cxx1112basic_stringIcSt11char_traitsIcESaIcEEELNS2_11args_amountE2ELb0EEEE17get_local_deleterERKSt9type_info
FN:97,100,_ZN5boost6detail17sp_counted_impl_pINS_7runtime9parameterIjLNS2_11args_amountE0ELb0EEEE17get_local_deleterERKSt9type_info
FN:97,100,_ZN5boost6detail17sp_counted_impl_pINS_7runtime9parameterImLNS2_11args_amountE0ELb0EEEE17get_local_deleterERKSt9type_info
FN:97,100,_ZN5boost6detail17sp_counted_impl_pINS_9unit_test23unit_test_log_formatterEE17get_local_deleterERKSt9type_info
FN:97,100,_ZN5boost6detail17sp_counted_impl_pINS_9unit_test9decorator10depends_onEE17get_local_deleterERKSt9type_info
FN:97,100,_ZN5boost6detail17sp_counted_impl_pINS_9unit_test9decorator11descriptionEE17get_local_deleterERKSt9type_info
FN:97,100,_ZN5boost6detail17sp_counted_impl_pINS_9unit_test9decorator12preconditionEE17get_local_deleterERKSt9type_info
FN:97,100,_ZN5boost6detail17sp_counted_impl_pINS_9unit_test9decorator15stack_decoratorEE17get_local_deleterERKSt9type_info
FN:97,100,_ZN5boost6detail17sp_counted_impl_pINS_9unit_test9decorator17expected_failuresEE17get_local_deleterERKSt9type_info
FN:97,100,_ZN5boost6detail17sp_counted_impl_pINS_9unit_test9decorator5labelEE17get_local_deleterERKSt9type_info
FN:97,100,_ZN5boost6detail17sp_counted_impl_pINS_9unit_test9decorator7timeoutEE17get_local_deleterERKSt9type_info
FN:97,100,_ZN5boost6detail17sp_counted_impl_pINS_9unit_test9decorator9fixture_tEE17get_local_deleterERKSt9type_info
FN:97,100,_ZN5boost6detail17sp_counted_impl_pINS_9unit_test9framework4impl21global_fixture_handleEE17get_local_deleterERKSt9type_info
FNDA:0,_ZN5boost6detail17sp_counted_impl_pINS_16exception_detail15error_info_baseEE19get_untyped_deleterEv
FNDA:0,_ZN5boost6detail17sp_counted_impl_pINS_23basic_wrap_stringstreamIcEEE19get_untyped_deleterEv
FNDA:0,_ZN5boost6detail17sp_counted_impl_pINS_2io18ios_base_all_saverEE19get_untyped_deleterEv
FNDA:0,_ZN5boost6detail17sp_counted_impl_pINS_7runtime14enum_parameterINS_9unit_test12report_levelELNS2_11args_amountE0EEEE19get_untyped_deleterEv
FNDA:0,_ZN5boost6detail17sp_counted_impl_pINS_7runtime14enum_parameterINS_9unit_test13output_formatELNS2_11args_amountE0EEEE19get_untyped_deleterEv
FNDA:0,_ZN5boost6detail17sp_counted_impl_pINS_7runtime14enum_parameterINS_9unit_test9log_levelELNS2_11args_amountE0EEEE19get_untyped_deleterEv
FNDA:0,_ZN5boost6detail17sp_counted_impl_pINS_7runtime14typed_argumentINS_9unit_test12report_levelEEEE19get_untyped_deleterEv
FNDA:0,_ZN5boost6detail17sp_counted_impl_pINS_7runtime14typed_argumentINS_9unit_test13output_formatEEEE19get_untyped_deleterEv
FNDA:0,_ZN5boost6detail17sp_counted_impl_pINS_7runtime14typed_argumentINS_9unit_test9log_levelEEEE19get_untyped_deleterEv
FNDA:0,_ZN5boost6detail17sp_counted_impl_pINS_7runtime14typed_argumentINSt7__cxx1112basic_stringIcSt11char_traitsIcESaIcEEEEEE19get_untyped_deleterEv
FNDA:0,_ZN5boost6detail17sp_counted_impl_pINS_7runtime14typed_argumentISt6vectorINSt7__cxx1112basic_stringIcSt11char_traitsIcESaIcEEESaISA_EEEEE19get_untyped_deleterEv
FNDA:0,_ZN5boost6detail17sp_counted_impl_pINS_7runtime14typed_argumentIbEEE19get_untyped_deleterEv
FNDA:0,_ZN5boost6detail17sp_counted_impl_pINS_7runtime14typed_argumentIjEEE19get_untyped_deleterEv
FNDA:0,_ZN5boost6detail17sp_counted_impl_pINS_7runtime14typed_argumentImEEE19get_untyped_deleterEv
FNDA:0,_ZN5boost6detail17sp_counted_impl_pINS_7runtime3cla13rt_cla_detail14parameter_trieEE19get_untyped_deleterEv
FNDA:0,_ZN5boost6detail17sp_counted_impl_pINS_7runtime3cla6parserEE19get_untyped_deleterEv
FNDA:0,_ZN5boost6detail17sp_counted_impl_pINS_7runtime6optionEE19get_untyped_deleterEv
FNDA:0,_ZN5boost6detail17sp_counted_impl_pINS_7runtime9parameterINS_9unit_test12report_levelELNS2_11args_amountE0ELb1EEEE19get_untyped_deleterEv
FNDA:0,_ZN5boost6detail17sp_counted_impl_pINS_7runtime9parameterINS_9unit_test13output_formatELNS2_11args_amountE0ELb1EEEE19get_untyped_deleterEv
FNDA:0,_ZN5boost6detail17sp_counted_impl_pINS_7runtime9parameterINS_9unit_test9log_levelELNS2_11args_amountE0ELb1EEEE19get_untyped_deleterEv
FNDA:0,_ZN5boost6detail17sp_counted_impl_pINS_7runtime9parameterINSt7__cxx1112basic_stringIcSt11char_traitsIcESaIcEEELNS2_11args_amountE0ELb0EEEE19get_untyped_deleterEv
FNDA:0,_ZN5boost6detail17sp_counted_impl_pINS_7runtime9parameterINSt7__cxx1112basic_stringIcSt11char_traitsIcESaIcEEELNS2_11args_amountE2ELb0EEEE19get_untyped_deleterEv
FNDA:0,_ZN5boost6detail17sp_counted_impl_pINS_7runtime9parameterIjLNS2_11args_amountE0ELb0EEEE19get_untyped_deleterEv
FNDA:0,_ZN5boost6detail17sp_counted_impl_pINS_7runtime9parameterImLNS2_11args_amountE0ELb0EEEE19get_untyped_deleterEv
FNDA:0,_ZN5boost6detail17sp_counted_impl_pINS_9unit_test23unit_test_log_formatterEE19get_untyped_deleterEv
FNDA:0,_ZN5boost6detail17sp_counted_impl_pINS_9unit_test9decorator10depends_onEE19get_untyped_deleterEv
FNDA:0,_ZN5boost6detail17sp_counted_impl_pINS_9unit_test9decorator11descriptionEE19get_untyped_deleterEv
FNDA:0,_ZN5boost6detail17sp_counted_impl_pINS_9unit_test9decorator12preconditionEE19get_untyped_deleterEv
FNDA:0,_ZN5boost6detail17sp_counted_impl_pINS_9unit_test9decorator15stack_decoratorEE19get_untyped_deleterEv
FNDA:0,_ZN5boost6detail17sp_counted_impl_pINS_9unit_test9decorator17expected_failuresEE19get_untyped_deleterEv
FNDA:0,_ZN5boost6detail17sp_counted_impl_pINS_9unit_test9decorator5labelEE19get_untyped_deleterEv
FNDA:0,_ZN5boost6detail17sp_counted_impl_pINS_9unit_test9decorator7timeoutEE19get_untyped_deleterEv
FNDA:0,_ZN5boost6detail17sp_counted_impl_pINS_9unit_test9decorator9fixture_tEE19get_untyped_deleterEv
FNDA:0,_ZN5boost6detail17sp_counted_impl_pINS_9unit_test9framework4impl21global_fixture_handleEE19get_untyped_deleterEv
FNDA:0,_ZN5boost6detail18sp_counted_impl_pdIPNS_9unit_test14runtime_config13stream_holder16callback_cleanerENS0_13sp_ms_deleterIS5_EEEC2ES6_
FNDA:0,_ZN5boost6detail18sp_counted_impl_pdIPNS_9unit_test14runtime_config13stream_holder16callback_cleanerENS0_13sp_ms_deleterIS5_EEE7disposeEv
FNDA:0,_ZN5boost6detail18sp_counted_impl_pdIPNS_9unit_test14runtime_config13stream_holder16callback_cleanerENS0_13sp_ms_deleterIS5_EEE11get_deleterERKSt9type_info
FNDA:0,_ZN5boost6detail18sp_counted_impl_pdIPNS_9unit_test14runtime_config13stream_holder16callback_cleanerENS0_13sp_ms_deleterIS5_EEE17get_local_deleterERKSt9type_info
FNDA:0,_ZN5boost6detail18sp_counted_impl_pdIPNS_9unit_test14runtime_config13stream_holder16callback_cleanerENS0_13sp_ms_deleterIS5_EEE19get_untyped_deleterEv
FNDA:0,_ZN5boost6detail17get_local_deleterINS0_13sp_ms_deleterINS_9unit_test14runtime_config13stream_holder16callback_cleanerEEEEEPT_S9_
FNDA:0,_ZN5boost6detail17sp_counted_impl_pINS_16exception_detail15error_info_baseEEC2EPS3_
FNDA:0,_ZN5boost6detail17sp_counted_impl_pINS_23basic_wrap_stringstreamIcEEEC2EPS3_
FNDA:6,_ZN5boost6detail17sp_counted_impl_pINS_2io18ios_base_all_saverEEC2EPS3_
FNDA:1,_ZN5boost6detail17sp_counted_impl_pINS_7runtime14enum_parameterINS_9unit_test12report_levelELNS2_11args_amountE0EEEEC2EPS7_
FNDA:4,_ZN5boost6detail17sp_counted_impl_pINS_7runtime14enum_parameterINS_9unit_test13output_formatELNS2_11args_amountE0EEEEC2EPS7_
FNDA:1,_ZN5boost6detail17sp_counted_impl_pINS_7runtime14enum_parameterINS_9unit_test9log_levelELNS2_11args_amountE0EEEEC2EPS7_
FNDA:1,_ZN5boost6detail17sp_counted_impl_pINS_7runtime14typed_argumentINS_9unit_test12report_levelEEEEC2EPS6_
FNDA:3,_ZN5boost6detail17sp_counted_impl_pINS_7runtime14typed_argumentINS_9unit_test13output_formatEEEEC2EPS6_
FNDA:1,_ZN5boost6detail17sp_counted_impl_pINS_7runtime14typed_argumentINS_9unit_test9log_levelEEEEC2EPS6_
FNDA:1,_ZN5boost6detail17sp_counted_impl_pINS_7runtime14typed_argumentINSt7__cxx1112basic_stringIcSt11char_traitsIcESaIcEEEEEEC2EPSA_
FNDA:2,_ZN5boost6detail17sp_counted_impl_pINS_7runtime14typed_argumentISt6vectorINSt7__cxx1112basic_stringIcSt11char_traitsIcESaIcEEESaISA_EEEEEC2EPSD_
FNDA:13,_ZN5boost6detail17sp_counted_impl_pINS_7runtime14typed_argumentIbEEEC2EPS4_
FNDA:1,_ZN5boost6detail17sp_counted_impl_pINS_7runtime14typed_argumentIjEEEC2EPS4_
FNDA:1,_ZN5boost6detail17sp_counted_impl_pINS_7runtime14typed_argumentImEEEC2EPS4_
FNDA:572,_ZN5boost6detail17sp_counted_impl_pINS_7runtime3cla13rt_cla_detail14parameter_trieEEC2EPS5_
FNDA:1,_ZN5boost6detail17sp_counted_impl_pINS_7runtime3cla6parserEEC2EPS4_
FNDA:13,_ZN5boost6detail17sp_counted_impl_pINS_7runtime6optionEEC2EPS3_
FNDA:0,_ZN5boost6detail17sp_counted_impl_pINS_7runtime9parameterINS_9unit_test12report_levelELNS2_11args_amountE0ELb1EEEEC2EPS7_
FNDA:0,_ZN5boost6detail17sp_counted_impl_pINS_7runtime9parameterINS_9unit_test13output_formatELNS2_11args_amountE0ELb1EEEEC2EPS7_
FNDA:0,_ZN5boost6detail17sp_counted_impl_pINS_7runtime9parameterINS_9unit_test9log_levelELNS2_11args_amountE0ELb1EEEEC2EPS7_
FNDA:5,_ZN5boost6detail17sp_counted_impl_pINS_7runtime9parameterINSt7__cxx1112basic_stringIcSt11char_traitsIcESaIcEEELNS2_11args_amountE0ELb0EEEEC2EPSB_
FNDA:2,_ZN5boost6detail17sp_counted_impl_pINS_7runtime9parameterINSt7__cxx1112basic_stringIcSt11char_traitsIcESaIcEEELNS2_11args_amountE2ELb0EEEEC2EPSB_
FNDA:1,_ZN5boost6detail17sp_counted_impl_pINS_7runtime9parameterIjLNS2_11args_amountE0ELb0EEEEC2EPS5_
FNDA:1,_ZN5boost6detail17sp_counted_impl_pINS_7runtime9parameterImLNS2_11args_amountE0ELb0EEEEC2EPS5_
FNDA:3,_ZN5boost6detail17sp_counted_impl_pINS_9unit_test23unit_test_log_formatterEEC2EPS3_
FNDA:0,_ZN5boost6detail17sp_counted_impl_pINS_9unit_test9decorator10depends_onEEC2EPS4_
FNDA:0,_ZN5boost6detail17sp_counted_impl_pINS_9unit_test9decorator11descriptionEEC2EPS4_
FNDA:0,_ZN5boost6detail17sp_counted_impl_pINS_9unit_test9decorator12preconditionEEC2EPS4_
FNDA:0,_ZN5boost6detail17sp_counted_impl_pINS_9unit_test9decorator15stack_decoratorEEC2EPS4_
FNDA:0,_ZN5boost6detail17sp_counted_impl_pINS_9unit_test9decorator17expected_failuresEEC2EPS4_
FNDA:0,_ZN5boost6detail17sp_counted_impl_pINS_9unit_test9decorator5labelEEC2EPS4_
FNDA:0,_ZN5boost6detail17sp_counted_impl_pINS_9unit_test9decorator7timeoutEEC2EPS4_
FNDA:0,_ZN5boost6detail17sp_counted_impl_pINS_9unit_test9decorator9fixture_tEEC2EPS4_
FNDA:0,_ZN5boost6detail17sp_counted_impl_pINS_9unit_test9framework4impl21global_fixture_handleEEC2EPS5_
FNDA:0,_ZN5boost6detail17sp_counted_impl_pINS_16exception_detail15error_info_baseEE7disposeEv
FNDA:0,_ZN5boost6detail17sp_counted_impl_pINS_23basic_wrap_stringstreamIcEEE7disposeEv
FNDA:6,_ZN5boost6detail17sp_counted_impl_pINS_2io18ios_base_all_saverEE7disposeEv
FNDA:1,_ZN5boost6detail17sp_counted_impl_pINS_7runtime14enum_parameterINS_9unit_test12report_levelELNS2_11args_amountE0EEEE7disposeEv
FNDA:4,_ZN5boost6detail17sp_counted_impl_pINS_7runtime14enum_parameterINS_9unit_test13output_formatELNS2_11args_amountE0EEEE7disposeEv
FNDA:1,_ZN5boost6detail17sp_counted_impl_pINS_7runtime14enum_parameterINS_9unit_test9log_levelELNS2_11args_amountE0EEEE7disposeEv
FNDA:1,_ZN5boost6detail17sp_counted_impl_pINS_7runtime14typed_argumentINS_9unit_test12report_levelEEEE7disposeEv
FNDA:3,_ZN5boost6detail17sp_counted_impl_pINS_7runtime14typed_argumentINS_9unit_test13output_formatEEEE7disposeEv
FNDA:1,_ZN5boost6detail17sp_counted_impl_pINS_7runtime14typed_argumentINS_9unit_test9log_levelEEEE7disposeEv
FNDA:1,_ZN5boost6detail17sp_counted_impl_pINS_7runtime14typed_argumentINSt7__cxx1112basic_stringIcSt11char_traitsIcESaIcEEEEEE7disposeEv
FNDA:2,_ZN5boost6detail17sp_counted_impl_pINS_7runtime14typed_argumentISt6vectorINSt7__cxx1112basic_stringIcSt11char_traitsIcESaIcEEESaISA_EEEEE7disposeEv
FNDA:13,_ZN5boost6detail17sp_counted_impl_pINS_7runtime14typed_argumentIbEEE7disposeEv
FNDA:1,_ZN5boost6detail17sp_counted_impl_pINS_7runtime14typed_argumentIjEEE7disposeEv
FNDA:1,_ZN5boost6detail17sp_counted_impl_pINS_7runtime14typed_argumentImEEE7disposeEv
FNDA:572,_ZN5boost6detail17sp_counted_impl_pINS_7runtime3cla13rt_cla_detail14parameter_trieEE7disposeEv
FNDA:1,_ZN5boost6detail17sp_counted_impl_pINS_7runtime3cla6parserEE7disposeEv
FNDA:13,_ZN5boost6detail17sp_counted_impl_pINS_7runtime6optionEE7disposeEv
FNDA:0,_ZN5boost6detail17sp_counted_impl_pINS_7runtime9parameterINS_9unit_test12report_levelELNS2_11args_amountE0ELb1EEEE7disposeEv
FNDA:0,_ZN5boost6detail17sp_counted_impl_pINS_7runtime9parameterINS_9unit_test13output_formatELNS2_11args_amountE0ELb1EEEE7disposeEv
FNDA:0,_ZN5boost6detail17sp_counted_impl_pINS_7runtime9parameterINS_9unit_test9log_levelELNS2_11args_amountE0ELb1EEEE7disposeEv
FNDA:5,_ZN5boost6detail17sp_counted_impl_pINS_7runtime9parameterINSt7__cxx1112basic_stringIcSt11char_traitsIcESaIcEEELNS2_11args_amountE0ELb0EEEE7disposeEv
FNDA:2,_ZN5boost6detail17sp_counted_impl_pINS_7runtime9parameterINSt7__cxx1112basic_stringIcSt11char_traitsIcESaIcEEELNS2_11args_amountE2ELb0EEEE7disposeEv
FNDA:1,_ZN5boost6detail17sp_counted_impl_pINS_7runtime9parameterIjLNS2_11args_amountE0ELb0EEEE7disposeEv
FNDA:1,_ZN5boost6detail17sp_counted_impl_pINS_7runtime9parameterImLNS2_11args_amountE0ELb0EEEE7disposeEv
FNDA:3,_ZN5boost6detail17sp_counted_impl_pINS_9unit_test23unit_test_log_formatterEE7disposeEv
FNDA:0,_ZN5boost6detail17sp_counted_impl_pINS_9unit_test9decorator10depends_onEE7disposeEv
FNDA:0,_ZN5boost6detail17sp_counted_impl_pINS_9unit_test9decorator11descriptionEE7disposeEv
FNDA:0,_ZN5boost6detail17sp_counted_impl_pINS_9unit_test9decorator12preconditionEE7disposeEv
FNDA:0,_ZN5boost6detail17sp_counted_impl_pINS_9unit_test9decorator15stack_decoratorEE7disposeEv
FNDA:0,_ZN5boost6detail17sp_counted_impl_pINS_9unit_test9decorator17expected_failuresEE7disposeEv
FNDA:0,_ZN5boost6detail17sp_counted_impl_pINS_9unit_test9decorator5labelEE7disposeEv
FNDA:0,_ZN5boost6detail17sp_counted_impl_pINS_9unit_test9decorator7timeoutEE7disposeEv
FNDA:0,_ZN5boost6detail17sp_counted_impl_pINS_9unit_test9decorator9fixture_tEE7disposeEv
FNDA:0,_ZN5boost6detail17sp_counted_impl_pINS_9unit_test9framework4impl21global_fixture_handleEE7disposeEv
FNDA:0,_ZN5boost6detail17sp_counted_impl_pINS_16exception_detail15error_info_baseEE11get_deleterERKSt9type_info
FNDA:0,_ZN5boost6detail17sp_counted_impl_pINS_23basic_wrap_stringstreamIcEEE11get_deleterERKSt9type_info
FNDA:0,_ZN5boost6detail17sp_counted_impl_pINS_2io18ios_base_all_saverEE11get_deleterERKSt9type_info
FNDA:0,_ZN5boost6detail17sp_counted_impl_pINS_7runtime14enum_parameterINS_9unit_test12report_levelELNS2_11args_amountE0EEEE11get_deleterERKSt9type_info
FNDA:0,_ZN5boost6detail17sp_counted_impl_pINS_7runtime14enum_parameterINS_9unit_test13output_formatELNS2_11args_amountE0EEEE11get_deleterERKSt9type_info
FNDA:0,_ZN5boost6detail17sp_counted_impl_pINS_7runtime14enum_parameterINS_9unit_test9log_levelELNS2_11args_amountE0EEEE11get_deleterERKSt9type_info
FNDA:0,_ZN5boost6detail17sp_counted_impl_pINS_7runtime14typed_argumentINS_9unit_test12report_levelEEEE11get_deleterERKSt9type_info
FNDA:0,_ZN5boost6detail17sp_counted_impl_pINS_7runtime14typed_argumentINS_9unit_test13output_formatEEEE11get_deleterERKSt9type_info
FNDA:0,_ZN5boost6detail17sp_counted_impl_pINS_7runtime14typed_argumentINS_9unit_test9log_levelEEEE11get_deleterERKSt9type_info
FNDA:0,_ZN5boost6detail17sp_counted_impl_pINS_7runtime14typed_argumentINSt7__cxx1112basic_stringIcSt11char_traitsIcESaIcEEEEEE11get_deleterERKSt9type_info
FNDA:0,_ZN5boost6detail17sp_counted_impl_pINS_7runtime14typed_argumentISt6vectorINSt7__cxx1112basic_stringIcSt11char_traitsIcESaIcEEESaISA_EEEEE11get_deleterERKSt9type_info
FNDA:0,_ZN5boost6detail17sp_counted_impl_pINS_7runtime14typed_argumentIbEEE11get_deleterERKSt9type_info
FNDA:0,_ZN5boost6detail17sp_counted_impl_pINS_7runtime14typed_argumentIjEEE11get_deleterERKSt9type_info
FNDA:0,_ZN5boost6detail17sp_counted_impl_pINS_7runtime14typed_argumentImEEE11get_deleterERKSt9type_info
FNDA:0,_ZN5boost6detail17sp_counted_impl_pINS_7runtime3cla13rt_cla_detail14parameter_trieEE11get_deleterERKSt9type_info
FNDA:0,_ZN5boost6detail17sp_counted_impl_pINS_7runtime3cla6parserEE11get_deleterERKSt9type_info
FNDA:0,_ZN5boost6detail17sp_counted_impl_pINS_7runtime6optionEE11get_deleterERKSt9type_info
FNDA:0,_ZN5boost6detail17sp_counted_impl_pINS_7runtime9parameterINS_9unit_test12report_levelELNS2_11args_amountE0ELb1EEEE11get_deleterERKSt9type_info
FNDA:0,_ZN5boost6detail17sp_counted_impl_pINS_7runtime9parameterINS_9unit_test13output_formatELNS2_11args_amountE0ELb1EEEE11get_deleterERKSt9type_info
FNDA:0,_ZN5boost6detail17sp_counted_impl_pINS_7runtime9parameterINS_9unit_test9log_levelELNS2_11args_amountE0ELb1EEEE11get_deleterERKSt9type_info
FNDA:0,_ZN5boost6detail17sp_counted_impl_pINS_7runtime9parameterINSt7__cxx1112basic_stringIcSt11char_traitsIcESaIcEEELNS2_11args_amountE0ELb0EEEE11get_deleterERKSt9type_info
FNDA:0,_ZN5boost6detail17sp_counted_impl_pINS_7runtime9parameterINSt7__cxx1112basic_stringIcSt11char_traitsIcESaIcEEELNS2_11args_amountE2ELb0EEEE11get_deleterERKSt9type_info
FNDA:0,_ZN5boost6detail17sp_counted_impl_pINS_7runtime9parameterIjLNS2_11args_amountE0ELb0EEEE11get_deleterERKSt9type_info
FNDA:0,_ZN5boost6detail17sp_counted_impl_pINS_7runtime9parameterImLNS2_11args_amountE0ELb0EEEE11get_deleterERKSt9type_info
FNDA:0,_ZN5boost6detail17sp_counted_impl_pINS_9unit_test23unit_test_log_formatterEE11get_deleterERKSt9type_info
FNDA:0,_ZN5boost6detail17sp_counted_impl_pINS_9unit_test9decorator10depends_onEE11get_deleterERKSt9type_info
FNDA:0,_ZN5boost6detail17sp_counted_impl_pINS_9unit_test9decorator11descriptionEE11get_deleterERKSt9type_info
FNDA:0,_ZN5boost6detail17sp_counted_impl_pINS_9unit_test9decorator12preconditionEE11get_deleterERKSt9type_info
FNDA:0,_ZN5boost6detail17sp_counted_impl_pINS_9unit_test9decorator15stack_decoratorEE11get_deleterERKSt9type_info
FNDA:0,_ZN5boost6detail17sp_counted_impl_pINS_9unit_test9decorator17expected_failuresEE11get_deleterERKSt9type_info
FNDA:0,_ZN5boost6detail17sp_counted_impl_pINS_9unit_test9decorator5labelEE11get_deleterERKSt9type_info
FNDA:0,_ZN5boost6detail17sp_counted_impl_pINS_9unit_test9decorator7timeoutEE11get_deleterERKSt9type_info
FNDA:0,_ZN5boost6detail17sp_counted_impl_pINS_9unit_test9decorator9fixture_tEE11get_deleterERKSt9type_info
FNDA:0,_ZN5boost6detail17sp_counted_impl_pINS_9unit_test9framework4impl21global_fixture_handleEE11get_deleterERKSt9type_info
FNDA:0,_ZN5boost6detail17sp_counted_impl_pINS_16exception_detail15error_info_baseEE17get_local_deleterERKSt9type_info
FNDA:0,_ZN5boost6detail17sp_counted_impl_pINS_23basic_wrap_stringstreamIcEEE17get_local_deleterERKSt9type_info
FNDA:0,_ZN5boost6detail17sp_counted_impl_pINS_2io18ios_base_all_saverEE17get_local_deleterERKSt9type_info
FNDA:0,_ZN5boost6detail17sp_counted_impl_pINS_7runtime14enum_parameterINS_9unit_test12report_levelELNS2_11args_amountE0EEEE17get_local_deleterERKSt9type_info
FNDA:0,_ZN5boost6detail17sp_counted_impl_pINS_7runtime14enum_parameterINS_9unit_test13output_formatELNS2_11args_amountE0EEEE17get_local_deleterERKSt9type_info
FNDA:0,_ZN5boost6detail17sp_counted_impl_pINS_7runtime14enum_parameterINS_9unit_test9log_levelELNS2_11args_amountE0EEEE17get_local_deleterERKSt9type_info
FNDA:0,_ZN5boost6detail17sp_counted_impl_pINS_7runtime14typed_argumentINS_9unit_test12report_levelEEEE17get_local_deleterERKSt9type_info
FNDA:0,_ZN5boost6detail17sp_counted_impl_pINS_7runtime14typed_argumentINS_9unit_test13output_formatEEEE17get_local_deleterERKSt9type_info
FNDA:0,_ZN5boost6detail17sp_counted_impl_pINS_7runtime14typed_argumentINS_9unit_test9log_levelEEEE17get_local_deleterERKSt9type_info
FNDA:0,_ZN5boost6detail17sp_counted_impl_pINS_7runtime14typed_argumentINSt7__cxx1112basic_stringIcSt11char_traitsIcESaIcEEEEEE17get_local_deleterERKSt9type_info
FNDA:0,_ZN5boost6detail17sp_counted_impl_pINS_7runtime14typed_argumentISt6vectorINSt7__cxx1112basic_stringIcSt11char_traitsIcESaIcEEESaISA_EEEEE17get_local_deleterERKSt9type_info
FNDA:0,_ZN5boost6detail17sp_counted_impl_pINS_7runtime14typed_argumentIbEEE17get_local_deleterERKSt9type_info
FNDA:0,_ZN5boost6detail17sp_counted_impl_pINS_7runtime14typed_argumentIjEEE17get_local_deleterERKSt9type_info
FNDA:0,_ZN5boost6detail17sp_counted_impl_pINS_7runtime14typed_argumentImEEE17get_local_deleterERKSt9type_info
FNDA:0,_ZN5boost6detail17sp_counted_impl_pINS_7runtime3cla13rt_cla_detail14parameter_trieEE17get_local_deleterERKSt9type_info
FNDA:0,_ZN5boost6detail17sp_counted_impl_pINS_7runtime3cla6parserEE17get_local_deleterERKSt9type_info
FNDA:0,_ZN5boost6detail17sp_counted_impl_pINS_7runtime6optionEE17get_local_deleterERKSt9type_info
FNDA:0,_ZN5boost6detail17sp_counted_impl_pINS_7runtime9parameterINS_9unit_test12report_levelELNS2_11args_amountE0ELb1EEEE17get_local_deleterERKSt9type_info
FNDA:0,_ZN5boost6detail17sp_counted_impl_pINS_7runtime9parameterINS_9unit_test13output_formatELNS2_11args_amountE0ELb1EEEE17get_local_deleterERKSt9type_info
FNDA:0,_ZN5boost6detail17sp_counted_impl_pINS_7runtime9parameterINS_9unit_test9log_levelELNS2_11args_amountE0ELb1EEEE17get_local_deleterERKSt9type_info
FNDA:0,_ZN5boost6detail17sp_counted_impl_pINS_7runtime9parameterINSt7__cxx1112basic_stringIcSt11char_traitsIcESaIcEEELNS2_11args_amountE0ELb0EEEE17get_local_deleterERKSt9type_info
FNDA:0,_ZN5boost6detail17sp_counted_impl_pINS_7runtime9parameterINSt7__cxx1112basic_stringIcSt11char_traitsIcESaIcEEELNS2_11args_amountE2ELb0EEEE17get_local_deleterERKSt9type_info
FNDA:0,_ZN5boost6detail17sp_counted_impl_pINS_7runtime9parameterIjLNS2_11args_amountE0ELb0EEEE17get_local_deleterERKSt9type_info
FNDA:0,_ZN5boost6detail17sp_counted_impl_pINS_7runtime9parameterImLNS2_11args_amountE0ELb0EEEE17get_local_deleterERKSt9type_info
FNDA:0,_ZN5boost6detail17sp_counted_impl_pINS_9unit_test23unit_test_log_formatterEE17get_local_deleterERKSt9type_info
FNDA:0,_ZN5boost6detail17sp_counted_impl_pINS_9unit_test9decorator10depends_onEE17get_local_deleterERKSt9type_info
FNDA:0,_ZN5boost6detail17sp_counted_impl_pINS_9unit_test9decorator11descriptionEE17get_local_deleterERKSt9type_info
FNDA:0,_ZN5boost6detail17sp_counted_impl_pINS_9unit_test9decorator12preconditionEE17get_local_deleterERKSt9type_info
FNDA:0,_ZN5boost6detail17sp_counted_impl_pINS_9unit_test9decorator15stack_decoratorEE17get_local_deleterERKSt9type_info
FNDA:0,_ZN5boost6detail17sp_counted_impl_pINS_9unit_test9decorator17expected_failuresEE17get_local_deleterERKSt9type_info
FNDA:0,_ZN5boost6detail17sp_counted_impl_pINS_9unit_test9decorator5labelEE17get_local_deleterERKSt9type_info
FNDA:0,_ZN5boost6detail17sp_counted_impl_pINS_9unit_test9decorator7timeoutEE17get_local_deleterERKSt9type_info
FNDA:0,_ZN5boost6detail17sp_counted_impl_pINS_9unit_test9decorator9fixture_tEE17get_local_deleterERKSt9type_info
FNDA:0,_ZN5boost6detail17sp_counted_impl_pINS_9unit_test9framework4impl21global_fixture_handleEE17get_local_deleterERKSt9type_info
FNF:176
FNH:40
DA:55,0
DA:57,0
DA:77,633
DA:82,633
DA:84,633
DA:89,633
DA:90,633
DA:92,0
DA:94,0
DA:97,0
DA:99,0
DA:102,0
DA:104,0
DA:173,0
DA:175,0
DA:177,0
DA:179,0
DA:180,0
DA:182,0
DA:184,0
DA:187,0
DA:189,0
DA:192,0
DA:194,0
LF:24
LH:5
end_of_record
TN:
SF:/usr/include/boost/smart_ptr/detail/sp_forward.hpp
FN:39,42,_ZN5boost6detail10sp_forwardIRKNS_8functionIFvvEEEEEOT_RS7_
FNDA:0,_ZN5boost6detail10sp_forwardIRKNS_8functionIFvvEEEEEOT_RS7_
FNF:1
FNH:0
DA:39,0
DA:41,0
LF:2
LH:0
end_of_record
TN:
SF:/usr/include/boost/smart_ptr/make_shared_object.hpp
FN:101,104,_ZN5boost6detail13sp_ms_deleterINS_9unit_test14runtime_config13stream_holder16callback_cleanerEE7addressEv
FN:106,109,_ZN5boost6detail13sp_ms_deleterINS_9unit_test14runtime_config13stream_holder16callback_cleanerEE15set_initializedEv
FN:249,264,_ZN5boost11make_sharedINS_9unit_test14runtime_config13stream_holder16callback_cleanerEJRKNS_8functionIFvvEEEEEENS_6detail15sp_if_not_arrayIT_E4typeEDpOT0_
FN:52,70,_ZN5boost6detail13sp_ms_deleterINS_9unit_test14runtime_config13stream_holder16callback_cleanerEE7destroyEv
FN:74,76,_ZN5boost6detail13sp_ms_deleterINS_9unit_test14runtime_config13stream_holder16callback_cleanerEEC2Ev
FN:87,90,_ZN5boost6detail13sp_ms_deleterINS_9unit_test14runtime_config13stream_holder16callback_cleanerEED2Ev
FN:92,95,_ZN5boost6detail13sp_ms_deleterINS_9unit_test14runtime_config13stream_holder16callback_cleanerEEclEPS5_
FN:97,99,_ZN5boost6detail13sp_ms_deleterINS_9unit_test14runtime_config13stream_holder16callback_cleanerEE11operator_fnEPS5_
FNDA:0,_ZN5boost6detail13sp_ms_deleterINS_9unit_test14runtime_config13stream_holder16callback_cleanerEE7addressEv
FNDA:0,_ZN5boost6detail13sp_ms_deleterINS_9unit_test14runtime_config13stream_holder16callback_cleanerEE15set_initializedEv
FNDA:0,_ZN5boost11make_sharedINS_9unit_test14runtime_config13stream_holder16callback_cleanerEJRKNS_8functionIFvvEEEEEENS_6detail15sp_if_not_arrayIT_E4typeEDpOT0_
FNDA:0,_ZN5boost6detail13sp_ms_deleterINS_9unit_test14runtime_config13stream_holder16callback_cleanerEE7destroyEv
FNDA:0,_ZN5boost6detail13sp_ms_deleterINS_9unit_test14runtime_config13stream_holder16callback_cleanerEEC2Ev
FNDA:0,_ZN5boost6detail13sp_ms_deleterINS_9unit_test14runtime_config13stream_holder16callback_cleanerEED2Ev
FNDA:0,_ZN5boost6detail13sp_ms_deleterINS_9unit_test14runtime_config13stream_holder16callback_cleanerEEclEPS5_
FNDA:0,_ZN5boost6detail13sp_ms_deleterINS_9unit_test14runtime_config13stream_holder16callback_cleanerEE11operator_fnEPS5_
FNF:8
FNH:0
DA:52,0
DA:54,0
DA:59,0
DA:60,0
DA:68,0
DA:70,0
DA:74,0
DA:76,0
DA:87,0
DA:89,0
DA:90,0
DA:92,0
DA:94,0
DA:95,0
DA:97,0
DA:99,0
DA:101,0
DA:103,0
DA:106,0
DA:108,0
DA:109,0
DA:249,0
DA:251,0
DA:253,0
DA:255,0
DA:257,0
DA:258,0
DA:260,0
DA:262,0
DA:263,0
DA:264,0
LF:31
LH:0
end_of_record
TN:
SF:/usr/include/boost/smart_ptr/scoped_array.hpp
FN:58,63,_ZN5boost12scoped_arrayIcEC2EPc
FN:65,71,_ZN5boost12scoped_arrayIcED2Ev
FN:73,77,_ZN5boost12scoped_arrayIcE5resetEPc
FN:86,89,_ZNK5boost12scoped_arrayIcE3getEv
FN:94,99,_ZN5boost12scoped_arrayIcE4swapERS1_
FNDA:4,_ZN5boost12scoped_arrayIcEC2EPc
FNDA:4,_ZN5boost12scoped_arrayIcED2Ev
FNDA:2,_ZN5boost12scoped_arrayIcE5resetEPc
FNDA:57,_ZNK5boost12scoped_arrayIcE3getEv
FNDA:2,_ZN5boost12scoped_arrayIcE4swapERS1_
FNF:5
FNH:5
DA:58,4
DA:63,4
DA:65,4
DA:70,4
DA:71,4
DA:73,2
DA:75,2
DA:76,2
DA:77,2
DA:86,57
DA:88,57
DA:94,2
DA:96,2
DA:97,2
DA:98,2
DA:99,2
LF:16
LH:16
end_of_record
TN:
SF:/usr/include/boost/smart_ptr/scoped_ptr.hpp
FN:104,108,_ZNK5boost10scoped_ptrINS_2io18ios_base_all_saverEEptEv
FN:104,108,_ZNK5boost10scoped_ptrINS_9unit_test16progress_displayEEptEv
FN:104,108,_ZNK5boost10scoped_ptrINS_9unit_test16results_reporter6formatEEptEv
FN:118,123,_ZN5boost10scoped_ptrINS_2io18ios_base_all_saverEE4swapERS3_
FN:118,123,_ZN5boost10scoped_ptrINS_9unit_test16progress_displayEE4swapERS3_
FN:118,123,_ZN5boost10scoped_ptrINS_9unit_test16results_reporter6formatEE4swapERS4_
FN:66,71,_ZN5boost10scoped_ptrINS_2io18ios_base_all_saverEEC2EPS2_
FN:66,71,_ZN5boost10scoped_ptrINS_9unit_test16progress_displayEEC2EPS2_
FN:66,71,_ZN5boost10scoped_ptrINS_9unit_test16results_reporter6formatEEC2EPS3_
FN:84,90,_ZN5boost10scoped_ptrINS_2io18ios_base_all_saverEED2Ev
FN:84,90,_ZN5boost10scoped_ptrINS_9unit_test16progress_displayEED2Ev
FN:84,90,_ZN5boost10scoped_ptrINS_9unit_test16results_reporter6formatEED2Ev
FN:92,96,_ZN5boost10scoped_ptrINS_2io18ios_base_all_saverEE5resetEPS2_
FN:92,96,_ZN5boost10scoped_ptrINS_9unit_test16progress_displayEE5resetEPS2_
FN:92,96,_ZN5boost10scoped_ptrINS_9unit_test16results_reporter6formatEE5resetEPS3_
FN:98,102,_ZNK5boost10scoped_ptrINS_9unit_test16progress_displayEEdeEv
FNDA:1,_ZNK5boost10scoped_ptrINS_2io18ios_base_all_saverEEptEv
FNDA:0,_ZNK5boost10scoped_ptrINS_9unit_test16progress_displayEEptEv
FNDA:3,_ZNK5boost10scoped_ptrINS_9unit_test16results_reporter6formatEEptEv
FNDA:1,_ZN5boost10scoped_ptrINS_2io18ios_base_all_saverEE4swapERS3_
FNDA:0,_ZN5boost10scoped_ptrINS_9unit_test16progress_displayEE4swapERS3_
FNDA:1,_ZN5boost10scoped_ptrINS_9unit_test16results_reporter6formatEE4swapERS4_
FNDA:2,_ZN5boost10scoped_ptrINS_2io18ios_base_all_saverEEC2EPS2_
FNDA:0,_ZN5boost10scoped_ptrINS_9unit_test16progress_displayEEC2EPS2_
FNDA:2,_ZN5boost10scoped_ptrINS_9unit_test16results_reporter6formatEEC2EPS3_
FNDA:2,_ZN5boost10scoped_ptrINS_2io18ios_base_all_saverEED2Ev
FNDA:0,_ZN5boost10scoped_ptrINS_9unit_test16progress_displayEED2Ev
FNDA:2,_ZN5boost10scoped_ptrINS_9unit_test16results_reporter6formatEED2Ev
FNDA:1,_ZN5boost10scoped_ptrINS_2io18ios_base_all_saverEE5resetEPS2_
FNDA:0,_ZN5boost10scoped_ptrINS_9unit_test16progress_displayEE5resetEPS2_
FNDA:1,_ZN5boost10scoped_ptrINS_9unit_test16results_reporter6formatEE5resetEPS3_
FNDA:0,_ZNK5boost10scoped_ptrINS_9unit_test16progress_displayEEdeEv
FNF:16
FNH:10
DA:66,4
DA:71,4
DA:84,4
DA:89,4
DA:90,4
DA:92,2
DA:94,2
DA:95,2
DA:96,2
DA:98,0
DA:100,0
DA:101,0
DA:104,4
DA:106,4
DA:107,4
DA:118,2
DA:120,2
DA:121,2
DA:122,2
DA:123,2
LF:20
LH:17
end_of_record
TN:
SF:/usr/include/boost/smart_ptr/shared_ptr.hpp
FN:1029,1032,_ZN5boost11get_pointerINS_9unit_test17test_unit_fixtureEEEPNS_10shared_ptrIT_E12element_typeERKS5_
FN:237,239,_ZN5boost6detail26sp_enable_shared_from_thisEz
FN:278,282,_ZN5boost6detail20sp_pointer_constructINS_16exception_detail15error_info_baseES3_EEvPNS_10shared_ptrIT_EEPT0_RNS0_12shared_countE
FN:278,282,_ZN5boost6detail20sp_pointer_constructINS_23basic_wrap_stringstreamIcEES3_EEvPNS_10shared_ptrIT_EEPT0_RNS0_12shared_countE
FN:278,282,_ZN5boost6detail20sp_pointer_constructINS_2io18ios_base_all_saverES3_EEvPNS_10shared_ptrIT_EEPT0_RNS0_12shared_countE
FN:278,282,_ZN5boost6detail20sp_pointer_constructINS_7runtime11basic_paramENS2_14enum_parameterINS_9unit_test12report_levelELNS2_11args_amountE0EEEEEvPNS_10shared_ptrIT_EEPT0_RNS0_12shared_countE
FN:278,282,_ZN5boost6detail20sp_pointer_constructINS_7runtime11basic_paramENS2_14enum_parameterINS_9unit_test13output_formatELNS2_11args_amountE0EEEEEvPNS_10shared_ptrIT_EEPT0_RNS0_12shared_countE
FN:278,282,_ZN5boost6detail20sp_pointer_constructINS_7runtime11basic_paramENS2_14enum_parameterINS_9unit_test9log_levelELNS2_11args_amountE0EEEEEvPNS_10shared_ptrIT_EEPT0_RNS0_12shared_countE
FN:278,282,_ZN5boost6detail20sp_pointer_constructINS_7runtime11basic_paramENS2_6optionEEEvPNS_10shared_ptrIT_EEPT0_RNS0_12shared_countE
FN:278,282,_ZN5boost6detail20sp_pointer_constructINS_7runtime11basic_paramENS2_9parameterINS_9unit_test12report_levelELNS2_11args_amountE0ELb1EEEEEvPNS_10shared_ptrIT_EEPT0_RNS0_12shared_countE
FN:278,282,_ZN5boost6detail20sp_pointer_constructINS_7runtime11basic_paramENS2_9parameterINS_9unit_test13output_formatELNS2_11args_amountE0ELb1EEEEEvPNS_10shared_ptrIT_EEPT0_RNS0_12shared_countE
FN:278,282,_ZN5boost6detail20sp_pointer_constructINS_7runtime11basic_paramENS2_9parameterINS_9unit_test9log_levelELNS2_11args_amountE0ELb1EEEEEvPNS_10shared_ptrIT_EEPT0_RNS0_12shared_countE
FN:278,282,_ZN5boost6detail20sp_pointer_constructINS_7runtime11basic_paramENS2_9parameterINSt7__cxx1112basic_stringIcSt11char_traitsIcESaIcEEELNS2_11args_amountE0ELb0EEEEEvPNS_10shared_ptrIT_EEPT0_RNS0_12shared_countE
FN:278,282,_ZN5boost6detail20sp_pointer_constructINS_7runtime11basic_paramENS2_9parameterINSt7__cxx1112basic_stringIcSt11char_traitsIcESaIcEEELNS2_11args_amountE2ELb0EEEEEvPNS_10shared_ptrIT_EEPT0_RNS0_12shared_countE
FN:278,282,_ZN5boost6detail20sp_pointer_constructINS_7runtime11basic_paramENS2_9parameterIjLNS2_11args_amountE0ELb0EEEEEvPNS_10shared_ptrIT_EEPT0_RNS0_12shared_countE
FN:278,282,_ZN5boost6detail20sp_pointer_constructINS_7runtime11basic_paramENS2_9parameterImLNS2_11args_amountE0ELb0EEEEEvPNS_10shared_ptrIT_EEPT0_RNS0_12shared_countE
FN:278,282,_ZN5boost6detail20sp_pointer_constructINS_7runtime3cla13rt_cla_detail14parameter_trieES5_EEvPNS_10shared_ptrIT_EEPT0_RNS0_12shared_countE
FN:278,282,_ZN5boost6detail20sp_pointer_constructINS_7runtime3cla6parserES4_EEvPNS_10shared_ptrIT_EEPT0_RNS0_12shared_countE
FN:278,282,_ZN5boost6detail20sp_pointer_constructINS_7runtime8argumentENS2_14typed_argumentINS_9unit_test12report_levelEEEEEvPNS_10shared_ptrIT_EEPT0_RNS0_12shared_countE
FN:278,282,_ZN5boost6detail20sp_pointer_constructINS_7runtime8argumentENS2_14typed_argumentINS_9unit_test13output_formatEEEEEvPNS_10shared_ptrIT_EEPT0_RNS0_12shared_countE
FN:278,282,_ZN5boost6detail20sp_pointer_constructINS_7runtime8argumentENS2_14typed_argumentINS_9unit_test9log_levelEEEEEvPNS_10shared_ptrIT_EEPT0_RNS0_12shared_countE
FN:278,282,_ZN5boost6detail20sp_pointer_constructINS_7runtime8argumentENS2_14typed_argumentINSt7__cxx1112basic_stringIcSt11char_traitsIcESaIcEEEEEEEvPNS_10shared_ptrIT_EEPT0_RNS0_12shared_countE
FN:278,282,_ZN5boost6detail20sp_pointer_constructINS_7runtime8argumentENS2_14typed_argumentISt6vectorINSt7__cxx1112basic_stringIcSt11char_traitsIcESaIcEEESaISB_EEEEEEvPNS_10shared_ptrIT_EEPT0_RNS0_12shared_countE
FN:278,282,_ZN5boost6detail20sp_pointer_constructINS_7runtime8argumentENS2_14typed_argumentIbEEEEvPNS_10shared_ptrIT_EEPT0_RNS0_12shared_countE
FN:278,282,_ZN5boost6detail20sp_pointer_constructINS_7runtime8argumentENS2_14typed_argumentIjEEEEvPNS_10shared_ptrIT_EEPT0_RNS0_12shared_countE
FN:278,282,_ZN5boost6detail20sp_pointer_constructINS_7runtime8argumentENS2_14typed_argumentImEEEEvPNS_10shared_ptrIT_EEPT0_RNS0_12shared_countE
FN:278,282,_ZN5boost6detail20sp_pointer_constructINS_9unit_test17test_unit_fixtureENS2_9framework4impl21global_fixture_handleEEEvPNS_10shared_ptrIT_EEPT0_RNS0_12shared_countE
FN:278,282,_ZN5boost6detail20sp_pointer_constructINS_9unit_test23unit_test_log_formatterES3_EEvPNS_10shared_ptrIT_EEPT0_RNS0_12shared_countE
FN:278,282,_ZN5boost6detail20sp_pointer_constructINS_9unit_test9decorator4baseENS3_10depends_onEEEvPNS_10shared_ptrIT_EEPT0_RNS0_12shared_countE
FN:278,282,_ZN5boost6detail20sp_pointer_constructINS_9unit_test9decorator4baseENS3_11descriptionEEEvPNS_10shared_ptrIT_EEPT0_RNS0_12shared_countE
FN:278,282,_ZN5boost6detail20sp_pointer_constructINS_9unit_test9decorator4baseENS3_12preconditionEEEvPNS_10shared_ptrIT_EEPT0_RNS0_12shared_countE
FN:278,282,_ZN5boost6detail20sp_pointer_constructINS_9unit_test9decorator4baseENS3_15stack_decoratorEEEvPNS_10shared_ptrIT_EEPT0_RNS0_12shared_countE
FN:278,282,_ZN5boost6detail20sp_pointer_constructINS_9unit_test9decorator4baseENS3_17expected_failuresEEEvPNS_10shared_ptrIT_EEPT0_RNS0_12shared_countE
FN:278,282,_ZN5boost6detail20sp_pointer_constructINS_9unit_test9decorator4baseENS3_5labelEEEvPNS_10shared_ptrIT_EEPT0_RNS0_12shared_countE
FN:278,282,_ZN5boost6detail20sp_pointer_constructINS_9unit_test9decorator4baseENS3_7timeoutEEEvPNS_10shared_ptrIT_EEPT0_RNS0_12shared_countE
FN:278,282,_ZN5boost6detail20sp_pointer_constructINS_9unit_test9decorator4baseENS3_9fixture_tEEEvPNS_10shared_ptrIT_EEPT0_RNS0_12shared_countE
FN:302,305,_ZN5boost6detail20sp_deleter_constructINS_9unit_test14runtime_config13stream_holder16callback_cleanerES5_EEvPNS_10shared_ptrIT_EEPT0_
FN:347,349,_ZN5boost10shared_ptrINS_16exception_detail15error_info_baseEEC2Ev
FN:347,349,_ZN5boost10shared_ptrINS_23basic_wrap_stringstreamIcEEEC2Ev
FN:347,349,_ZN5boost10shared_ptrINS_6detail22translator_holder_baseEEC2Ev
FN:347,349,_ZN5boost10shared_ptrINS_7runtime11basic_paramEEC2Ev
FN:347,349,_ZN5boost10shared_ptrINS_7runtime3cla13rt_cla_detail14parameter_trieEEC1Ev
FN:347,349,_ZN5boost10shared_ptrINS_7runtime8argumentEEC2Ev
FN:347,349,_ZN5boost10shared_ptrINS_9unit_test14runtime_config13stream_holder16callback_cleanerEEC2Ev
FN:347,349,_ZN5boost10shared_ptrINS_9unit_test23unit_test_log_formatterEEC2Ev
FN:372,375,_ZN5boost10shared_ptrINS_16exception_detail15error_info_baseEEC2IS2_EEPT_
FN:372,375,_ZN5boost10shared_ptrINS_23basic_wrap_stringstreamIcEEEC2IS2_EEPT_
FN:372,375,_ZN5boost10shared_ptrINS_2io18ios_base_all_saverEEC2IS2_EEPT_
FN:372,375,_ZN5boost10shared_ptrINS_7runtime11basic_paramEEC2INS1_14enum_parameterINS_9unit_test12report_levelELNS1_11args_amountE0EEEEEPT_
FN:372,375,_ZN5boost10shared_ptrINS_7runtime11basic_paramEEC2INS1_14enum_parameterINS_9unit_test13output_formatELNS1_11args_amountE0EEEEEPT_
FN:372,375,_ZN5boost10shared_ptrINS_7runtime11basic_paramEEC2INS1_14enum_parameterINS_9unit_test9log_levelELNS1_11args_amountE0EEEEEPT_
FN:372,375,_ZN5boost10shared_ptrINS_7runtime11basic_paramEEC2INS1_6optionEEEPT_
FN:372,375,_ZN5boost10shared_ptrINS_7runtime11basic_paramEEC2INS1_9parameterINS_9unit_test12report_levelELNS1_11args_amountE0ELb1EEEEEPT_
FN:372,375,_ZN5boost10shared_ptrINS_7runtime11basic_paramEEC2INS1_9parameterINS_9unit_test13output_formatELNS1_11args_amountE0ELb1EEEEEPT_
FN:372,375,_ZN5boost10shared_ptrINS_7runtime11basic_paramEEC2INS1_9parameterINS_9unit_test9log_levelELNS1_11args_amountE0ELb1EEEEEPT_
FN:372,375,_ZN5boost10shared_ptrINS_7runtime11basic_paramEEC2INS1_9parameterINSt7__cxx1112basic_stringIcSt11char_traitsIcESaIcEEELNS1_11args_amountE0ELb0EEEEEPT_
FN:372,375,_ZN5boost10shared_ptrINS_7runtime11basic_paramEEC2INS1_9parameterINSt7__cxx1112basic_stringIcSt11char_traitsIcESaIcEEELNS1_11args_amountE2ELb0EEEEEPT_
FN:372,375,_ZN5boost10shared_ptrINS_7runtime11basic_paramEEC2INS1_9parameterIjLNS1_11args_amountE0ELb0EEEEEPT_
FN:372,375,_ZN5boost10shared_ptrINS_7runtime11basic_paramEEC2INS1_9parameterImLNS1_11args_amountE0ELb0EEEEEPT_
FN:372,375,_ZN5boost10shared_ptrINS_7runtime3cla13rt_cla_detail14parameter_trieEEC2IS4_EEPT_
FN:372,375,_ZN5boost10shared_ptrINS_7runtime3cla6parserEEC2IS3_EEPT_
FN:372,375,_ZN5boost10shared_ptrINS_7runtime8argumentEEC2INS1_14typed_argumentINS_9unit_test12report_levelEEEEEPT_
FN:372,375,_ZN5boost10shared_ptrINS_7runtime8argumentEEC2INS1_14typed_argumentINS_9unit_test13output_formatEEEEEPT_
FN:372,375,_ZN5boost10shared_ptrINS_7runtime8argumentEEC2INS1_14typed_argumentINS_9unit_test9log_levelEEEEEPT_
FN:372,375,_ZN5boost10shared_ptrINS_7runtime8argumentEEC2INS1_14typed_argumentINSt7__cxx1112basic_stringIcSt11char_traitsIcESaIcEEEEEEEPT_
FN:372,375,_ZN5boost10shared_ptrINS_7runtime8argumentEEC2INS1_14typed_argumentISt6vectorINSt7__cxx1112basic_stringIcSt11char_traitsIcESaIcEEESaISC_EEEEEEPT_
FN:372,375,_ZN5boost10shared_ptrINS_7runtime8argumentEEC2INS1_14typed_argumentIbEEEEPT_
FN:372,375,_ZN5boost10shared_ptrINS_7runtime8argumentEEC2INS1_14typed_argumentIjEEEEPT_
FN:372,375,_ZN5boost10shared_ptrINS_7runtime8argumentEEC2INS1_14typed_argumentImEEEEPT_
FN:372,375,_ZN5boost10shared_ptrINS_9unit_test17test_unit_fixtureEEC2INS1_9framework4impl21global_fixture_handleEEEPT_
FN:372,375,_ZN5boost10shared_ptrINS_9unit_test23unit_test_log_formatterEEC2IS2_EEPT_
FN:372,375,_ZN5boost10shared_ptrINS_9unit_test9decorator4baseEEC2INS2_10depends_onEEEPT_
FN:372,375,_ZN5boost10shared_ptrINS_9unit_test9decorator4baseEEC2INS2_11descriptionEEEPT_
FN:372,375,_ZN5boost10shared_ptrINS_9unit_test9decorator4baseEEC2INS2_12preconditionEEEPT_
FN:372,375,_ZN5boost10shared_ptrINS_9unit_test9decorator4baseEEC2INS2_15stack_decoratorEEEPT_
FN:372,375,_ZN5boost10shared_ptrINS_9unit_test9decorator4baseEEC2INS2_17expected_failuresEEEPT_
FN:372,375,_ZN5boost10shared_ptrINS_9unit_test9decorator4baseEEC2INS2_5labelEEEPT_
FN:372,375,_ZN5boost10shared_ptrINS_9unit_test9decorator4baseEEC2INS2_7timeoutEEEPT_
FN:372,375,_ZN5boost10shared_ptrINS_9unit_test9decorator4baseEEC2INS2_9fixture_tEEEPT_
FN:385,388,_ZN5boost10shared_ptrINS_9unit_test14runtime_config13stream_holder16callback_cleanerEEC2IS4_NS_6detail14sp_inplace_tagINS7_13sp_ms_deleterIS4_EEEEEEPT_T0_
FN:459,461,_ZN5boost10shared_ptrINS_16exception_detail15error_info_baseEEC2ERKS3_
FN:459,461,_ZN5boost10shared_ptrINS_7runtime11basic_paramEEC2ERKS3_
FN:459,461,_ZN5boost10shared_ptrINS_7runtime3cla13rt_cla_detail14parameter_trieEEC2ERKS5_
FN:459,461,_ZN5boost10shared_ptrINS_7runtime8argumentEEC2ERKS3_
FN:459,461,_ZN5boost10shared_ptrINS_9unit_test17test_unit_fixtureEEC2ERKS3_
FN:459,461,_ZN5boost10shared_ptrINS_9unit_test19test_unit_generatorEEC2ERKS3_
FN:459,461,_ZN5boost10shared_ptrINS_9unit_test9decorator4baseEEC2ERKS4_
FN:501,503,_ZN5boost10shared_ptrINS_9unit_test14runtime_config13stream_holder16callback_cleanerEEC2IS4_EERKNS0_IT_EEPS4_
FN:584,588,_ZN5boost10shared_ptrINS_16exception_detail15error_info_baseEEaSERKS3_
FN:584,588,_ZN5boost10shared_ptrINS_7runtime11basic_paramEEaSERKS3_
FN:584,588,_ZN5boost10shared_ptrINS_7runtime3cla13rt_cla_detail14parameter_trieEEaSERKS5_
FN:584,588,_ZN5boost10shared_ptrINS_9unit_test9decorator4baseEEaSERKS4_
FN:671,674,_ZN5boost10shared_ptrINS_16exception_detail15error_info_baseEEC2EOS3_
FN:671,674,_ZN5boost10shared_ptrINS_23basic_wrap_stringstreamIcEEEC2EOS3_
FN:671,674,_ZN5boost10shared_ptrINS_2io18ios_base_all_saverEEC2EOS3_
FN:671,674,_ZN5boost10shared_ptrINS_7runtime11basic_paramEEC2EOS3_
FN:671,674,_ZN5boost10shared_ptrINS_7runtime3cla13rt_cla_detail14parameter_trieEEC2EOS5_
FN:671,674,_ZN5boost10shared_ptrINS_7runtime8argumentEEC2EOS3_
FN:671,674,_ZN5boost10shared_ptrINS_9unit_test14runtime_config13stream_holder16callback_cleanerEEC2EOS5_
FN:671,674,_ZN5boost10shared_ptrINS_9unit_test17test_unit_fixtureEEC2EOS3_
FN:671,674,_ZN5boost10shared_ptrINS_9unit_test19test_unit_generatorEEC2EOS3_
FN:671,674,_ZN5boost10shared_ptrINS_9unit_test23unit_test_log_formatterEEC2EOS3_
FN:671,674,_ZN5boost10shared_ptrINS_9unit_test9decorator4baseEEC2EOS4_
FN:692,696,_ZN5boost10shared_ptrINS_2io18ios_base_all_saverEEaSEOS3_
FN:692,696,_ZN5boost10shared_ptrINS_7runtime3cla13rt_cla_detail14parameter_trieEEaSEOS5_
FN:692,696,_ZN5boost10shared_ptrINS_7runtime8argumentEEaSEOS3_
FN:692,696,_ZN5boost10shared_ptrINS_9unit_test14runtime_config13stream_holder16callback_cleanerEEaSEOS5_
FN:692,696,_ZN5boost10shared_ptrINS_9unit_test17test_unit_fixtureEEaSEOS3_
FN:692,696,_ZN5boost10shared_ptrINS_9unit_test23unit_test_log_formatterEEaSEOS3_
FN:692,696,_ZN5boost10shared_ptrINS_9unit_test9decorator4baseEEaSEOS4_
FN:725,728,_ZN5boost10shared_ptrINS_7runtime11basic_paramEE5resetEv
FN:725,728,_ZN5boost10shared_ptrINS_7runtime3cla13rt_cla_detail14parameter_trieEE5resetEv
FN:725,728,_ZN5boost10shared_ptrINS_9unit_test14runtime_config13stream_holder16callback_cleanerEE5resetEv
FN:730,734,_ZN5boost10shared_ptrINS_23basic_wrap_stringstreamIcEEE5resetIS2_EEvPT_
FN:730,734,_ZN5boost10shared_ptrINS_2io18ios_base_all_saverEE5resetIS2_EEvPT_
FN:730,734,_ZN5boost10shared_ptrINS_7runtime3cla6parserEE5resetIS3_EEvPT_
FN:730,734,_ZN5boost10shared_ptrINS_9unit_test23unit_test_log_formatterEE5resetIS2_EEvPT_
FN:776,780,_ZNK5boost10shared_ptrINS_16exception_detail15error_info_baseEEdeEv
FN:776,780,_ZNK5boost10shared_ptrINS_23basic_wrap_stringstreamIcEEEdeEv
FN:776,780,_ZNK5boost10shared_ptrINS_6detail22translator_holder_baseEEdeEv
FN:776,780,_ZNK5boost10shared_ptrINS_7runtime8argumentEEdeEv
FN:782,786,_ZNK5boost10shared_ptrINS_16exception_detail15error_info_baseEEptEv
FN:782,786,_ZNK5boost10shared_ptrINS_23basic_wrap_stringstreamIcEEEptEv
FN:782,786,_ZNK5boost10shared_ptrINS_2io18ios_base_all_saverEEptEv
FN:782,786,_ZNK5boost10shared_ptrINS_7runtime11basic_paramEEptEv
FN:782,786,_ZNK5boost10shared_ptrINS_7runtime3cla13rt_cla_detail14parameter_trieEEptEv
FN:782,786,_ZNK5boost10shared_ptrINS_7runtime3cla6parserEEptEv
FN:782,786,_ZNK5boost10shared_ptrINS_7runtime8argumentEEptEv
FN:782,786,_ZNK5boost10shared_ptrINS_9unit_test14runtime_config13stream_holder16callback_cleanerEEptEv
FN:782,786,_ZNK5boost10shared_ptrINS_9unit_test19test_unit_generatorEEptEv
FN:782,786,_ZNK5boost10shared_ptrINS_9unit_test23unit_test_log_formatterEEptEv
FN:782,786,_ZNK5boost10shared_ptrINS_9unit_test9decorator4baseEEptEv
FN:796,799,_ZNK5boost10shared_ptrINS_9unit_test17test_unit_fixtureEE3getEv
FN:796,799,_ZNK5boost10shared_ptrINS_9unit_test23unit_test_log_formatterEE3getEv
FN:814,818,_ZN5boost10shared_ptrINS_16exception_detail15error_info_baseEE4swapERS3_
FN:814,818,_ZN5boost10shared_ptrINS_23basic_wrap_stringstreamIcEEE4swapERS3_
FN:814,818,_ZN5boost10shared_ptrINS_2io18ios_base_all_saverEE4swapERS3_
FN:814,818,_ZN5boost10shared_ptrINS_7runtime11basic_paramEE4swapERS3_
FN:814,818,_ZN5boost10shared_ptrINS_7runtime3cla13rt_cla_detail14parameter_trieEE4swapERS5_
FN:814,818,_ZN5boost10shared_ptrINS_7runtime3cla6parserEE4swapERS4_
FN:814,818,_ZN5boost10shared_ptrINS_7runtime8argumentEE4swapERS3_
FN:814,818,_ZN5boost10shared_ptrINS_9unit_test14runtime_config13stream_holder16callback_cleanerEE4swapERS5_
FN:814,818,_ZN5boost10shared_ptrINS_9unit_test17test_unit_fixtureEE4swapERS3_
FN:814,818,_ZN5boost10shared_ptrINS_9unit_test23unit_test_log_formatterEE4swapERS3_
FN:814,818,_ZN5boost10shared_ptrINS_9unit_test9decorator4baseEE4swapERS4_
FN:855,858,_ZNK5boost10shared_ptrINS_9unit_test14runtime_config13stream_holder16callback_cleanerEE29_internal_get_untyped_deleterEv
FNDA:0,_ZN5boost11get_pointerINS_9unit_test17test_unit_fixtureEEEPNS_10shared_ptrIT_E12element_typeERKS5_
FNDA:633,_ZN5boost6detail26sp_enable_shared_from_thisEz
FNDA:0,_ZN5boost6detail20sp_pointer_constructINS_16exception_detail15error_info_baseES3_EEvPNS_10shared_ptrIT_EEPT0_RNS0_12shared_countE
FNDA:0,_ZN5boost6detail20sp_pointer_constructINS_23basic_wrap_stringstreamIcEES3_EEvPNS_10shared_ptrIT_EEPT0_RNS0_12shared_countE
FNDA:6,_ZN5boost6detail20sp_pointer_constructINS_2io18ios_base_all_saverES3_EEvPNS_10shared_ptrIT_EEPT0_RNS0_12shared_countE
FNDA:1,_ZN5boost6detail20sp_pointer_constructINS_7runtime11basic_paramENS2_14enum_parameterINS_9unit_test12report_levelELNS2_11args_amountE0EEEEEvPNS_10shared_ptrIT_EEPT0_RNS0_12shared_countE
FNDA:4,_ZN5boost6detail20sp_pointer_constructINS_7runtime11basic_paramENS2_14enum_parameterINS_9unit_test13output_formatELNS2_11args_amountE0EEEEEvPNS_10shared_ptrIT_EEPT0_RNS0_12shared_countE
FNDA:1,_ZN5boost6detail20sp_pointer_constructINS_7runtime11basic_paramENS2_14enum_parameterINS_9unit_test9log_levelELNS2_11args_amountE0EEEEEvPNS_10shared_ptrIT_EEPT0_RNS0_12shared_countE
FNDA:13,_ZN5boost6detail20sp_pointer_constructINS_7runtime11basic_paramENS2_6optionEEEvPNS_10shared_ptrIT_EEPT0_RNS0_12shared_countE
FNDA:0,_ZN5boost6detail20sp_pointer_constructINS_7runtime11basic_paramENS2_9parameterINS_9unit_test12report_levelELNS2_11args_amountE0ELb1EEEEEvPNS_10shared_ptrIT_EEPT0_RNS0_12shared_countE
FNDA:0,_ZN5boost6detail20sp_pointer_constructINS_7runtime11basic_paramENS2_9parameterINS_9unit_test13output_formatELNS2_11args_amountE0ELb1EEEEEvPNS_10shared_ptrIT_EEPT0_RNS0_12shared_countE
FNDA:0,_ZN5boost6detail20sp_pointer_constructINS_7runtime11basic_paramENS2_9parameterINS_9unit_test9log_levelELNS2_11args_amountE0ELb1EEEEEvPNS_10shared_ptrIT_EEPT0_RNS0_12shared_countE
FNDA:5,_ZN5boost6detail20sp_pointer_constructINS_7runtime11basic_paramENS2_9parameterINSt7__cxx1112basic_stringIcSt11char_traitsIcESaIcEEELNS2_11args_amountE0ELb0EEEEEvPNS_10shared_ptrIT_EEPT0_RNS0_12shared_countE
FNDA:2,_ZN5boost6detail20sp_pointer_constructINS_7runtime11basic_paramENS2_9parameterINSt7__cxx1112basic_stringIcSt11char_traitsIcESaIcEEELNS2_11args_amountE2ELb0EEEEEvPNS_10shared_ptrIT_EEPT0_RNS0_12shared_countE
FNDA:1,_ZN5boost6detail20sp_pointer_constructINS_7runtime11basic_paramENS2_9parameterIjLNS2_11args_amountE0ELb0EEEEEvPNS_10shared_ptrIT_EEPT0_RNS0_12shared_countE
FNDA:1,_ZN5boost6detail20sp_pointer_constructINS_7runtime11basic_paramENS2_9parameterImLNS2_11args_amountE0ELb0EEEEEvPNS_10shared_ptrIT_EEPT0_RNS0_12shared_countE
FNDA:572,_ZN5boost6detail20sp_pointer_constructINS_7runtime3cla13rt_cla_detail14parameter_trieES5_EEvPNS_10shared_ptrIT_EEPT0_RNS0_12shared_countE
FNDA:1,_ZN5boost6detail20sp_pointer_constructINS_7runtime3cla6parserES4_EEvPNS_10shared_ptrIT_EEPT0_RNS0_12shared_countE
FNDA:1,_ZN5boost6detail20sp_pointer_constructINS_7runtime8argumentENS2_14typed_argumentINS_9unit_test12report_levelEEEEEvPNS_10shared_ptrIT_EEPT0_RNS0_12shared_countE
FNDA:3,_ZN5boost6detail20sp_pointer_constructINS_7runtime8argumentENS2_14typed_argumentINS_9unit_test13output_formatEEEEEvPNS_10shared_ptrIT_EEPT0_RNS0_12shared_countE
FNDA:1,_ZN5boost6detail20sp_pointer_constructINS_7runtime8argumentENS2_14typed_argumentINS_9unit_test9log_levelEEEEEvPNS_10shared_ptrIT_EEPT0_RNS0_12shared_countE
FNDA:1,_ZN5boost6detail20sp_pointer_constructINS_7runtime8argumentENS2_14typed_argumentINSt7__cxx1112basic_stringIcSt11char_traitsIcESaIcEEEEEEEvPNS_10shared_ptrIT_EEPT0_RNS0_12shared_countE
FNDA:2,_ZN5boost6detail20sp_pointer_constructINS_7runtime8argumentENS2_14typed_argumentISt6vectorINSt7__cxx1112basic_stringIcSt11char_traitsIcESaIcEEESaISB_EEEEEEvPNS_10shared_ptrIT_EEPT0_RNS0_12shared_countE
FNDA:13,_ZN5boost6detail20sp_pointer_constructINS_7runtime8argumentENS2_14typed_argumentIbEEEEvPNS_10shared_ptrIT_EEPT0_RNS0_12shared_countE
FNDA:1,_ZN5boost6detail20sp_pointer_constructINS_7runtime8argumentENS2_14typed_argumentIjEEEEvPNS_10shared_ptrIT_EEPT0_RNS0_12shared_countE
FNDA:1,_ZN5boost6detail20sp_pointer_constructINS_7runtime8argumentENS2_14typed_argumentImEEEEvPNS_10shared_ptrIT_EEPT0_RNS0_12shared_countE
FNDA:0,_ZN5boost6detail20sp_pointer_constructINS_9unit_test17test_unit_fixtureENS2_9framework4impl21global_fixture_handleEEEvPNS_10shared_ptrIT_EEPT0_RNS0_12shared_countE
FNDA:3,_ZN5boost6detail20sp_pointer_constructINS_9unit_test23unit_test_log_formatterES3_EEvPNS_10shared_ptrIT_EEPT0_RNS0_12shared_countE
FNDA:0,_ZN5boost6detail20sp_pointer_constructINS_9unit_test9decorator4baseENS3_10depends_onEEEvPNS_10shared_ptrIT_EEPT0_RNS0_12shared_countE
FNDA:0,_ZN5boost6detail20sp_pointer_constructINS_9unit_test9decorator4baseENS3_11descriptionEEEvPNS_10shared_ptrIT_EEPT0_RNS0_12shared_countE
FNDA:0,_ZN5boost6detail20sp_pointer_constructINS_9unit_test9decorator4baseENS3_12preconditionEEEvPNS_10shared_ptrIT_EEPT0_RNS0_12shared_countE
FNDA:0,_ZN5boost6detail20sp_pointer_constructINS_9unit_test9decorator4baseENS3_15stack_decoratorEEEvPNS_10shared_ptrIT_EEPT0_RNS0_12shared_countE
FNDA:0,_ZN5boost6detail20sp_pointer_constructINS_9unit_test9decorator4baseENS3_17expected_failuresEEEvPNS_10shared_ptrIT_EEPT0_RNS0_12shared_countE
FNDA:0,_ZN5boost6detail20sp_pointer_constructINS_9unit_test9decorator4baseENS3_5labelEEEvPNS_10shared_ptrIT_EEPT0_RNS0_12shared_countE
FNDA:0,_ZN5boost6detail20sp_pointer_constructINS_9unit_test9decorator4baseENS3_7timeoutEEEvPNS_10shared_ptrIT_EEPT0_RNS0_12shared_countE
FNDA:0,_ZN5boost6detail20sp_pointer_constructINS_9unit_test9decorator4baseENS3_9fixture_tEEEvPNS_10shared_ptrIT_EEPT0_RNS0_12shared_countE
FNDA:0,_ZN5boost6detail20sp_deleter_constructINS_9unit_test14runtime_config13stream_holder16callback_cleanerES5_EEvPNS_10shared_ptrIT_EEPT0_
FNDA:0,_ZN5boost10shared_ptrINS_16exception_detail15error_info_baseEEC2Ev
FNDA:215,_ZN5boost10shared_ptrINS_23basic_wrap_stringstreamIcEEEC2Ev
FNDA:2,_ZN5boost10shared_ptrINS_6detail22translator_holder_baseEEC2Ev
FNDA:678,_ZN5boost10shared_ptrINS_7runtime11basic_paramEEC2Ev
FNDA:3,_ZN5boost10shared_ptrINS_7runtime3cla13rt_cla_detail14parameter_trieEEC1Ev
FNDA:23,_ZN5boost10shared_ptrINS_7runtime8argumentEEC2Ev
FNDA:3,_ZN5boost10shared_ptrINS_9unit_test14runtime_config13stream_holder16callback_cleanerEEC2Ev
FNDA:3,_ZN5boost10shared_ptrINS_9unit_test23unit_test_log_formatterEEC2Ev
FNDA:0,_ZN5boost10shared_ptrINS_16exception_detail15error_info_baseEEC2IS2_EEPT_
FNDA:0,_ZN5boost10shared_ptrINS_23basic_wrap_stringstreamIcEEEC2IS2_EEPT_
FNDA:6,_ZN5boost10shared_ptrINS_2io18ios_base_all_saverEEC2IS2_EEPT_
FNDA:1,_ZN5boost10shared_ptrINS_7runtime11basic_paramEEC2INS1_14enum_parameterINS_9unit_test12report_levelELNS1_11args_amountE0EEEEEPT_
FNDA:4,_ZN5boost10shared_ptrINS_7runtime11basic_paramEEC2INS1_14enum_parameterINS_9unit_test13output_formatELNS1_11args_amountE0EEEEEPT_
FNDA:1,_ZN5boost10shared_ptrINS_7runtime11basic_paramEEC2INS1_14enum_parameterINS_9unit_test9log_levelELNS1_11args_amountE0EEEEEPT_
FNDA:13,_ZN5boost10shared_ptrINS_7runtime11basic_paramEEC2INS1_6optionEEEPT_
FNDA:0,_ZN5boost10shared_ptrINS_7runtime11basic_paramEEC2INS1_9parameterINS_9unit_test12report_levelELNS1_11args_amountE0ELb1EEEEEPT_
FNDA:0,_ZN5boost10shared_ptrINS_7runtime11basic_paramEEC2INS1_9parameterINS_9unit_test13output_formatELNS1_11args_amountE0ELb1EEEEEPT_
FNDA:0,_ZN5boost10shared_ptrINS_7runtime11basic_paramEEC2INS1_9parameterINS_9unit_test9log_levelELNS1_11args_amountE0ELb1EEEEEPT_
FNDA:5,_ZN5boost10shared_ptrINS_7runtime11basic_paramEEC2INS1_9parameterINSt7__cxx1112basic_stringIcSt11char_traitsIcESaIcEEELNS1_11args_amountE0ELb0EEEEEPT_
FNDA:2,_ZN5boost10shared_ptrINS_7runtime11basic_paramEEC2INS1_9parameterINSt7__cxx1112basic_stringIcSt11char_traitsIcESaIcEEELNS1_11args_amountE2ELb0EEEEEPT_
FNDA:1,_ZN5boost10shared_ptrINS_7runtime11basic_paramEEC2INS1_9parameterIjLNS1_11args_amountE0ELb0EEEEEPT_
FNDA:1,_ZN5boost10shared_ptrINS_7runtime11basic_paramEEC2INS1_9parameterImLNS1_11args_amountE0ELb0EEEEEPT_
FNDA:572,_ZN5boost10shared_ptrINS_7runtime3cla13rt_cla_detail14parameter_trieEEC2IS4_EEPT_
FNDA:1,_ZN5boost10shared_ptrINS_7runtime3cla6parserEEC2IS3_EEPT_
FNDA:1,_ZN5boost10shared_ptrINS_7runtime8argumentEEC2INS1_14typed_argumentINS_9unit_test12report_levelEEEEEPT_
FNDA:3,_ZN5boost10shared_ptrINS_7runtime8argumentEEC2INS1_14typed_argumentINS_9unit_test13output_formatEEEEEPT_
FNDA:1,_ZN5boost10shared_ptrINS_7runtime8argumentEEC2INS1_14typed_argumentINS_9unit_test9log_levelEEEEEPT_
FNDA:1,_ZN5boost10shared_ptrINS_7runtime8argumentEEC2INS1_14typed_argumentINSt7__cxx1112basic_stringIcSt11char_traitsIcESaIcEEEEEEEPT_
FNDA:2,_ZN5boost10shared_ptrINS_7runtime8argumentEEC2INS1_14typed_argumentISt6vectorINSt7__cxx1112basic_stringIcSt11char_traitsIcESaIcEEESaISC_EEEEEEPT_
FNDA:13,_ZN5boost10shared_ptrINS_7runtime8argumentEEC2INS1_14typed_argumentIbEEEEPT_
FNDA:1,_ZN5boost10shared_ptrINS_7runtime8argumentEEC2INS1_14typed_argumentIjEEEEPT_
FNDA:1,_ZN5boost10shared_ptrINS_7runtime8argumentEEC2INS1_14typed_argumentImEEEEPT_
FNDA:0,_ZN5boost10shared_ptrINS_9unit_test17test_unit_fixtureEEC2INS1_9framework4impl21global_fixture_handleEEEPT_
FNDA:3,_ZN5boost10shared_ptrINS_9unit_test23unit_test_log_formatterEEC2IS2_EEPT_
FNDA:0,_ZN5boost10shared_ptrINS_9unit_test9decorator4baseEEC2INS2_10depends_onEEEPT_
FNDA:0,_ZN5boost10shared_ptrINS_9unit_test9decorator4baseEEC2INS2_11descriptionEEEPT_
FNDA:0,_ZN5boost10shared_ptrINS_9unit_test9decorator4baseEEC2INS2_12preconditionEEEPT_
FNDA:0,_ZN5boost10shared_ptrINS_9unit_test9decorator4baseEEC2INS2_15stack_decoratorEEEPT_
FNDA:0,_ZN5boost10shared_ptrINS_9unit_test9decorator4baseEEC2INS2_17expected_failuresEEEPT_
FNDA:0,_ZN5boost10shared_ptrINS_9unit_test9decorator4baseEEC2INS2_5labelEEEPT_
FNDA:0,_ZN5boost10shared_ptrINS_9unit_test9decorator4baseEEC2INS2_7timeoutEEEPT_
FNDA:0,_ZN5boost10shared_ptrINS_9unit_test9decorator4baseEEC2INS2_9fixture_tEEEPT_
FNDA:0,_ZN5boost10shared_ptrINS_9unit_test14runtime_config13stream_holder16callback_cleanerEEC2IS4_NS_6detail14sp_inplace_tagINS7_13sp_ms_deleterIS4_EEEEEEPT_T0_
FNDA:0,_ZN5boost10shared_ptrINS_16exception_detail15error_info_baseEEC2ERKS3_
FNDA:1356,_ZN5boost10shared_ptrINS_7runtime11basic_paramEEC2ERKS3_
FNDA:749,_ZN5boost10shared_ptrINS_7runtime3cla13rt_cla_detail14parameter_trieEEC2ERKS5_
FNDA:245,_ZN5boost10shared_ptrINS_7runtime8argumentEEC2ERKS3_
FNDA:0,_ZN5boost10shared_ptrINS_9unit_test17test_unit_fixtureEEC2ERKS3_
FNDA:0,_ZN5boost10shared_ptrINS_9unit_test19test_unit_generatorEEC2ERKS3_
FNDA:0,_ZN5boost10shared_ptrINS_9unit_test9decorator4baseEEC2ERKS4_
FNDA:0,_ZN5boost10shared_ptrINS_9unit_test14runtime_config13stream_holder16callback_cleanerEEC2IS4_EERKNS0_IT_EEPS4_
FNDA:0,_ZN5boost10shared_ptrINS_16exception_detail15error_info_baseEEaSERKS3_
FNDA:569,_ZN5boost10shared_ptrINS_7runtime11basic_paramEEaSERKS3_
FNDA:3,_ZN5boost10shared_ptrINS_7runtime3cla13rt_cla_detail14parameter_trieEEaSERKS5_
FNDA:0,_ZN5boost10shared_ptrINS_9unit_test9decorator4baseEEaSERKS4_
FNDA:0,_ZN5boost10shared_ptrINS_16exception_detail15error_info_baseEEC2EOS3_
FNDA:0,_ZN5boost10shared_ptrINS_23basic_wrap_stringstreamIcEEEC2EOS3_
FNDA:6,_ZN5boost10shared_ptrINS_2io18ios_base_all_saverEEC2EOS3_
FNDA:28,_ZN5boost10shared_ptrINS_7runtime11basic_paramEEC2EOS3_
FNDA:1816,_ZN5boost10shared_ptrINS_7runtime3cla13rt_cla_detail14parameter_trieEEC2EOS5_
FNDA:23,_ZN5boost10shared_ptrINS_7runtime8argumentEEC2EOS3_
FNDA:0,_ZN5boost10shared_ptrINS_9unit_test14runtime_config13stream_holder16callback_cleanerEEC2EOS5_
FNDA:0,_ZN5boost10shared_ptrINS_9unit_test17test_unit_fixtureEEC2EOS3_
FNDA:0,_ZN5boost10shared_ptrINS_9unit_test19test_unit_generatorEEC2EOS3_
FNDA:6,_ZN5boost10shared_ptrINS_9unit_test23unit_test_log_formatterEEC2EOS3_
FNDA:0,_ZN5boost10shared_ptrINS_9unit_test9decorator4baseEEC2EOS4_
FNDA:0,_ZN5boost10shared_ptrINS_2io18ios_base_all_saverEEaSEOS3_
FNDA:678,_ZN5boost10shared_ptrINS_7runtime3cla13rt_cla_detail14parameter_trieEEaSEOS5_
FNDA:23,_ZN5boost10shared_ptrINS_7runtime8argumentEEaSEOS3_
FNDA:0,_ZN5boost10shared_ptrINS_9unit_test14runtime_config13stream_holder16callback_cleanerEEaSEOS5_
FNDA:0,_ZN5boost10shared_ptrINS_9unit_test17test_unit_fixtureEEaSEOS3_
FNDA:0,_ZN5boost10shared_ptrINS_9unit_test23unit_test_log_formatterEEaSEOS3_
FNDA:0,_ZN5boost10shared_ptrINS_9unit_test9decorator4baseEEaSEOS4_
FNDA:106,_ZN5boost10shared_ptrINS_7runtime11basic_paramEE5resetEv
FNDA:0,_ZN5boost10shared_ptrINS_7runtime3cla13rt_cla_detail14parameter_trieEE5resetEv
FNDA:1,_ZN5boost10shared_ptrINS_9unit_test14runtime_config13stream_holder16callback_cleanerEE5resetEv
FNDA:0,_ZN5boost10shared_ptrINS_23basic_wrap_stringstreamIcEEE5resetIS2_EEvPT_
FNDA:3,_ZN5boost10shared_ptrINS_2io18ios_base_all_saverEE5resetIS2_EEvPT_
FNDA:1,_ZN5boost10shared_ptrINS_7runtime3cla6parserEE5resetIS3_EEvPT_
FNDA:3,_ZN5boost10shared_ptrINS_9unit_test23unit_test_log_formatterEE5resetIS2_EEvPT_
FNDA:0,_ZNK5boost10shared_ptrINS_16exception_detail15error_info_baseEEdeEv
FNDA:0,_ZNK5boost10shared_ptrINS_23basic_wrap_stringstreamIcEEEdeEv
FNDA:0,_ZNK5boost10shared_ptrINS_6detail22translator_holder_baseEEdeEv
FNDA:245,_ZNK5boost10shared_ptrINS_7runtime8argumentEEdeEv
FNDA:0,_ZNK5boost10shared_ptrINS_16exception_detail15error_info_baseEEptEv
FNDA:0,_ZNK5boost10shared_ptrINS_23basic_wrap_stringstreamIcEEEptEv
FNDA:161,_ZNK5boost10shared_ptrINS_2io18ios_base_all_saverEEptEv
FNDA:866,_ZNK5boost10shared_ptrINS_7runtime11basic_paramEEptEv
FNDA:1350,_ZNK5boost10shared_ptrINS_7runtime3cla13rt_cla_detail14parameter_trieEEptEv
FNDA:1,_ZNK5boost10shared_ptrINS_7runtime3cla6parserEEptEv
FNDA:245,_ZNK5boost10shared_ptrINS_7runtime8argumentEEptEv
FNDA:0,_ZNK5boost10shared_ptrINS_9unit_test14runtime_config13stream_holder16callback_cleanerEEptEv
FNDA:0,_ZNK5boost10shared_ptrINS_9unit_test19test_unit_generatorEEptEv
FNDA:673,_ZNK5boost10shared_ptrINS_9unit_test23unit_test_log_formatterEEptEv
FNDA:0,_ZNK5boost10shared_ptrINS_9unit_test9decorator4baseEEptEv
FNDA:0,_ZNK5boost10shared_ptrINS_9unit_test17test_unit_fixtureEE3getEv
FNDA:0,_ZNK5boost10shared_ptrINS_9unit_test23unit_test_log_formatterEE3getEv
FNDA:0,_ZN5boost10shared_ptrINS_16exception_detail15error_info_baseEE4swapERS3_
FNDA:0,_ZN5boost10shared_ptrINS_23basic_wrap_stringstreamIcEEE4swapERS3_
FNDA:3,_ZN5boost10shared_ptrINS_2io18ios_base_all_saverEE4swapERS3_
FNDA:675,_ZN5boost10shared_ptrINS_7runtime11basic_paramEE4swapERS3_
FNDA:681,_ZN5boost10shared_ptrINS_7runtime3cla13rt_cla_detail14parameter_trieEE4swapERS5_
FNDA:1,_ZN5boost10shared_ptrINS_7runtime3cla6parserEE4swapERS4_
FNDA:23,_ZN5boost10shared_ptrINS_7runtime8argumentEE4swapERS3_
FNDA:1,_ZN5boost10shared_ptrINS_9unit_test14runtime_config13stream_holder16callback_cleanerEE4swapERS5_
FNDA:0,_ZN5boost10shared_ptrINS_9unit_test17test_unit_fixtureEE4swapERS3_
FNDA:3,_ZN5boost10shared_ptrINS_9unit_test23unit_test_log_formatterEE4swapERS3_
FNDA:0,_ZN5boost10shared_ptrINS_9unit_test9decorator4baseEE4swapERS4_
FNDA:0,_ZNK5boost10shared_ptrINS_9unit_test14runtime_config13stream_holder16callback_cleanerEE29_internal_get_untyped_deleterEv
FNF:146
FNH:79
DA:237,633
DA:239,633
DA:278,633
DA:280,633
DA:281,633
DA:282,633
DA:302,0
DA:304,0
DA:305,0
DA:347,927
DA:349,927
DA:372,633
DA:374,633
DA:375,633
DA:385,0
DA:387,0
DA:388,0
DA:459,2350
DA:461,2350
DA:501,0
DA:503,0
DA:584,572
DA:586,572
DA:587,572
DA:671,1879
DA:673,1879
DA:674,1879
DA:692,701
DA:694,701
DA:695,701
DA:725,107
DA:727,107
DA:728,107
DA:730,7
DA:732,7
DA:733,7
DA:734,7
DA:776,245
DA:778,245
DA:779,245
DA:782,3296
DA:784,3296
DA:785,3296
DA:796,0
DA:798,0
DA:814,1387
DA:816,1387
DA:817,1387
DA:818,1387
DA:855,0
DA:857,0
DA:1029,0
DA:1031,0
LF:53
LH:39
end_of_record
TN:
SF:/usr/include/boost/test/debug.hpp
FNF:0
FNH:0
LF:0
LH:0
end_of_record
TN:
SF:/usr/include/boost/test/detail/global_typedef.hpp
FN:68,71,_ZN5boost9unit_test9ut_detail19test_id_2_unit_typeEm
FN:75,79,_ZN5boost9unit_test9ut_detail20test_unit_id_restoreC2ERmm
FN:80,82,_ZN5boost9unit_test9ut_detail20test_unit_id_restoreD2Ev
FNDA:323,_ZN5boost9unit_test9ut_detail19test_id_2_unit_typeEm
FNDA:59,_ZN5boost9unit_test9ut_detail20test_unit_id_restoreC2ERmm
FNDA:59,_ZN5boost9unit_test9ut_detail20test_unit_id_restoreD2Ev
FNF:3
FNH:3
DA:68,323
DA:70,323
DA:75,59
DA:76,59
DA:77,59
DA:78,59
DA:79,59
DA:80,59
DA:81,59
DA:82,59
LF:10
LH:10
end_of_record
TN:
SF:/usr/include/boost/test/detail/throw_exception.hpp
FN:48,48,_ZN5boost9unit_test9ut_detail15throw_exceptionINS0_9framework11setup_errorEEEvRKT_
FN:48,48,_ZN5boost9unit_test9ut_detail15throw_exceptionINS0_9framework14internal_errorEEEvRKT_
FN:48,48,_ZN5boost9unit_test9ut_detail15throw_exceptionINS0_9framework15nothing_to_testEEEvRKT_
FN:48,48,_ZN5boost9unit_test9ut_detail15throw_exceptionINS_12system_errorEEEvRKT_
FN:48,48,_ZN5boost9unit_test9ut_detail15throw_exceptionINS_17execution_abortedEEEvRKT_
FN:48,48,_ZN5boost9unit_test9ut_detail15throw_exceptionINS_19execution_exceptionEEEvRKT_
FN:48,48,_ZN5boost9unit_test9ut_detail15throw_exceptionINS_3nfp10nfp_detail27access_to_invalid_parameterEEEvRKT_
FN:48,48,_ZN5boost9unit_test9ut_detail15throw_exceptionINS_6detail23system_signal_exceptionEEEvRKT_
FN:48,48,_ZN5boost9unit_test9ut_detail15throw_exceptionINS_7runtime12format_errorEEEvRKT_
FN:48,48,_ZN5boost9unit_test9ut_detail15throw_exceptionINS_7runtime13duplicate_argEEEvRKT_
FN:48,48,_ZN5boost9unit_test9ut_detail15throw_exceptionINS_7runtime14invalid_cla_idEEEvRKT_
FN:48,48,_ZN5boost9unit_test9ut_detail15throw_exceptionINS_7runtime15ambiguous_paramEEEvRKT_
FN:48,48,_ZN5boost9unit_test9ut_detail15throw_exceptionINS_7runtime15duplicate_paramEEEvRKT_
FN:48,48,_ZN5boost9unit_test9ut_detail15throw_exceptionINS_7runtime15missing_req_argEEEvRKT_
FN:48,48,_ZN5boost9unit_test9ut_detail15throw_exceptionINS_7runtime17arg_type_mismatchEEEvRKT_
FN:48,48,_ZN5boost9unit_test9ut_detail15throw_exceptionINS_7runtime17conflicting_paramEEEvRKT_
FN:48,48,_ZN5boost9unit_test9ut_detail15throw_exceptionINS_7runtime18invalid_param_specEEEvRKT_
FN:48,48,_ZN5boost9unit_test9ut_detail15throw_exceptionINS_7runtime18unrecognized_paramEEEvRKT_
FN:48,48,_ZN5boost9unit_test9ut_detail15throw_exceptionINS_7runtime26access_to_missing_argumentEEEvRKT_
FNDA:0,_ZN5boost9unit_test9ut_detail15throw_exceptionINS0_9framework11setup_errorEEEvRKT_
FNDA:0,_ZN5boost9unit_test9ut_detail15throw_exceptionINS0_9framework14internal_errorEEEvRKT_
FNDA:0,_ZN5boost9unit_test9ut_detail15throw_exceptionINS0_9framework15nothing_to_testEEEvRKT_
FNDA:0,_ZN5boost9unit_test9ut_detail15throw_exceptionINS_12system_errorEEEvRKT_
FNDA:0,_ZN5boost9unit_test9ut_detail15throw_exceptionINS_17execution_abortedEEEvRKT_
FNDA:0,_ZN5boost9unit_test9ut_detail15throw_exceptionINS_19execution_exceptionEEEvRKT_
FNDA:0,_ZN5boost9unit_test9ut_detail15throw_exceptionINS_3nfp10nfp_detail27access_to_invalid_parameterEEEvRKT_
FNDA:0,_ZN5boost9unit_test9ut_detail15throw_exceptionINS_6detail23system_signal_exceptionEEEvRKT_
FNDA:0,_ZN5boost9unit_test9ut_detail15throw_exceptionINS_7runtime12format_errorEEEvRKT_
FNDA:0,_ZN5boost9unit_test9ut_detail15throw_exceptionINS_7runtime13duplicate_argEEEvRKT_
FNDA:0,_ZN5boost9unit_test9ut_detail15throw_exceptionINS_7runtime14invalid_cla_idEEEvRKT_
FNDA:0,_ZN5boost9unit_test9ut_detail15throw_exceptionINS_7runtime15ambiguous_paramEEEvRKT_
FNDA:0,_ZN5boost9unit_test9ut_detail15throw_exceptionINS_7runtime15duplicate_paramEEEvRKT_
FNDA:0,_ZN5boost9unit_test9ut_detail15throw_exceptionINS_7runtime15missing_req_argEEEvRKT_
FNDA:0,_ZN5boost9unit_test9ut_detail15throw_exceptionINS_7runtime17arg_type_mismatchEEEvRKT_
FNDA:0,_ZN5boost9unit_test9ut_detail15throw_exceptionINS_7runtime17conflicting_paramEEEvRKT_
FNDA:0,_ZN5boost9unit_test9ut_detail15throw_exceptionINS_7runtime18invalid_param_specEEEvRKT_
FNDA:0,_ZN5boost9unit_test9ut_detail15throw_exceptionINS_7runtime18unrecognized_paramEEEvRKT_
FNDA:0,_ZN5boost9unit_test9ut_detail15throw_exceptionINS_7runtime26access_to_missing_argumentEEEvRKT_
FNF:19
FNH:0
DA:48,0
LF:1
LH:0
end_of_record
TN:
SF:/usr/include/boost/test/execution_monitor.hpp
FN:293,293,_ZNK5boost19execution_exception4codeEv
FN:295,295,_ZNK5boost19execution_exception4whatEv
FN:297,297,_ZNK5boost19execution_exception5whereEv
FNDA:0,_ZNK5boost19execution_exception4codeEv
FNDA:0,_ZNK5boost19execution_exception4whatEv
FNDA:0,_ZNK5boost19execution_exception5whereEv
FNF:3
FNH:0
DA:293,0
DA:295,0
DA:297,0
LF:3
LH:0
end_of_record
TN:
SF:/usr/include/boost/test/framework.hpp
FN:159,159,_ZN5boost9unit_test9framework17context_generatorC2Ev
FN:228,231,_ZN5boost9unit_test9framework3getINS0_10test_suiteEEERT_m
FN:228,231,_ZN5boost9unit_test9framework3getINS0_9test_caseEEERT_m
FN:228,231,_ZN5boost9unit_test9framework3getINS0_9test_unitEEERT_m
FN:279,279,_ZN5boost9unit_test9framework14internal_errorC2ENS0_13basic_cstringIKcEE
FN:286,286,_ZN5boost9unit_test9framework11setup_errorC2ENS0_13basic_cstringIKcEE
FN:294,294,_ZN5boost9unit_test9framework15nothing_to_testC2Ei
FNDA:0,_ZN5boost9unit_test9framework17context_generatorC2Ev
FNDA:4,_ZN5boost9unit_test9framework3getINS0_10test_suiteEEERT_m
FNDA:265,_ZN5boost9unit_test9framework3getINS0_9test_caseEEERT_m
FNDA:1,_ZN5boost9unit_test9framework3getINS0_9test_unitEEERT_m
FNDA:0,_ZN5boost9unit_test9framework14internal_errorC2ENS0_13basic_cstringIKcEE
FNDA:0,_ZN5boost9unit_test9framework11setup_errorC2ENS0_13basic_cstringIKcEE
FNDA:0,_ZN5boost9unit_test9framework15nothing_to_testC2Ei
FNF:7
FNH:3
DA:159,0
DA:228,270
DA:230,270
DA:279,0
DA:286,0
DA:294,0
LF:6
LH:2
end_of_record
TN:
SF:/usr/include/boost/test/impl/compiler_log_formatter.ipp
FN:108,125,_ZN5boost9unit_test6output22compiler_log_formatter16test_unit_finishERSoRKNS0_9test_unitEm
FN:130,137,_ZN5boost9unit_test6output22compiler_log_formatter17test_unit_skippedERSoRKNS0_9test_unitENS0_13basic_cstringIKcEE
FN:142,165,_ZN5boost9unit_test6output22compiler_log_formatter19log_exception_startERSoRKNS0_19log_checkpoint_dataERKNS_19execution_exceptionE
FN:170,173,_ZN5boost9unit_test6output22compiler_log_formatter20log_exception_finishERSo
FN:178,207,_ZN5boost9unit_test6output22compiler_log_formatter15log_entry_startERSoRKNS0_14log_entry_dataENS0_23unit_test_log_formatter15log_entry_typesE
FN:212,215,_ZN5boost9unit_test6output22compiler_log_formatter15log_entry_valueERSoNS0_13basic_cstringIKcEE
FN:220,223,_ZN5boost9unit_test6output22compiler_log_formatter15log_entry_valueERSoRKNS0_12lazy_ostreamE
FN:228,234,_ZN5boost9unit_test6output22compiler_log_formatter16log_entry_finishERSo
FN:240,251,_ZN5boost9unit_test6output22compiler_log_formatter12print_prefixERSoNS0_13basic_cstringIKcEEm
FN:256,264,_ZN5boost9unit_test6output22compiler_log_formatter19entry_context_startERSoNS0_9log_levelE
FN:269,275,_ZN5boost9unit_test6output22compiler_log_formatter20entry_context_finishERSoNS0_9log_levelE
FN:280,283,_ZN5boost9unit_test6output22compiler_log_formatter17log_entry_contextERSoNS0_9log_levelENS0_13basic_cstringIKcEE
FN:51,54,_ZN5boost9unit_test6output12_GLOBAL__N_121test_phase_identifierEv
FN:61,68,_ZN5boost9unit_test6output22compiler_log_formatter9log_startERSom
FN:73,76,_ZN5boost9unit_test6output22compiler_log_formatter10log_finishERSo
FN:81,91,_ZN5boost9unit_test6output22compiler_log_formatter14log_build_infoERSob
FN:96,103,_ZN5boost9unit_test6output22compiler_log_formatter15test_unit_startERSoRKNS0_9test_unitE
FNDA:0,_ZN5boost9unit_test6output22compiler_log_formatter16test_unit_finishERSoRKNS0_9test_unitEm
FNDA:0,_ZN5boost9unit_test6output22compiler_log_formatter17test_unit_skippedERSoRKNS0_9test_unitENS0_13basic_cstringIKcEE
FNDA:0,_ZN5boost9unit_test6output22compiler_log_formatter19log_exception_startERSoRKNS0_19log_checkpoint_dataERKNS_19execution_exceptionE
FNDA:0,_ZN5boost9unit_test6output22compiler_log_formatter20log_exception_finishERSo
FNDA:0,_ZN5boost9unit_test6output22compiler_log_formatter15log_entry_startERSoRKNS0_14log_entry_dataENS0_23unit_test_log_formatter15log_entry_typesE
FNDA:0,_ZN5boost9unit_test6output22compiler_log_formatter15log_entry_valueERSoNS0_13basic_cstringIKcEE
FNDA:0,_ZN5boost9unit_test6output22compiler_log_formatter15log_entry_valueERSoRKNS0_12lazy_ostreamE
FNDA:0,_ZN5boost9unit_test6output22compiler_log_formatter16log_entry_finishERSo
FNDA:0,_ZN5boost9unit_test6output22compiler_log_formatter12print_prefixERSoNS0_13basic_cstringIKcEEm
FNDA:0,_ZN5boost9unit_test6output22compiler_log_formatter19entry_context_startERSoNS0_9log_levelE
FNDA:0,_ZN5boost9unit_test6output22compiler_log_formatter20entry_context_finishERSoNS0_9log_levelE
FNDA:0,_ZN5boost9unit_test6output22compiler_log_formatter17log_entry_contextERSoNS0_9log_levelENS0_13basic_cstringIKcEE
FNDA:0,_ZN5boost9unit_test6output12_GLOBAL__N_121test_phase_identifierEv
FNDA:1,_ZN5boost9unit_test6output22compiler_log_formatter9log_startERSom
FNDA:1,_ZN5boost9unit_test6output22compiler_log_formatter10log_finishERSo
FNDA:1,_ZN5boost9unit_test6output22compiler_log_formatter14log_build_infoERSob
FNDA:0,_ZN5boost9unit_test6output22compiler_log_formatter15test_unit_startERSoRKNS0_9test_unitE
FNF:17
FNH:3
DA:51,0
DA:53,0
DA:61,1
DA:63,1
DA:65,1
DA:66,1
DA:67,1
DA:68,1
DA:73,1
DA:75,1
DA:76,1
DA:81,1
DA:83,1
DA:87,0
DA:88,0
DA:89,0
DA:91,1
DA:96,0
DA:98,0
DA:100,0
DA:102,0
DA:103,0
DA:108,0
DA:110,0
DA:112,0
DA:114,0
DA:116,0
DA:117,0
DA:118,0
DA:119,0
DA:121,0
DA:124,0
DA:125,0
DA:130,0
DA:132,0
DA:134,0
DA:136,0
DA:137,0
DA:142,0
DA:144,0
DA:146,0
DA:149,0
DA:151,0
DA:152,0
DA:153,0
DA:155,0
DA:156,0
DA:157,0
DA:159,0
DA:161,0
DA:162,0
DA:163,0
DA:164,0
DA:165,0
DA:170,0
DA:172,0
DA:173,0
DA:178,0
DA:182,0
DA:183,0
DA:184,0
DA:185,0
DA:186,0
DA:187,0
DA:188,0
DA:189,0
DA:190,0
DA:191,0
DA:192,0
DA:193,0
DA:194,0
DA:195,0
DA:196,0
DA:197,0
DA:198,0
DA:199,0
DA:200,0
DA:201,0
DA:202,0
DA:203,0
DA:204,0
DA:205,0
DA:207,0
DA:212,0
DA:214,0
DA:215,0
DA:220,0
DA:222,0
DA:223,0
DA:228,0
DA:230,0
DA:231,0
DA:233,0
DA:234,0
DA:240,0
DA:242,0
DA:248,0
DA:251,0
DA:256,0
DA:258,0
DA:259,0
DA:262,0
DA:264,0
DA:269,0
DA:271,0
DA:272,0
DA:274,0
DA:275,0
DA:280,0
DA:282,0
DA:283,0
LF:111
LH:12
end_of_record
TN:
SF:/usr/include/boost/test/impl/debug.ipp
FN:1034,1043,_ZN5boost5debug18break_memory_allocEl
FN:182,182,_ZN5boost5debug12_GLOBAL__N_19fd_holderC2Ei
FN:183,187,_ZN5boost5debug12_GLOBAL__N_19fd_holderD2Ev
FN:189,189,_ZN5boost5debug12_GLOBAL__N_19fd_holdercviEv
FN:206,206,_ZNK5boost5debug12_GLOBAL__N_112process_info10parent_pidEv
FN:207,207,_ZNK5boost5debug12_GLOBAL__N_112process_info11binary_nameEv
FN:208,208,_ZNK5boost5debug12_GLOBAL__N_112process_info11binary_pathEv
FN:227,303,_ZN5boost5debug12_GLOBAL__N_112process_infoC2Ei
FN:312,331,_ZN5boost5debug12_GLOBAL__N_1L20prepare_window_titleERKNS0_16dbg_startup_infoE
FN:342,354,_ZN5boost5debug12_GLOBAL__N_18copy_argERNS_9unit_test13basic_cstringIcEENS3_IKcEE
FN:359,398,_ZN5boost5debug12_GLOBAL__N_111safe_execlpEPKcz
FN:407,417,_ZN5boost5debug12_GLOBAL__N_1L23start_debugger_in_emacsERKNS0_16dbg_startup_infoEPKcS6_
FN:426,463,_ZN5boost5debug12_GLOBAL__N_1L21prepare_gdb_cmnd_fileERKNS0_16dbg_startup_infoE
FN:468,476,_ZN5boost5debug12_GLOBAL__N_1L20start_gdb_in_consoleERKNS0_16dbg_startup_infoE
FN:481,492,_ZN5boost5debug12_GLOBAL__N_1L18start_gdb_in_xtermERKNS0_16dbg_startup_infoE
FN:497,507,_ZN5boost5debug12_GLOBAL__N_1L18start_gdb_in_emacsERKNS0_16dbg_startup_infoE
FN:512,515,_ZN5boost5debug12_GLOBAL__N_1L19start_gdb_in_xemacsERKNS0_16dbg_startup_infoE
FN:524,534,_ZN5boost5debug12_GLOBAL__N_1L20prepare_dbx_cmd_lineERKNS0_16dbg_startup_infoEb
FN:539,545,_ZN5boost5debug12_GLOBAL__N_1L20start_dbx_in_consoleERKNS0_16dbg_startup_infoE
FN:550,562,_ZN5boost5debug12_GLOBAL__N_1L18start_dbx_in_xtermERKNS0_16dbg_startup_infoE
FN:567,574,_ZN5boost5debug12_GLOBAL__N_1L18start_dbx_in_emacsERKNS0_16dbg_startup_infoE
FN:579,582,_ZN5boost5debug12_GLOBAL__N_1L19start_dbx_in_xemacsERKNS0_16dbg_startup_infoE
FN:587,598,_ZN5boost5debug12_GLOBAL__N_1L16start_dbx_in_dddERKNS0_16dbg_startup_infoE
FN:619,635,_ZN5boost5debug12_GLOBAL__N_16info_tC2Ev
FN:648,706,_ZN5boost5debug14under_debuggerEv
FN:716,758,_ZN5boost5debug14debugger_breakEv
FN:769,779,_ZN5boost5debug12set_debuggerB5cxx11ENS_9unit_test13basic_cstringIKcEENS_8functionIFvRKNS0_16dbg_startup_infoEEEE
FN:821,989,_ZN5boost5debug15attach_debuggerEb
FN:998,1024,_ZN5boost5debug19detect_memory_leaksEbNS_9unit_test13basic_cstringIKcEE
FNDA:1,_ZN5boost5debug18break_memory_allocEl
FNDA:285,_ZN5boost5debug12_GLOBAL__N_19fd_holderC2Ei
FNDA:285,_ZN5boost5debug12_GLOBAL__N_19fd_holderD2Ev
FNDA:570,_ZN5boost5debug12_GLOBAL__N_19fd_holdercviEv
FNDA:570,_ZNK5boost5debug12_GLOBAL__N_112process_info10parent_pidEv
FNDA:285,_ZNK5boost5debug12_GLOBAL__N_112process_info11binary_nameEv
FNDA:0,_ZNK5boost5debug12_GLOBAL__N_112process_info11binary_pathEv
FNDA:285,_ZN5boost5debug12_GLOBAL__N_112process_infoC2Ei
FNDA:0,_ZN5boost5debug12_GLOBAL__N_1L20prepare_window_titleERKNS0_16dbg_startup_infoE
FNDA:0,_ZN5boost5debug12_GLOBAL__N_18copy_argERNS_9unit_test13basic_cstringIcEENS3_IKcEE
FNDA:0,_ZN5boost5debug12_GLOBAL__N_111safe_execlpEPKcz
FNDA:0,_ZN5boost5debug12_GLOBAL__N_1L23start_debugger_in_emacsERKNS0_16dbg_startup_infoEPKcS6_
FNDA:0,_ZN5boost5debug12_GLOBAL__N_1L21prepare_gdb_cmnd_fileERKNS0_16dbg_startup_infoE
FNDA:0,_ZN5boost5debug12_GLOBAL__N_1L20start_gdb_in_consoleERKNS0_16dbg_startup_infoE
FNDA:0,_ZN5boost5debug12_GLOBAL__N_1L18start_gdb_in_xtermERKNS0_16dbg_startup_infoE
FNDA:0,_ZN5boost5debug12_GLOBAL__N_1L18start_gdb_in_emacsERKNS0_16dbg_startup_infoE
FNDA:0,_ZN5boost5debug12_GLOBAL__N_1L19start_gdb_in_xemacsERKNS0_16dbg_startup_infoE
FNDA:0,_ZN5boost5debug12_GLOBAL__N_1L20prepare_dbx_cmd_lineERKNS0_16dbg_startup_infoEb
FNDA:0,_ZN5boost5debug12_GLOBAL__N_1L20start_dbx_in_consoleERKNS0_16dbg_startup_infoE
FNDA:0,_ZN5boost5debug12_GLOBAL__N_1L18start_dbx_in_xtermERKNS0_16dbg_startup_infoE
FNDA:0,_ZN5boost5debug12_GLOBAL__N_1L18start_dbx_in_emacsERKNS0_16dbg_startup_infoE
FNDA:0,_ZN5boost5debug12_GLOBAL__N_1L19start_dbx_in_xemacsERKNS0_16dbg_startup_infoE
FNDA:0,_ZN5boost5debug12_GLOBAL__N_1L16start_dbx_in_dddERKNS0_16dbg_startup_infoE
FNDA:1,_ZN5boost5debug12_GLOBAL__N_16info_tC2Ev
FNDA:57,_ZN5boost5debug14under_debuggerEv
FNDA:0,_ZN5boost5debug14debugger_breakEv
FNDA:0,_ZN5boost5debug12set_debuggerB5cxx11ENS_9unit_test13basic_cstringIKcEENS_8functionIFvRKNS0_16dbg_startup_infoEEEE
FNDA:0,_ZN5boost5debug15attach_debuggerEb
FNDA:1,_ZN5boost5debug19detect_memory_leaksEbNS_9unit_test13basic_cstringIKcEE
FNF:29
FNH:10
DA:182,285
DA:183,285
DA:185,285
DA:186,285
DA:187,285
DA:189,570
DA:206,570
DA:207,285
DA:208,0
DA:227,285
DA:228,285
DA:267,285
DA:269,285
DA:271,285
DA:272,0
DA:274,285
DA:275,285
DA:276,0
DA:278,285
DA:280,285
DA:281,1995
DA:282,1710
DA:284,285
DA:285,2394
DA:286,2109
DA:288,285
DA:290,285
DA:292,285
DA:293,285
DA:295,285
DA:296,114
DA:298,171
DA:299,171
DA:303,285
DA:312,0
DA:318,0
DA:320,0
DA:323,0
DA:324,0
DA:326,0
DA:328,0
DA:330,0
DA:342,0
DA:344,0
DA:345,0
DA:347,0
DA:349,0
DA:351,0
DA:353,0
DA:359,0
DA:367,0
DA:369,0
DA:370,0
DA:371,0
DA:372,0
DA:375,0
DA:376,0
DA:377,0
DA:380,0
DA:381,0
DA:383,0
DA:385,0
DA:386,0
DA:387,0
DA:388,0
DA:389,0
DA:390,0
DA:393,0
DA:395,0
DA:397,0
DA:407,0
DA:409,0
DA:411,0
DA:412,0
DA:414,0
DA:415,0
DA:416,0
DA:426,0
DA:430,0
DA:431,0
DA:436,0
DA:437,0
DA:438,0
DA:440,0
DA:441,0
DA:446,0
DA:447,0
DA:448,0
DA:449,0
DA:450,0
DA:451,0
DA:452,0
DA:453,0
DA:454,0
DA:456,0
DA:457,0
DA:458,0
DA:459,0
DA:460,0
DA:462,0
DA:463,0
DA:468,0
DA:470,0
DA:472,0
DA:473,0
DA:475,0
DA:481,0
DA:483,0
DA:484,0
DA:486,0
DA:487,0
DA:489,0
DA:497,0
DA:499,0
DA:500,0
DA:501,0
DA:504,0
DA:506,0
DA:512,0
DA:515,0
DA:524,0
DA:528,0
DA:530,0
DA:533,0
DA:539,0
DA:542,0
DA:544,0
DA:545,0
DA:550,0
DA:552,0
DA:553,0
DA:554,0
DA:557,0
DA:559,0
DA:567,0
DA:574,0
DA:579,0
DA:582,0
DA:587,0
DA:589,0
DA:590,0
DA:591,0
DA:594,0
DA:596,0
DA:619,1
DA:621,1
DA:622,3
DA:623,1
DA:625,2
DA:626,2
DA:627,2
DA:628,2
DA:630,2
DA:631,2
DA:632,2
DA:633,2
DA:634,2
DA:635,1
DA:648,57
DA:657,57
DA:659,57
DA:661,342
DA:662,285
DA:665,285
DA:666,0
DA:668,285
DA:671,57
DA:716,0
DA:753,0
DA:758,0
DA:769,0
DA:771,0
DA:773,0
DA:775,0
DA:776,0
DA:778,0
DA:779,0
DA:821,0
DA:823,0
DA:824,0
DA:933,0
DA:934,0
DA:935,0
DA:936,0
DA:938,0
DA:939,0
DA:941,0
DA:943,0
DA:944,0
DA:946,0
DA:947,0
DA:949,0
DA:950,0
DA:951,0
DA:953,0
DA:954,0
DA:955,0
DA:956,0
DA:957,0
DA:959,0
DA:960,0
DA:961,0
DA:963,0
DA:965,0
DA:966,0
DA:970,0
DA:971,0
DA:973,0
DA:979,0
DA:980,0
DA:982,0
DA:989,0
DA:998,1
DA:1024,1
DA:1034,1
DA:1043,1
LF:216
LH:57
end_of_record
TN:
SF:/usr/include/boost/test/impl/decorator.ipp
FN:106,111,_ZNK5boost9unit_test9decorator15stack_decoratordeEv
FN:114,117,_ZN5boost9unit_test9decorator15stack_decorator5applyERNS0_9test_unitE
FN:124,127,_ZN5boost9unit_test9decorator5label5applyERNS0_9test_unitE
FN:136,139,_ZN5boost9unit_test9decorator17expected_failures5applyERNS0_9test_unitE
FN:148,151,_ZN5boost9unit_test9decorator7timeout5applyERNS0_9test_unitE
FN:160,163,_ZN5boost9unit_test9decorator11description5applyERNS0_9test_unitE
FN:172,194,_ZN5boost9unit_test9decorator10depends_on5applyERNS0_9test_unitE
FN:203,210,_ZN5boost9unit_test9decorator14enable_if_impl10apply_implERNS0_9test_unitEb
FN:219,222,_ZN5boost9unit_test9decorator9fixture_t5applyERNS0_9test_unitE
FN:231,234,_ZN5boost9unit_test9decorator12precondition5applyERNS0_9test_unitE
FN:38,38,_ZN5boost9unit_test9decorator11collector_t8instanceEv
FN:42,47,_ZN5boost9unit_test9decorator11collector_tmlERKNS1_4baseE
FN:52,58,_ZN5boost9unit_test9decorator11collector_t8store_inERNS0_9test_unitE
FN:63,72,_ZN5boost9unit_test9decorator11collector_t5resetEv
FN:75,79,_ZN5boost9unit_test9decorator11collector_t5stackEv
FN:84,87,_ZNK5boost9unit_test9decorator11collector_t19get_lazy_decoratorsEv
FN:96,99,_ZNK5boost9unit_test9decorator4basedeEv
FNDA:0,_ZNK5boost9unit_test9decorator15stack_decoratordeEv
FNDA:0,_ZN5boost9unit_test9decorator15stack_decorator5applyERNS0_9test_unitE
FNDA:0,_ZN5boost9unit_test9decorator5label5applyERNS0_9test_unitE
FNDA:0,_ZN5boost9unit_test9decorator17expected_failures5applyERNS0_9test_unitE
FNDA:0,_ZN5boost9unit_test9decorator7timeout5applyERNS0_9test_unitE
FNDA:0,_ZN5boost9unit_test9decorator11description5applyERNS0_9test_unitE
FNDA:0,_ZN5boost9unit_test9decorator10depends_on5applyERNS0_9test_unitE
FNDA:0,_ZN5boost9unit_test9decorator14enable_if_impl10apply_implERNS0_9test_unitEb
FNDA:0,_ZN5boost9unit_test9decorator9fixture_t5applyERNS0_9test_unitE
FNDA:0,_ZN5boost9unit_test9decorator12precondition5applyERNS0_9test_unitE
FNDA:53,_ZN5boost9unit_test9decorator11collector_t8instanceEv
FNDA:0,_ZN5boost9unit_test9decorator11collector_tmlERKNS1_4baseE
FNDA:53,_ZN5boost9unit_test9decorator11collector_t8store_inERNS0_9test_unitE
FNDA:53,_ZN5boost9unit_test9decorator11collector_t5resetEv
FNDA:0,_ZN5boost9unit_test9decorator11collector_t5stackEv
FNDA:0,_ZNK5boost9unit_test9decorator11collector_t19get_lazy_decoratorsEv
FNDA:0,_ZNK5boost9unit_test9decorator4basedeEv
FNF:17
FNH:3
DA:38,53
DA:42,0
DA:44,0
DA:46,0
DA:52,53
DA:54,159
DA:55,53
DA:56,53
DA:57,53
DA:58,53
DA:63,53
DA:65,53
DA:66,0
DA:69,53
DA:70,53
DA:72,53
DA:75,0
DA:77,0
DA:78,0
DA:79,0
DA:84,0
DA:86,0
DA:96,0
DA:98,0
DA:106,0
DA:108,0
DA:109,0
DA:110,0
DA:114,0
DA:117,0
DA:124,0
DA:126,0
DA:127,0
DA:136,0
DA:138,0
DA:139,0
DA:148,0
DA:150,0
DA:151,0
DA:160,0
DA:162,0
DA:163,0
DA:172,0
DA:177,0
DA:179,0
DA:180,0
DA:181,0
DA:183,0
DA:185,0
DA:188,0
DA:189,0
DA:192,0
DA:194,0
DA:203,0
DA:205,0
DA:209,0
DA:210,0
DA:219,0
DA:221,0
DA:222,0
DA:231,0
DA:233,0
DA:234,0
LF:63
LH:12
end_of_record
TN:
SF:/usr/include/boost/test/impl/execution_monitor.ipp
FN:1288,1294,_ZN5boost17execution_monitorC2Ev
FN:1299,1386,_ZN5boost17execution_monitor7executeERKNS_8functionIFivEEE
FN:1393,1393,_ZN5boost6detail7forwardC2ERKNS_8functionIFvvEEE
FN:1395,1395,_ZN5boost6detail7forwardclEv
FN:1402,1405,_ZN5boost17execution_monitor8vexecuteERKNS_8functionIFvvEEE
FN:1411,1418,_ZN5boost12system_errorC2EPKc
FN:1426,1430,_ZN5boost19execution_exceptionC2ENS0_10error_codeENS_9unit_test13basic_cstringIKcEERKNS0_8locationE
FN:1434,1438,_ZN5boost19execution_exception8locationC2EPKcmS3_
FN:1440,1444,_ZN5boost19execution_exception8locationC2ENS_9unit_test13basic_cstringIKcEEmPS4_
FN:1455,1487,_ZN5boost3fpe6enableEj
FN:1492,1523,_ZN5boost3fpe7disableEj
FN:247,255,_ZN5boost6detail7extractINS_10error_infoINS_11throw_file_EPKcEEEENT_10value_typeEPKNS_9exceptionE
FN:247,255,_ZN5boost6detail7extractINS_10error_infoINS_11throw_line_EiEEEENT_10value_typeEPKNS_9exceptionE
FN:247,255,_ZN5boost6detail7extractINS_10error_infoINS_15throw_function_EPKcEEEENT_10value_typeEPKNS_9exceptionE
FN:261,274,_ZN5boost6detailL12report_errorENS_19execution_exception10error_codeEPKNS_9exceptionEPKcPA1_13__va_list_tag
FN:280,286,_ZN5boost6detailL12report_errorENS_19execution_exception10error_codeEPKNS_9exceptionEPKcz
FN:294,300,_ZN5boost6detailL12report_errorENS_19execution_exception10error_codeEPKcz
FN:306,309,_ZN5boost6detail9do_invokeINS_10shared_ptrINS0_22translator_holder_baseEEENS_8functionIFivEEEEEiRKT_RKT0_
FN:314,321,_ZN5boost6detail16fpe_except_guardC2Ej
FN:322,328,_ZN5boost6detail16fpe_except_guardD2Ev
FN:342,345,_ZN5boost6detail11typeid_nameISt10bad_typeidEENSt7__cxx1112basic_stringIcSt11char_traitsIcESaIcEEERKT_
FN:342,345,_ZN5boost6detail11typeid_nameISt11logic_errorEENSt7__cxx1112basic_stringIcSt11char_traitsIcESaIcEEERKT_
FN:342,345,_ZN5boost6detail11typeid_nameISt11range_errorEENSt7__cxx1112basic_stringIcSt11char_traitsIcESaIcEEERKT_
FN:342,345,_ZN5boost6detail11typeid_nameISt12domain_errorEENSt7__cxx1112basic_stringIcSt11char_traitsIcESaIcEEERKT_
FN:342,345,_ZN5boost6detail11typeid_nameISt12length_errorEENSt7__cxx1112basic_stringIcSt11char_traitsIcESaIcEEERKT_
FN:342,345,_ZN5boost6detail11typeid_nameISt12out_of_rangeEENSt7__cxx1112basic_stringIcSt11char_traitsIcESaIcEEERKT_
FN:342,345,_ZN5boost6detail11typeid_nameISt13bad_exceptionEENSt7__cxx1112basic_stringIcSt11char_traitsIcESaIcEEERKT_
FN:342,345,_ZN5boost6detail11typeid_nameISt13runtime_errorEENSt7__cxx1112basic_stringIcSt11char_traitsIcESaIcEEERKT_
FN:342,345,_ZN5boost6detail11typeid_nameISt14overflow_errorEENSt7__cxx1112basic_stringIcSt11char_traitsIcESaIcEEERKT_
FN:342,345,_ZN5boost6detail11typeid_nameISt15underflow_errorEENSt7__cxx1112basic_stringIcSt11char_traitsIcESaIcEEERKT_
FN:342,345,_ZN5boost6detail11typeid_nameISt16invalid_argumentEENSt7__cxx1112basic_stringIcSt11char_traitsIcESaIcEEERKT_
FN:342,345,_ZN5boost6detail11typeid_nameISt8bad_castEENSt7__cxx1112basic_stringIcSt11char_traitsIcESaIcEEERKT_
FN:342,345,_ZN5boost6detail11typeid_nameISt9bad_allocEENSt7__cxx1112basic_stringIcSt11char_traitsIcESaIcEEERKT_
FN:342,345,_ZN5boost6detail11typeid_nameISt9exceptionEENSt7__cxx1112basic_stringIcSt11char_traitsIcESaIcEEERKT_
FN:365,368,_ZN5boost6detail23system_signal_exceptionC2Ev
FN:371,375,_ZN5boost6detail23system_signal_exceptionclEP9siginfo_tPv
FN:387,643,_ZNK5boost6detail23system_signal_exception6reportEv
FN:675,677,_ZN5boost6detail13signal_actionC2Ev
FN:681,708,_ZN5boost6detail13signal_actionC2EibbPc
FN:712,716,_ZN5boost6detail13signal_actionD2Ev
FN:737,742,_ZN5boost6detail14signal_handler11jump_bufferEv
FN:744,749,_ZN5boost6detail14signal_handler7sys_sigEv
FN:778,817,_ZN5boost6detail14signal_handlerC2EbbmbPc
FN:821,849,_ZN5boost6detail14signal_handlerD2Ev
FN:859,864,boost_execution_monitor_jumping_signal_handler
FN:868,875,boost_execution_monitor_attaching_signal_handler
FN:888,913,_ZN5boost17execution_monitor13catch_signalsERKNS_8functionIFivEEE
FNDA:2,_ZN5boost17execution_monitorC2Ev
FNDA:57,_ZN5boost17execution_monitor7executeERKNS_8functionIFivEEE
FNDA:57,_ZN5boost6detail7forwardC2ERKNS_8functionIFvvEEE
FNDA:57,_ZN5boost6detail7forwardclEv
FNDA:57,_ZN5boost17execution_monitor8vexecuteERKNS_8functionIFvvEEE
FNDA:0,_ZN5boost12system_errorC2EPKc
FNDA:0,_ZN5boost19execution_exceptionC2ENS0_10error_codeENS_9unit_test13basic_cstringIKcEERKNS0_8locationE
FNDA:0,_ZN5boost19execution_exception8locationC2EPKcmS3_
FNDA:0,_ZN5boost19execution_exception8locationC2ENS_9unit_test13basic_cstringIKcEEmPS4_
FNDA:57,_ZN5boost3fpe6enableEj
FNDA:57,_ZN5boost3fpe7disableEj
FNDA:0,_ZN5boost6detail7extractINS_10error_infoINS_11throw_file_EPKcEEEENT_10value_typeEPKNS_9exceptionE
FNDA:0,_ZN5boost6detail7extractINS_10error_infoINS_11throw_line_EiEEEENT_10value_typeEPKNS_9exceptionE
FNDA:0,_ZN5boost6detail7extractINS_10error_infoINS_15throw_function_EPKcEEEENT_10value_typeEPKNS_9exceptionE
FNDA:0,_ZN5boost6detailL12report_errorENS_19execution_exception10error_codeEPKNS_9exceptionEPKcPA1_13__va_list_tag
FNDA:0,_ZN5boost6detailL12report_errorENS_19execution_exception10error_codeEPKNS_9exceptionEPKcz
FNDA:0,_ZN5boost6detailL12report_errorENS_19execution_exception10error_codeEPKcz
FNDA:57,_ZN5boost6detail9do_invokeINS_10shared_ptrINS0_22translator_holder_baseEEENS_8functionIFivEEEEEiRKT_RKT0_
FNDA:57,_ZN5boost6detail16fpe_except_guardC2Ej
FNDA:57,_ZN5boost6detail16fpe_except_guardD2Ev
FNDA:0,_ZN5boost6detail11typeid_nameISt10bad_typeidEENSt7__cxx1112basic_stringIcSt11char_traitsIcESaIcEEERKT_
FNDA:0,_ZN5boost6detail11typeid_nameISt11logic_errorEENSt7__cxx1112basic_stringIcSt11char_traitsIcESaIcEEERKT_
FNDA:0,_ZN5boost6detail11typeid_nameISt11range_errorEENSt7__cxx1112basic_stringIcSt11char_traitsIcESaIcEEERKT_
FNDA:0,_ZN5boost6detail11typeid_nameISt12domain_errorEENSt7__cxx1112basic_stringIcSt11char_traitsIcESaIcEEERKT_
FNDA:0,_ZN5boost6detail11typeid_nameISt12length_errorEENSt7__cxx1112basic_stringIcSt11char_traitsIcESaIcEEERKT_
FNDA:0,_ZN5boost6detail11typeid_nameISt12out_of_rangeEENSt7__cxx1112basic_stringIcSt11char_traitsIcESaIcEEERKT_
FNDA:0,_ZN5boost6detail11typeid_nameISt13bad_exceptionEENSt7__cxx1112basic_stringIcSt11char_traitsIcESaIcEEERKT_
FNDA:0,_ZN5boost6detail11typeid_nameISt13runtime_errorEENSt7__cxx1112basic_stringIcSt11char_traitsIcESaIcEEERKT_
FNDA:0,_ZN5boost6detail11typeid_nameISt14overflow_errorEENSt7__cxx1112basic_stringIcSt11char_traitsIcESaIcEEERKT_
FNDA:0,_ZN5boost6detail11typeid_nameISt15underflow_errorEENSt7__cxx1112basic_stringIcSt11char_traitsIcESaIcEEERKT_
FNDA:0,_ZN5boost6detail11typeid_nameISt16invalid_argumentEENSt7__cxx1112basic_stringIcSt11char_traitsIcESaIcEEERKT_
FNDA:0,_ZN5boost6detail11typeid_nameISt8bad_castEENSt7__cxx1112basic_stringIcSt11char_traitsIcESaIcEEERKT_
FNDA:0,_ZN5boost6detail11typeid_nameISt9bad_allocEENSt7__cxx1112basic_stringIcSt11char_traitsIcESaIcEEERKT_
FNDA:0,_ZN5boost6detail11typeid_nameISt9exceptionEENSt7__cxx1112basic_stringIcSt11char_traitsIcESaIcEEERKT_
FNDA:57,_ZN5boost6detail23system_signal_exceptionC2Ev
FNDA:0,_ZN5boost6detail23system_signal_exceptionclEP9siginfo_tPv
FNDA:0,_ZNK5boost6detail23system_signal_exception6reportEv
FNDA:57,_ZN5boost6detail13signal_actionC2Ev
FNDA:399,_ZN5boost6detail13signal_actionC2EibbPc
FNDA:456,_ZN5boost6detail13signal_actionD2Ev
FNDA:57,_ZN5boost6detail14signal_handler11jump_bufferEv
FNDA:0,_ZN5boost6detail14signal_handler7sys_sigEv
FNDA:57,_ZN5boost6detail14signal_handlerC2EbbmbPc
FNDA:57,_ZN5boost6detail14signal_handlerD2Ev
FNDA:0,boost_execution_monitor_jumping_signal_handler
FNDA:0,boost_execution_monitor_attaching_signal_handler
FNDA:57,_ZN5boost17execution_monitor13catch_signalsERKNS_8functionIFivEEE
FNF:47
FNH:18
DA:247,0
DA:249,0
DA:250,0
DA:252,0
DA:254,0
DA:261,0
DA:266,0
DA:267,0
DA:269,0
DA:271,0
DA:280,0
DA:283,0
DA:285,0
DA:286,0
DA:294,0
DA:297,0
DA:299,0
DA:300,0
DA:306,57
DA:308,57
DA:314,57
DA:315,57
DA:318,57
DA:319,57
DA:320,0
DA:321,57
DA:322,57
DA:324,57
DA:325,0
DA:326,57
DA:327,57
DA:328,57
DA:342,0
DA:344,0
DA:365,57
DA:366,57
DA:367,57
DA:368,57
DA:371,0
DA:373,0
DA:374,0
DA:375,0
DA:387,0
DA:389,0
DA:390,0
DA:392,0
DA:398,0
DA:399,0
DA:401,0
DA:402,0
DA:404,0
DA:405,0
DA:407,0
DA:408,0
DA:409,0
DA:411,0
DA:414,0
DA:415,0
DA:417,0
DA:420,0
DA:421,0
DA:423,0
DA:425,0
DA:426,0
DA:429,0
DA:430,0
DA:431,0
DA:433,0
DA:434,0
DA:436,0
DA:437,0
DA:438,0
DA:439,0
DA:441,0
DA:442,0
DA:443,0
DA:444,0
DA:446,0
DA:447,0
DA:448,0
DA:449,0
DA:451,0
DA:452,0
DA:454,0
DA:455,0
DA:457,0
DA:458,0
DA:459,0
DA:460,0
DA:462,0
DA:463,0
DA:464,0
DA:465,0
DA:467,0
DA:468,0
DA:469,0
DA:470,0
DA:472,0
DA:473,0
DA:474,0
DA:475,0
DA:477,0
DA:478,0
DA:480,0
DA:482,0
DA:483,0
DA:484,0
DA:485,0
DA:487,0
DA:488,0
DA:489,0
DA:490,0
DA:492,0
DA:493,0
DA:494,0
DA:495,0
DA:497,0
DA:498,0
DA:499,0
DA:500,0
DA:502,0
DA:503,0
DA:504,0
DA:505,0
DA:507,0
DA:508,0
DA:509,0
DA:510,0
DA:512,0
DA:513,0
DA:514,0
DA:515,0
DA:517,0
DA:518,0
DA:519,0
DA:520,0
DA:522,0
DA:523,0
DA:524,0
DA:525,0
DA:527,0
DA:528,0
DA:530,0
DA:532,0
DA:533,0
DA:535,0
DA:536,0
DA:538,0
DA:539,0
DA:540,0
DA:541,0
DA:543,0
DA:544,0
DA:546,0
DA:547,0
DA:549,0
DA:550,0
DA:552,0
DA:554,0
DA:555,0
DA:557,0
DA:558,0
DA:560,0
DA:561,0
DA:562,0
DA:563,0
DA:565,0
DA:566,0
DA:567,0
DA:568,0
DA:570,0
DA:571,0
DA:573,0
DA:574,0
DA:576,0
DA:577,0
DA:579,0
DA:583,0
DA:584,0
DA:586,0
DA:587,0
DA:589,0
DA:590,0
DA:591,0
DA:592,0
DA:594,0
DA:595,0
DA:596,0
DA:597,0
DA:599,0
DA:600,0
DA:601,0
DA:602,0
DA:604,0
DA:605,0
DA:606,0
DA:607,0
DA:609,0
DA:610,0
DA:619,0
DA:620,0
DA:622,0
DA:623,0
DA:625,0
DA:629,0
DA:630,0
DA:632,0
DA:634,0
DA:635,0
DA:637,0
DA:639,0
DA:640,0
DA:641,0
DA:675,57
DA:676,57
DA:677,57
DA:681,399
DA:682,399
DA:683,399
DA:685,399
DA:686,57
DA:688,342
DA:690,342
DA:692,342
DA:693,0
DA:694,0
DA:697,342
DA:698,342
DA:700,342
DA:703,342
DA:704,342
DA:707,342
DA:712,456
DA:714,456
DA:715,342
DA:716,456
DA:737,57
DA:739,57
DA:741,57
DA:744,0
DA:746,0
DA:748,0
DA:778,57
DA:782,57
DA:783,57
DA:784,57
DA:785,57
DA:786,57
DA:787,57
DA:788,57
DA:790,57
DA:792,57
DA:793,114
DA:795,57
DA:797,57
DA:798,0
DA:799,0
DA:803,57
DA:805,57
DA:807,57
DA:809,57
DA:810,57
DA:811,57
DA:812,57
DA:813,57
DA:817,57
DA:821,57
DA:823,57
DA:825,57
DA:826,0
DA:833,57
DA:838,57
DA:839,57
DA:840,57
DA:841,0
DA:842,0
DA:843,0
DA:844,0
DA:848,57
DA:849,57
DA:859,0
DA:861,0
DA:863,0
DA:868,0
DA:870,0
DA:871,0
DA:874,0
DA:875,0
DA:888,57
DA:897,57
DA:898,2
DA:904,57
DA:907,114
DA:909,57
DA:910,114
DA:912,0
DA:913,57
DA:1288,2
DA:1289,2
DA:1290,2
DA:1291,2
DA:1292,2
DA:1293,2
DA:1294,2
DA:1299,57
DA:1301,57
DA:1302,0
DA:1305,57
DA:1308,57
DA:1309,57
DA:1318,0
DA:1319,0
DA:1320,0
DA:1321,0
DA:1322,0
DA:1323,0
DA:1326,0
DA:1327,0
DA:1329,0
DA:1348,0
DA:1349,0
DA:1350,0
DA:1351,0
DA:1352,0
DA:1353,0
DA:1354,0
DA:1355,0
DA:1356,0
DA:1357,0
DA:1358,0
DA:1359,0
DA:1360,0
DA:1361,0
DA:1365,0
DA:1366,0
DA:1367,0
DA:1368,0
DA:1369,0
DA:1372,0
DA:1373,0
DA:1376,0
DA:1377,0
DA:1380,0
DA:1381,0
DA:1385,0
DA:1393,57
DA:1395,57
DA:1402,57
DA:1404,57
DA:1405,57
DA:1411,0
DA:1415,0
DA:1417,0
DA:1418,0
DA:1426,0
DA:1427,0
DA:1428,0
DA:1429,0
DA:1430,0
DA:1434,0
DA:1435,0
DA:1436,0
DA:1437,0
DA:1438,0
DA:1440,0
DA:1441,0
DA:1442,0
DA:1443,0
DA:1444,0
DA:1455,57
DA:1480,57
DA:1481,57
DA:1482,57
DA:1492,57
DA:1516,57
DA:1517,57
DA:1518,57
LF:377
LH:104
end_of_record
TN:
SF:/usr/include/boost/test/impl/framework.ipp
FN:103,114,_ZN5boost9unit_test9framework4implL8tu_depthEmmRSt3mapImNS2_10order_infoESt4lessImESaISt4pairIKmS4_EEE
FN:1163,1214,_ZN5boost9unit_test9framework4initEPFPNS0_10test_suiteEiPPcEiS5_
FN:119,144,_ZN5boost9unit_test9framework4implL26collect_dependant_siblingsEmmmRSt3mapImNS2_10order_infoESt4lessImESaISt4pairIKmS4_EEE
FN:1219,1251,_ZN5boost9unit_test9framework20finalize_setup_phaseEm
FN:1230,1235,_ZZN5boost9unit_test9framework20finalize_setup_phaseEmEN16apply_decorators16test_suite_startERKNS0_10test_suiteE
FN:1237,1243,_ZZN5boost9unit_test9framework20finalize_setup_phaseEmEN16apply_decorators5visitERKNS0_9test_unitE
FN:1258,1261,_ZN5boost9unit_test9framework16test_in_progressEv
FN:1270,1300,_ZN5boost9unit_test9framework8shutdownEv
FN:1309,1323,_ZN5boost9unit_test9framework18register_test_unitEPNS0_9test_caseE
FN:1332,1346,_ZN5boost9unit_test9framework18register_test_unitEPNS0_10test_suiteE
FN:1355,1358,_ZN5boost9unit_test9framework20deregister_test_unitEPNS0_9test_unitE
FN:1367,1370,_ZN5boost9unit_test9framework5clearEv
FN:1379,1382,_ZN5boost9unit_test9framework17register_observerERNS0_13test_observerE
FN:1391,1394,_ZN5boost9unit_test9framework19deregister_observerERNS0_13test_observerE
FN:1403,1406,_ZN5boost9unit_test9framework23register_global_fixtureERNS0_14global_fixtureE
FN:1415,1418,_ZN5boost9unit_test9framework25deregister_global_fixtureERNS0_14global_fixtureE
FN:1427,1436,_ZN5boost9unit_test9framework11add_contextERKNS0_12lazy_ostreamEb
FN:1445,1445,_ZN5boost9unit_test9framework13frame_with_idC2Ei
FN:1447,1450,_ZN5boost9unit_test9framework13frame_with_idclERKNS1_5state13context_frameE
FN:1457,1472,_ZN5boost9unit_test9framework13clear_contextEi
FN:1481,1484,_ZN5boost9unit_test9framework11get_contextEv
FN:149,169,_ZN5boost9unit_test9framework4implL19assign_sibling_rankEmRSt3mapImNS2_10order_infoESt4lessImESaISt4pairIKmS4_EEE
FN:1493,1496,_ZNK5boost9unit_test9framework17context_generator8is_emptyEv
FN:1501,1504,_ZNK5boost9unit_test9framework17context_generator4nextEv
FN:1513,1519,_ZN5boost9unit_test9framework17master_test_suiteEv
FN:1523,1525,_ZN5boost9unit_test9framework4impl29master_test_suite_name_setterC2ENS0_13basic_cstringIKcEE
FN:1536,1547,_ZN5boost9unit_test9framework23current_auto_test_suiteEPNS0_10test_suiteEb
FN:1556,1559,_ZN5boost9unit_test9framework17current_test_caseEv
FN:1563,1566,_ZN5boost9unit_test9framework17current_test_unitEv
FN:1571,1574,_ZN5boost9unit_test9framework20current_test_case_idEv
FN:1583,1590,_ZN5boost9unit_test9framework3getEmNS0_14test_unit_typeE
FN:1600,1600,_ZN5boost9unit_test9framework14swap_on_deleteISt6vectorINS_10shared_ptrINS0_17test_unit_fixtureEEESaIS6_EEEC2ERS8_SA_
FN:1601,1603,_ZN5boost9unit_test9framework14swap_on_deleteISt6vectorINS_10shared_ptrINS0_17test_unit_fixtureEEESaIS6_EEED2Ev
FN:1610,1614,_ZN5boost9unit_test9framework24register_observer_helperC2ERNS0_13test_observerE
FN:1616,1619,_ZN5boost9unit_test9framework24register_observer_helperD2Ev
FN:1621,1624,_ZN5boost9unit_test9framework24register_observer_helper14deregister_obsEv
FN:1626,1629,_ZN5boost9unit_test9framework24register_observer_helper12register_obsEv
FN:1637,1750,_ZN5boost9unit_test9framework3runEmb
FN:1755,1758,_ZN5boost9unit_test9framework3runEPKNS0_9test_unitEb
FN:1767,1771,_ZN5boost9unit_test9framework16assertion_resultENS0_16assertion_resultE
FN:178,188,_ZN5boost9unit_test9framework4implL16invoke_init_funcEPFPNS0_10test_suiteEiPPcE
FN:1780,1784,_ZN5boost9unit_test9framework16exception_caughtERKNS_19execution_exceptionE
FN:1793,1797,_ZN5boost9unit_test9framework17test_unit_abortedERKNS0_9test_unitE
FN:1804,1808,_ZN5boost9unit_test9framework12test_abortedEv
FN:196,216,_ZN5boost9unit_test9framework4impl11name_filter9componentC2ENS0_13basic_cstringIKcEE
FN:218,235,_ZNK5boost9unit_test9framework4impl11name_filter9component4passERKNS0_9test_unitE
FN:244,259,_ZN5boost9unit_test9framework4impl11name_filterC2ERSt6vectorImSaImEENS0_13basic_cstringIKcEE
FN:262,274,_ZN5boost9unit_test9framework4impl11name_filter11filter_unitERKNS0_9test_unitE
FN:277,282,_ZN5boost9unit_test9framework4impl11name_filter5visitERKNS0_9test_caseE
FN:283,296,_ZN5boost9unit_test9framework4impl11name_filter16test_suite_startERKNS0_10test_suiteE
FN:297,300,_ZN5boost9unit_test9framework4impl11name_filter17test_suite_finishERKNS0_10test_suiteE
FN:316,319,_ZN5boost9unit_test9framework4impl12label_filterC2ERSt6vectorImSaImEENS0_13basic_cstringIKcEE
FN:323,332,_ZN5boost9unit_test9framework4impl12label_filter5visitERKNS0_9test_unitE
FN:345,348,_ZN5boost9unit_test9framework4impl14set_run_statusC2ENS0_9test_unit10run_statusEPSt6vectorImSaImEE
FN:351,368,_ZN5boost9unit_test9framework4impl14set_run_status5visitERKNS0_9test_unitE
FN:381,393,_ZN5boost9unit_test9framework4implL23add_filtered_test_unitsEmNS0_13basic_cstringIKcEERSt6vectorImSaImEE
FN:398,438,_ZN5boost9unit_test9framework4implL13parse_filtersEmRSt6vectorImSaImEES6_
FN:444,455,_ZN5boost9unit_test9framework4impl14random_shuffleIN9__gnu_cxx17__normal_iteratorIPmSt6vectorImSaImEEEEKNS1_5state23random_generator_helperEEEvT_SE_RT0_
FN:462,462,_ZN5boost9unit_test9framework4impl21global_fixture_handleC2EPNS0_17test_unit_fixtureE
FN:463,463,_ZN5boost9unit_test9framework4impl21global_fixture_handleD0Ev
FN:463,463,_ZN5boost9unit_test9framework4impl21global_fixture_handleD2Ev
FN:465,467,_ZN5boost9unit_test9framework4impl21global_fixture_handle5setupEv
FN:468,470,_ZN5boost9unit_test9framework4impl21global_fixture_handle8teardownEv
FN:487,497,_ZN5boost9unit_test9framework5stateC2Ev
FN:499,499,_ZN5boost9unit_test9framework5stateD2Ev
FN:501,513,_ZN5boost9unit_test9framework5state5clearEv
FN:515,515,_ZN5boost9unit_test9framework5state9set_tu_idERNS0_9test_unitEm
FN:520,542,_ZN5boost9unit_test9framework5state21deduce_siblings_orderEmmRSt3mapImNS1_4impl10order_infoESt4lessImESaISt4pairIKmS5_EEE
FN:549,566,_ZN5boost9unit_test9framework5state27finalize_default_run_statusEmNS0_9test_unit10run_statusE
FN:570,584,_ZN5boost9unit_test9framework5state19finalize_run_statusEm
FN:588,647,_ZN5boost9unit_test9framework5state17deduce_run_statusEm
FN:655,657,_ZNK5boost9unit_test9framework5state23random_generator_helperclEm
FN:661,848,_ZN5boost9unit_test9framework5state17execute_test_treeEmmPKNS2_23random_generator_helperE
FN:83,83,_ZN5boost9unit_test9framework4impl10order_infoC2Ev
FN:852,860,_ZN5boost9unit_test9framework5state13child_timeoutEmm
FN:863,867,_ZNK5boost9unit_test9framework5state14priority_orderclEPNS0_13test_observerES5_
FN:874,878,_ZN5boost9unit_test9framework5state13context_frameC2ERKNSt7__cxx1112basic_stringIcSt11char_traitsIcESaIcEEEib
FN:917,917,_ZN5boost9unit_test9framework4impl12_GLOBAL__N_111s_frk_stateEv
FN:923,926,_ZN5boost9unit_test9framework4impl19setup_for_executionERKNS0_9test_unitE
FN:929,929,_ZN5boost9unit_test9framework4impl17sum_to_first_onlyC2Ev
FN:931,937,_ZN5boost9unit_test9framework4impl17sum_to_first_onlyclINSt7__cxx1112basic_stringIcSt11char_traitsIcESaIcEEESt4pairIPKcNS0_13output_formatEEEET_RKSG_RKT0_
FN:931,937,_ZN5boost9unit_test9framework4impl17sum_to_first_onlyclINSt7__cxx1112basic_stringIcSt11char_traitsIcESaIcEEESt4pairIPKcNS0_9log_levelEEEET_RKSG_RKT0_
FN:943,947,_ZN5boost9unit_test9framework4impl28shutdown_loggers_and_reportsEv
FN:95,98,_ZN5boost9unit_test9framework4implL13get_tu_parentEm
FN:950,964,_ZN5boost9unit_test9framework4impl43unregister_global_fixture_and_configurationEv
FN:967,1150,_ZN5boost9unit_test9framework4impl13setup_loggersEv
FNDA:0,_ZN5boost9unit_test9framework4implL8tu_depthEmmRSt3mapImNS2_10order_infoESt4lessImESaISt4pairIKmS4_EEE
FNDA:1,_ZN5boost9unit_test9framework4initEPFPNS0_10test_suiteEiPPcEiS5_
FNDA:0,_ZN5boost9unit_test9framework4implL26collect_dependant_siblingsEmmmRSt3mapImNS2_10order_infoESt4lessImESaISt4pairIKmS4_EEE
FNDA:1,_ZN5boost9unit_test9framework20finalize_setup_phaseEm
FNDA:1,_ZZN5boost9unit_test9framework20finalize_setup_phaseEmEN16apply_decorators16test_suite_startERKNS0_10test_suiteE
FNDA:54,_ZZN5boost9unit_test9framework20finalize_setup_phaseEmEN16apply_decorators5visitERKNS0_9test_unitE
FNDA:162,_ZN5boost9unit_test9framework16test_in_progressEv
FNDA:1,_ZN5boost9unit_test9framework8shutdownEv
FNDA:53,_ZN5boost9unit_test9framework18register_test_unitEPNS0_9test_caseE
FNDA:1,_ZN5boost9unit_test9framework18register_test_unitEPNS0_10test_suiteE
FNDA:54,_ZN5boost9unit_test9framework20deregister_test_unitEPNS0_9test_unitE
FNDA:0,_ZN5boost9unit_test9framework5clearEv
FNDA:4,_ZN5boost9unit_test9framework17register_observerERNS0_13test_observerE
FNDA:4,_ZN5boost9unit_test9framework19deregister_observerERNS0_13test_observerE
FNDA:0,_ZN5boost9unit_test9framework23register_global_fixtureERNS0_14global_fixtureE
FNDA:0,_ZN5boost9unit_test9framework25deregister_global_fixtureERNS0_14global_fixtureE
FNDA:0,_ZN5boost9unit_test9framework11add_contextERKNS0_12lazy_ostreamEb
FNDA:0,_ZN5boost9unit_test9framework13frame_with_idC2Ei
FNDA:0,_ZN5boost9unit_test9framework13frame_with_idclERKNS1_5state13context_frameE
FNDA:161,_ZN5boost9unit_test9framework13clear_contextEi
FNDA:0,_ZN5boost9unit_test9framework11get_contextEv
FNDA:53,_ZN5boost9unit_test9framework4implL19assign_sibling_rankEmRSt3mapImNS2_10order_infoESt4lessImESaISt4pairIKmS4_EEE
FNDA:0,_ZNK5boost9unit_test9framework17context_generator8is_emptyEv
FNDA:0,_ZNK5boost9unit_test9framework17context_generator4nextEv
FNDA:9,_ZN5boost9unit_test9framework17master_test_suiteEv
FNDA:1,_ZN5boost9unit_test9framework4impl29master_test_suite_name_setterC2ENS0_13basic_cstringIKcEE
FNDA:53,_ZN5boost9unit_test9framework23current_auto_test_suiteEPNS0_10test_suiteEb
FNDA:0,_ZN5boost9unit_test9framework17current_test_caseEv
FNDA:0,_ZN5boost9unit_test9framework17current_test_unitEv
FNDA:161,_ZN5boost9unit_test9framework20current_test_case_idEv
FNDA:593,_ZN5boost9unit_test9framework3getEmNS0_14test_unit_typeE
FNDA:1,_ZN5boost9unit_test9framework14swap_on_deleteISt6vectorINS_10shared_ptrINS0_17test_unit_fixtureEEESaIS6_EEEC2ERS8_SA_
FNDA:1,_ZN5boost9unit_test9framework14swap_on_deleteISt6vectorINS_10shared_ptrINS0_17test_unit_fixtureEEESaIS6_EEED2Ev
FNDA:1,_ZN5boost9unit_test9framework24register_observer_helperC2ERNS0_13test_observerE
FNDA:1,_ZN5boost9unit_test9framework24register_observer_helperD2Ev
FNDA:1,_ZN5boost9unit_test9framework24register_observer_helper14deregister_obsEv
FNDA:2,_ZN5boost9unit_test9framework24register_observer_helper12register_obsEv
FNDA:1,_ZN5boost9unit_test9framework3runEmb
FNDA:0,_ZN5boost9unit_test9framework3runEPKNS0_9test_unitEb
FNDA:161,_ZN5boost9unit_test9framework16assertion_resultENS0_16assertion_resultE
FNDA:1,_ZN5boost9unit_test9framework4implL16invoke_init_funcEPFPNS0_10test_suiteEiPPcE
FNDA:0,_ZN5boost9unit_test9framework16exception_caughtERKNS_19execution_exceptionE
FNDA:0,_ZN5boost9unit_test9framework17test_unit_abortedERKNS0_9test_unitE
FNDA:0,_ZN5boost9unit_test9framework12test_abortedEv
FNDA:0,_ZN5boost9unit_test9framework4impl11name_filter9componentC2ENS0_13basic_cstringIKcEE
FNDA:0,_ZNK5boost9unit_test9framework4impl11name_filter9component4passERKNS0_9test_unitE
FNDA:0,_ZN5boost9unit_test9framework4impl11name_filterC2ERSt6vectorImSaImEENS0_13basic_cstringIKcEE
FNDA:0,_ZN5boost9unit_test9framework4impl11name_filter11filter_unitERKNS0_9test_unitE
FNDA:0,_ZN5boost9unit_test9framework4impl11name_filter5visitERKNS0_9test_caseE
FNDA:0,_ZN5boost9unit_test9framework4impl11name_filter16test_suite_startERKNS0_10test_suiteE
FNDA:0,_ZN5boost9unit_test9framework4impl11name_filter17test_suite_finishERKNS0_10test_suiteE
FNDA:0,_ZN5boost9unit_test9framework4impl12label_filterC2ERSt6vectorImSaImEENS0_13basic_cstringIKcEE
FNDA:0,_ZN5boost9unit_test9framework4impl12label_filter5visitERKNS0_9test_unitE
FNDA:1,_ZN5boost9unit_test9framework4impl14set_run_statusC2ENS0_9test_unit10run_statusEPSt6vectorImSaImEE
FNDA:54,_ZN5boost9unit_test9framework4impl14set_run_status5visitERKNS0_9test_unitE
FNDA:0,_ZN5boost9unit_test9framework4implL23add_filtered_test_unitsEmNS0_13basic_cstringIKcEERSt6vectorImSaImEE
FNDA:0,_ZN5boost9unit_test9framework4implL13parse_filtersEmRSt6vectorImSaImEES6_
FNDA:0,_ZN5boost9unit_test9framework4impl14random_shuffleIN9__gnu_cxx17__normal_iteratorIPmSt6vectorImSaImEEEEKNS1_5state23random_generator_helperEEEvT_SE_RT0_
FNDA:0,_ZN5boost9unit_test9framework4impl21global_fixture_handleC2EPNS0_17test_unit_fixtureE
FNDA:0,_ZN5boost9unit_test9framework4impl21global_fixture_handleD0Ev
FNDA:0,_ZN5boost9unit_test9framework4impl21global_fixture_handleD2Ev
FNDA:0,_ZN5boost9unit_test9framework4impl21global_fixture_handle5setupEv
FNDA:0,_ZN5boost9unit_test9framework4impl21global_fixture_handle8teardownEv
FNDA:1,_ZN5boost9unit_test9framework5stateC2Ev
FNDA:1,_ZN5boost9unit_test9framework5stateD2Ev
FNDA:1,_ZN5boost9unit_test9framework5state5clearEv
FNDA:54,_ZN5boost9unit_test9framework5state9set_tu_idERNS0_9test_unitEm
FNDA:54,_ZN5boost9unit_test9framework5state21deduce_siblings_orderEmmRSt3mapImNS1_4impl10order_infoESt4lessImESaISt4pairIKmS5_EEE
FNDA:54,_ZN5boost9unit_test9framework5state27finalize_default_run_statusEmNS0_9test_unit10run_statusE
FNDA:54,_ZN5boost9unit_test9framework5state19finalize_run_statusEm
FNDA:1,_ZN5boost9unit_test9framework5state17deduce_run_statusEm
FNDA:0,_ZNK5boost9unit_test9framework5state23random_generator_helperclEm
FNDA:54,_ZN5boost9unit_test9framework5state17execute_test_treeEmmPKNS2_23random_generator_helperE
FNDA:53,_ZN5boost9unit_test9framework4impl10order_infoC2Ev
FNDA:53,_ZN5boost9unit_test9framework5state13child_timeoutEmm
FNDA:20,_ZNK5boost9unit_test9framework5state14priority_orderclEPNS0_13test_observerES5_
FNDA:0,_ZN5boost9unit_test9framework5state13context_frameC2ERKNSt7__cxx1112basic_stringIcSt11char_traitsIcESaIcEEEib
FNDA:4457,_ZN5boost9unit_test9framework4impl12_GLOBAL__N_111s_frk_stateEv
FNDA:0,_ZN5boost9unit_test9framework4impl19setup_for_executionERKNS0_9test_unitE
FNDA:0,_ZN5boost9unit_test9framework4impl17sum_to_first_onlyC2Ev
FNDA:0,_ZN5boost9unit_test9framework4impl17sum_to_first_onlyclINSt7__cxx1112basic_stringIcSt11char_traitsIcESaIcEEESt4pairIPKcNS0_13output_formatEEEET_RKSG_RKT0_
FNDA:0,_ZN5boost9unit_test9framework4impl17sum_to_first_onlyclINSt7__cxx1112basic_stringIcSt11char_traitsIcESaIcEEESt4pairIPKcNS0_9log_levelEEEET_RKSG_RKT0_
FNDA:1,_ZN5boost9unit_test9framework4impl28shutdown_loggers_and_reportsEv
FNDA:0,_ZN5boost9unit_test9framework4implL13get_tu_parentEm
FNDA:1,_ZN5boost9unit_test9framework4impl43unregister_global_fixture_and_configurationEv
FNDA:1,_ZN5boost9unit_test9framework4impl13setup_loggersEv
FNF:86
FNH:45
DA:83,53
DA:95,0
DA:97,0
DA:103,0
DA:105,0
DA:106,0
DA:108,0
DA:110,0
DA:111,0
DA:113,0
DA:119,0
DA:121,0
DA:122,0
DA:124,0
DA:125,0
DA:126,0
DA:129,0
DA:130,0
DA:131,0
DA:135,0
DA:136,0
DA:137,0
DA:138,0
DA:139,0
DA:140,0
DA:141,0
DA:143,0
DA:144,0
DA:149,53
DA:151,53
DA:153,53
DA:156,53
DA:157,0
DA:159,53
DA:162,53
DA:164,53
DA:165,53
DA:166,0
DA:168,53
DA:178,1
DA:183,1
DA:185,1
DA:186,0
DA:188,1
DA:196,0
DA:197,0
DA:198,0
DA:199,0
DA:200,0
DA:201,0
DA:202,0
DA:204,0
DA:205,0
DA:206,0
DA:208,0
DA:209,0
DA:210,0
DA:213,0
DA:214,0
DA:216,0
DA:218,0
DA:220,0
DA:222,0
DA:223,0
DA:225,0
DA:226,0
DA:227,0
DA:228,0
DA:229,0
DA:230,0
DA:231,0
DA:232,0
DA:233,0
DA:244,0
DA:247,0
DA:248,0
DA:250,0
DA:251,0
DA:252,0
DA:253,0
DA:254,0
DA:256,0
DA:259,0
DA:262,0
DA:265,0
DA:266,0
DA:269,0
DA:273,0
DA:277,0
DA:280,0
DA:281,0
DA:282,0
DA:283,0
DA:285,0
DA:286,0
DA:288,0
DA:289,0
DA:290,0
DA:293,0
DA:295,0
DA:297,0
DA:299,0
DA:300,0
DA:316,0
DA:317,0
DA:318,0
DA:319,0
DA:323,0
DA:325,0
DA:327,0
DA:328,0
DA:331,0
DA:345,1
DA:346,2
DA:347,1
DA:348,1
DA:351,54
DA:353,54
DA:354,54
DA:355,0
DA:356,0
DA:358,0
DA:359,0
DA:361,0
DA:364,0
DA:367,54
DA:381,0
DA:384,0
DA:385,0
DA:386,0
DA:387,0
DA:388,0
DA:390,0
DA:391,0
DA:392,0
DA:393,0
DA:398,0
DA:401,0
DA:403,0
DA:405,0
DA:406,0
DA:409,0
DA:410,0
DA:412,0
DA:413,0
DA:415,0
DA:418,0
DA:419,0
DA:420,0
DA:421,0
DA:424,0
DA:427,0
DA:428,0
DA:429,0
DA:430,0
DA:433,0
DA:437,0
DA:444,0
DA:447,0
DA:448,0
DA:449,0
DA:450,0
DA:452,0
DA:455,0
DA:462,0
DA:463,0
DA:465,0
DA:466,0
DA:467,0
DA:468,0
DA:469,0
DA:470,0
DA:487,1
DA:488,1
DA:489,1
DA:490,1
DA:491,1
DA:492,1
DA:493,1
DA:494,1
DA:495,2
DA:497,1
DA:499,1
DA:501,1
DA:503,55
DA:504,54
DA:505,54
DA:508,54
DA:509,1
DA:511,53
DA:513,1
DA:515,54
DA:520,54
DA:522,54
DA:525,54
DA:526,0
DA:528,54
DA:529,53
DA:531,1
DA:534,107
DA:535,53
DA:537,1
DA:538,107
DA:539,53
DA:540,53
DA:549,54
DA:551,54
DA:553,54
DA:554,53
DA:557,54
DA:558,1
DA:559,107
DA:560,53
DA:562,1
DA:565,54
DA:570,54
DA:572,54
DA:575,54
DA:576,1
DA:577,107
DA:578,53
DA:580,1
DA:583,54
DA:588,1
DA:591,1
DA:592,1
DA:595,1
DA:596,0
DA:599,1
DA:600,1
DA:603,1
DA:604,0
DA:606,0
DA:609,0
DA:610,0
DA:613,0
DA:614,0
DA:617,0
DA:618,0
DA:619,0
DA:625,0
DA:626,0
DA:627,0
DA:629,0
DA:632,1
DA:633,0
DA:635,0
DA:638,0
DA:639,0
DA:641,0
DA:642,0
DA:643,0
DA:646,1
DA:647,1
DA:655,0
DA:656,0
DA:661,54
DA:665,54
DA:667,54
DA:669,54
DA:670,0
DA:671,0
DA:672,0
DA:677,54
DA:679,0
DA:680,0
DA:682,0
DA:684,54
DA:685,54
DA:688,54
DA:689,54
DA:691,0
DA:692,0
DA:697,0
DA:701,270
DA:702,108
DA:705,54
DA:706,0
DA:707,0
DA:708,0
DA:709,0
DA:710,0
DA:711,0
DA:712,0
DA:713,0
DA:715,0
DA:719,54
DA:721,54
DA:723,54
DA:726,54
DA:728,54
DA:729,1
DA:731,1
DA:734,107
DA:736,53
DA:738,53
DA:740,53
DA:742,53
DA:743,0
DA:746,53
DA:748,53
DA:749,0
DA:750,0
DA:752,0
DA:753,0
DA:763,0
DA:766,0
DA:767,0
DA:768,0
DA:770,0
DA:771,0
DA:772,0
DA:773,0
DA:774,0
DA:777,0
DA:779,0
DA:780,0
DA:782,0
DA:784,0
DA:786,0
DA:787,0
DA:790,0
DA:791,0
DA:792,0
DA:793,0
DA:795,0
DA:796,0
DA:803,0
DA:806,53
DA:809,53
DA:812,53
DA:815,53
DA:816,53
DA:819,53
DA:822,53
DA:826,54
DA:828,54
DA:829,0
DA:830,0
DA:832,0
DA:833,0
DA:834,0
DA:838,54
DA:839,0
DA:840,0
DA:844,270
DA:845,108
DA:847,54
DA:848,54
DA:852,53
DA:854,53
DA:855,53
DA:857,0
DA:859,0
DA:863,20
DA:865,30
DA:866,30
DA:874,0
DA:875,0
DA:876,0
DA:877,0
DA:878,0
DA:917,4457
DA:923,0
DA:925,0
DA:926,0
DA:929,0
DA:931,0
DA:932,0
DA:933,0
DA:934,0
DA:936,0
DA:943,1
DA:945,1
DA:946,1
DA:947,1
DA:950,1
DA:953,1
DA:954,1
DA:955,0
DA:957,1
DA:959,1
DA:960,5
DA:961,2
DA:963,1
DA:964,1
DA:967,1
DA:973,1
DA:974,1
DA:979,1
DA:980,1
DA:981,1
DA:982,1
DA:984,1
DA:985,1
DA:990,0
DA:991,0
DA:993,0
DA:994,1
DA:995,1
DA:1000,0
DA:1024,0
DA:1026,0
DA:1032,0
DA:1035,0
DA:1036,0
DA:1038,0
DA:1039,0
DA:1040,0
DA:1041,0
DA:1042,0
DA:1045,0
DA:1047,0
DA:1050,0
DA:1052,0
DA:1053,0
DA:1054,0
DA:1056,0
DA:1057,0
DA:1058,0
DA:1060,0
DA:1061,0
DA:1062,0
DA:1063,0
DA:1068,0
DA:1080,0
DA:1081,0
DA:1084,0
DA:1086,0
DA:1088,0
DA:1089,0
DA:1091,0
DA:1092,0
DA:1093,0
DA:1094,0
DA:1096,0
DA:1098,0
DA:1099,0
DA:1100,0
DA:1101,0
DA:1106,0
DA:1117,0
DA:1119,0
DA:1123,0
DA:1124,0
DA:1125,0
DA:1126,0
DA:1130,0
DA:1133,0
DA:1134,0
DA:1136,0
DA:1140,0
DA:1141,0
DA:1142,0
DA:1143,0
DA:1144,0
DA:1146,0
DA:1147,0
DA:1150,1
DA:1163,1
DA:1168,1
DA:1171,1
DA:1174,1
DA:1175,1
DA:1177,1
DA:1180,0
DA:1181,0
DA:1183,0
DA:1185,1
DA:1188,1
DA:1189,1
DA:1191,1
DA:1192,0
DA:1193,0
DA:1197,1
DA:1198,1
DA:1199,1
DA:1200,1
DA:1204,1
DA:1205,1
DA:1209,1
DA:1211,0
DA:1212,0
DA:1213,0
DA:1214,1
DA:1219,1
DA:1221,1
DA:1222,1
DA:1230,1
DA:1232,1
DA:1233,1
DA:1234,1
DA:1237,54
DA:1239,54
DA:1240,0
DA:1242,54
DA:1244,1
DA:1245,1
DA:1248,1
DA:1249,1
DA:1250,1
DA:1251,1
DA:1258,162
DA:1260,162
DA:1270,1
DA:1274,1
DA:1277,1
DA:1300,1
DA:1309,53
DA:1311,53
DA:1313,53
DA:1315,53
DA:1319,53
DA:1320,53
DA:1322,53
DA:1323,53
DA:1332,1
DA:1334,1
DA:1336,1
DA:1338,1
DA:1342,1
DA:1343,1
DA:1345,1
DA:1346,1
DA:1355,54
DA:1357,54
DA:1358,54
DA:1367,0
DA:1369,0
DA:1370,0
DA:1379,4
DA:1381,4
DA:1382,4
DA:1391,4
DA:1393,4
DA:1394,4
DA:1403,0
DA:1405,0
DA:1406,0
DA:1415,0
DA:1417,0
DA:1418,0
DA:1427,0
DA:1429,0
DA:1430,0
DA:1431,0
DA:1433,0
DA:1435,0
DA:1436,0
DA:1445,0
DA:1447,0
DA:1449,0
DA:1457,161
DA:1459,161
DA:1460,161
DA:1461,0
DA:1462,0
DA:1467,0
DA:1469,0
DA:1470,0
DA:1472,161
DA:1481,0
DA:1483,0
DA:1493,0
DA:1495,0
DA:1501,0
DA:1503,0
DA:1513,9
DA:1515,9
DA:1516,1
DA:1518,9
DA:1523,1
DA:1524,1
DA:1525,1
DA:1536,53
DA:1538,53
DA:1539,1
DA:1541,53
DA:1542,0
DA:1543,53
DA:1544,0
DA:1546,53
DA:1556,0
DA:1558,0
DA:1563,0
DA:1565,0
DA:1571,161
DA:1573,161
DA:1583,593
DA:1585,593
DA:1587,593
DA:1589,593
DA:1600,1
DA:1601,1
DA:1602,1
DA:1603,1
DA:1610,1
DA:1611,1
DA:1613,1
DA:1614,1
DA:1616,1
DA:1617,1
DA:1618,1
DA:1619,1
DA:1621,1
DA:1622,1
DA:1623,1
DA:1624,1
DA:1626,2
DA:1627,2
DA:1628,2
DA:1629,2
DA:1637,1
DA:1639,1
DA:1640,1
DA:1643,1
DA:1645,1
DA:1646,1
DA:1648,1
DA:1652,1
DA:1653,1
DA:1654,1
DA:1655,1
DA:1657,1
DA:1658,1
DA:1660,1
DA:1662,1
DA:1664,7
DA:1666,3
DA:1667,3
DA:1668,3
DA:1669,3
DA:1670,0
DA:1673,3
DA:1674,0
DA:1678,3
DA:1679,0
DA:1680,0
DA:1682,0
DA:1683,0
DA:1686,0
DA:1691,1
DA:1693,1
DA:1696,1
DA:1698,1
DA:1700,1
DA:1701,0
DA:1702,0
DA:1705,1
DA:1708,1
DA:1709,1
DA:1710,1
DA:1711,1
DA:1712,1
DA:1713,0
DA:1714,0
DA:1716,0
DA:1717,0
DA:1718,0
DA:1722,1
DA:1725,1
DA:1727,1
DA:1729,1
DA:1732,1
DA:1734,1
DA:1735,1
DA:1739,1
DA:1740,7
DA:1741,3
DA:1742,3
DA:1743,3
DA:1746,1
DA:1749,1
DA:1750,1
DA:1755,0
DA:1757,0
DA:1758,0
DA:1767,161
DA:1769,805
DA:1770,322
DA:1771,161
DA:1780,0
DA:1782,0
DA:1783,0
DA:1784,0
DA:1793,0
DA:1795,0
DA:1796,0
DA:1797,0
DA:1804,0
DA:1806,0
DA:1807,0
DA:1808,0
LF:693
LH:314
end_of_record
TN:
SF:/usr/include/boost/test/impl/junit_log_formatter.ipp
FN:111,123,_ZN5boost9unit_test6output19junit_result_helperC2ERSoRKNS0_9test_unitERKSt3mapImNS1_10junit_impl16junit_log_helperESt4lessImESaISt4pairIKmS9_EEERKS9_b
FN:125,149,_ZNK5boost9unit_test6output19junit_result_helper13add_log_entryERKNS1_10junit_impl16junit_log_helper15assertion_entryE
FN:156,160,_ZN5boost9unit_test6output19junit_result_helper24conditional_cdata_helperC2ERSoNSt7__cxx1112basic_stringIcSt11char_traitsIcESaIcEEE
FN:162,166,_ZN5boost9unit_test6output19junit_result_helper24conditional_cdata_helperD2Ev
FN:168,179,_ZN5boost9unit_test6output19junit_result_helper24conditional_cdata_helperclERKNSt7__cxx1112basic_stringIcSt11char_traitsIcESaIcEEE
FN:182,209,_ZNK5boost9unit_test6output19junit_result_helper20build_skipping_chainB5cxx11ERKNS0_9test_unitE
FN:211,226,_ZNK5boost9unit_test6output19junit_result_helper14get_class_nameB5cxx11ERKNS0_9test_unitE
FN:228,259,_ZNK5boost9unit_test6output19junit_result_helper21write_testcase_headerERKNS0_9test_unitEPKNS0_12test_resultsEi
FN:261,296,_ZNK5boost9unit_test6output19junit_result_helper25write_testcase_system_outERKNS1_10junit_impl16junit_log_helperEPKNS0_9test_unitEb
FN:298,348,_ZNK5boost9unit_test6output19junit_result_helper25write_testcase_system_errERKNS1_10junit_impl16junit_log_helperEPKNS0_9test_unitEPKNS0_12test_resultsE
FN:350,369,_ZNK5boost9unit_test6output19junit_result_helper17get_nb_assertionsERKNS1_10junit_impl16junit_log_helperERKNS0_9test_unitEPKNS0_12test_resultsE
FN:371,398,_ZNK5boost9unit_test6output19junit_result_helper20output_detailed_logsERKNS1_10junit_impl16junit_log_helperERKNS0_9test_unitEbPKNS0_12test_resultsE
FN:400,413,_ZN5boost9unit_test6output19junit_result_helper5visitERKNS0_9test_caseE
FN:415,472,_ZN5boost9unit_test6output19junit_result_helper16test_suite_startERKNS0_10test_suiteE
FN:474,483,_ZN5boost9unit_test6output19junit_result_helper17test_suite_finishERKNS0_10test_suiteE
FN:498,521,_ZN5boost9unit_test6output19junit_log_formatter10log_finishERSo
FN:526,529,_ZN5boost9unit_test6output19junit_log_formatter14log_build_infoERSob
FN:534,538,_ZN5boost9unit_test6output19junit_log_formatter15test_unit_startERSoRKNS0_9test_unitE
FN:546,552,_ZN5boost9unit_test6output19junit_log_formatter16test_unit_finishERSoRKNS0_9test_unitEm
FN:555,560,_ZN5boost9unit_test6output19junit_log_formatter17test_unit_abortedERSoRKNS0_9test_unitE
FN:56,62,_ZN5boost9unit_test6output15s_replace_charsclIcEEvRT_
FN:565,579,_ZN5boost9unit_test6output19junit_log_formatter19test_unit_timed_outERSoRKNS0_9test_unitE
FN:584,591,_ZN5boost9unit_test6output19junit_log_formatter17test_unit_skippedERSoRKNS0_9test_unitENS0_13basic_cstringIKcEE
FN:596,659,_ZN5boost9unit_test6output19junit_log_formatter19log_exception_startERSoRKNS0_19log_checkpoint_dataERKNS_19execution_exceptionE
FN:65,70,_ZN5boost9unit_test6output17tu_name_normalizeENSt7__cxx1112basic_stringIcSt11char_traitsIcESaIcEEE
FN:664,669,_ZN5boost9unit_test6output19junit_log_formatter20log_exception_finishERSo
FN:674,742,_ZN5boost9unit_test6output19junit_log_formatter15log_entry_startERSoRKNS0_14log_entry_dataENS0_23unit_test_log_formatter15log_entry_typesE
FN:72,76,_ZN5boost9unit_test6output23tu_name_remove_newlinesENSt7__cxx1112basic_stringIcSt11char_traitsIcESaIcEEE
FN:747,766,_ZN5boost9unit_test6output19junit_log_formatter15log_entry_valueERSoNS0_13basic_cstringIKcEE
FN:771,789,_ZN5boost9unit_test6output19junit_log_formatter16log_entry_finishERSo
FN:78,88,_ZN5boost9unit_test6output13file_basenameENS0_13basic_cstringIKcEE
FN:794,812,_ZN5boost9unit_test6output19junit_log_formatter19entry_context_startERSoNS0_9log_levelE
FN:817,824,_ZN5boost9unit_test6output19junit_log_formatter20entry_context_finishERSoNS0_9log_levelE
FN:829,840,_ZN5boost9unit_test6output19junit_log_formatter17log_entry_contextERSoNS0_9log_levelENS0_13basic_cstringIKcEE
FN:846,870,_ZNK5boost9unit_test6output19junit_log_formatter30get_default_stream_descriptionB5cxx11Ev
FN:95,100,_ZN5boost9unit_test6output19junit_log_formatter9log_startERSom
FNDA:0,_ZN5boost9unit_test6output19junit_result_helperC2ERSoRKNS0_9test_unitERKSt3mapImNS1_10junit_impl16junit_log_helperESt4lessImESaISt4pairIKmS9_EEERKS9_b
FNDA:0,_ZNK5boost9unit_test6output19junit_result_helper13add_log_entryERKNS1_10junit_impl16junit_log_helper15assertion_entryE
FNDA:0,_ZN5boost9unit_test6output19junit_result_helper24conditional_cdata_helperC2ERSoNSt7__cxx1112basic_stringIcSt11char_traitsIcESaIcEEE
FNDA:0,_ZN5boost9unit_test6output19junit_result_helper24conditional_cdata_helperD2Ev
FNDA:0,_ZN5boost9unit_test6output19junit_result_helper24conditional_cdata_helperclERKNSt7__cxx1112basic_stringIcSt11char_traitsIcESaIcEEE
FNDA:0,_ZNK5boost9unit_test6output19junit_result_helper20build_skipping_chainB5cxx11ERKNS0_9test_unitE
FNDA:0,_ZNK5boost9unit_test6output19junit_result_helper14get_class_nameB5cxx11ERKNS0_9test_unitE
FNDA:0,_ZNK5boost9unit_test6output19junit_result_helper21write_testcase_headerERKNS0_9test_unitEPKNS0_12test_resultsEi
FNDA:0,_ZNK5boost9unit_test6output19junit_result_helper25write_testcase_system_outERKNS1_10junit_impl16junit_log_helperEPKNS0_9test_unitEb
FNDA:0,_ZNK5boost9unit_test6output19junit_result_helper25write_testcase_system_errERKNS1_10junit_impl16junit_log_helperEPKNS0_9test_unitEPKNS0_12test_resultsE
FNDA:0,_ZNK5boost9unit_test6output19junit_result_helper17get_nb_assertionsERKNS1_10junit_impl16junit_log_helperERKNS0_9test_unitEPKNS0_12test_resultsE
FNDA:0,_ZNK5boost9unit_test6output19junit_result_helper20output_detailed_logsERKNS1_10junit_impl16junit_log_helperERKNS0_9test_unitEbPKNS0_12test_resultsE
FNDA:0,_ZN5boost9unit_test6output19junit_result_helper5visitERKNS0_9test_caseE
FNDA:0,_ZN5boost9unit_test6output19junit_result_helper16test_suite_startERKNS0_10test_suiteE
FNDA:0,_ZN5boost9unit_test6output19junit_result_helper17test_suite_finishERKNS0_10test_suiteE
FNDA:0,_ZN5boost9unit_test6output19junit_log_formatter10log_finishERSo
FNDA:0,_ZN5boost9unit_test6output19junit_log_formatter14log_build_infoERSob
FNDA:0,_ZN5boost9unit_test6output19junit_log_formatter15test_unit_startERSoRKNS0_9test_unitE
FNDA:0,_ZN5boost9unit_test6output19junit_log_formatter16test_unit_finishERSoRKNS0_9test_unitEm
FNDA:0,_ZN5boost9unit_test6output19junit_log_formatter17test_unit_abortedERSoRKNS0_9test_unitE
FNDA:0,_ZN5boost9unit_test6output15s_replace_charsclIcEEvRT_
FNDA:0,_ZN5boost9unit_test6output19junit_log_formatter19test_unit_timed_outERSoRKNS0_9test_unitE
FNDA:0,_ZN5boost9unit_test6output19junit_log_formatter17test_unit_skippedERSoRKNS0_9test_unitENS0_13basic_cstringIKcEE
FNDA:0,_ZN5boost9unit_test6output19junit_log_formatter19log_exception_startERSoRKNS0_19log_checkpoint_dataERKNS_19execution_exceptionE
FNDA:0,_ZN5boost9unit_test6output17tu_name_normalizeENSt7__cxx1112basic_stringIcSt11char_traitsIcESaIcEEE
FNDA:0,_ZN5boost9unit_test6output19junit_log_formatter20log_exception_finishERSo
FNDA:0,_ZN5boost9unit_test6output19junit_log_formatter15log_entry_startERSoRKNS0_14log_entry_dataENS0_23unit_test_log_formatter15log_entry_typesE
FNDA:0,_ZN5boost9unit_test6output23tu_name_remove_newlinesENSt7__cxx1112basic_stringIcSt11char_traitsIcESaIcEEE
FNDA:0,_ZN5boost9unit_test6output19junit_log_formatter15log_entry_valueERSoNS0_13basic_cstringIKcEE
FNDA:0,_ZN5boost9unit_test6output19junit_log_formatter16log_entry_finishERSo
FNDA:0,_ZN5boost9unit_test6output13file_basenameENS0_13basic_cstringIKcEE
FNDA:0,_ZN5boost9unit_test6output19junit_log_formatter19entry_context_startERSoNS0_9log_levelE
FNDA:0,_ZN5boost9unit_test6output19junit_log_formatter20entry_context_finishERSoNS0_9log_levelE
FNDA:0,_ZN5boost9unit_test6output19junit_log_formatter17log_entry_contextERSoNS0_9log_levelENS0_13basic_cstringIKcEE
FNDA:0,_ZNK5boost9unit_test6output19junit_log_formatter30get_default_stream_descriptionB5cxx11Ev
FNDA:0,_ZN5boost9unit_test6output19junit_log_formatter9log_startERSom
FNF:36
FNH:0
DA:56,0
DA:58,0
DA:59,0
DA:60,0
DA:61,0
DA:62,0
DA:65,0
DA:68,0
DA:69,0
DA:72,0
DA:74,0
DA:75,0
DA:78,0
DA:80,0
DA:81,0
DA:83,0
DA:84,0
DA:86,0
DA:95,0
DA:97,0
DA:98,0
DA:99,0
DA:100,0
DA:111,0
DA:117,0
DA:118,0
DA:119,0
DA:120,0
DA:121,0
DA:122,0
DA:123,0
DA:125,0
DA:127,0
DA:128,0
DA:129,0
DA:131,0
DA:132,0
DA:135,0
DA:138,0
DA:140,0
DA:141,0
DA:142,0
DA:144,0
DA:145,0
DA:148,0
DA:149,0
DA:156,0
DA:157,0
DA:158,0
DA:159,0
DA:160,0
DA:162,0
DA:163,0
DA:164,0
DA:166,0
DA:168,0
DA:169,0
DA:170,0
DA:171,0
DA:172,0
DA:173,0
DA:176,0
DA:177,0
DA:179,0
DA:182,0
DA:186,0
DA:188,0
DA:190,0
DA:191,0
DA:192,0
DA:193,0
DA:194,0
DA:197,0
DA:199,0
DA:201,0
DA:202,0
DA:204,0
DA:205,0
DA:208,0
DA:209,0
DA:211,0
DA:212,0
DA:213,0
DA:214,0
DA:215,0
DA:216,0
DA:217,0
DA:221,0
DA:222,0
DA:225,0
DA:226,0
DA:228,0
DA:232,0
DA:233,0
DA:235,0
DA:236,0
DA:239,0
DA:240,0
DA:243,0
DA:244,0
DA:245,0
DA:247,0
DA:250,0
DA:251,0
DA:252,0
DA:255,0
DA:256,0
DA:257,0
DA:258,0
DA:259,0
DA:261,0
DA:266,0
DA:269,0
DA:270,0
DA:271,0
DA:272,0
DA:273,0
DA:275,0
DA:277,0
DA:280,0
DA:281,0
DA:282,0
DA:284,0
DA:288,0
DA:289,0
DA:290,0
DA:292,0
DA:293,0
DA:294,0
DA:296,0
DA:298,0
DA:303,0
DA:304,0
DA:306,0
DA:307,0
DA:308,0
DA:311,0
DA:314,0
DA:315,0
DA:316,0
DA:318,0
DA:322,0
DA:323,0
DA:324,0
DA:326,0
DA:327,0
DA:328,0
DA:332,0
DA:333,0
DA:335,0
DA:336,0
DA:337,0
DA:339,0
DA:342,0
DA:343,0
DA:345,0
DA:346,0
DA:347,0
DA:348,0
DA:350,0
DA:353,0
DA:354,0
DA:355,0
DA:356,0
DA:357,0
DA:358,0
DA:360,0
DA:361,0
DA:365,0
DA:368,0
DA:371,0
DA:376,0
DA:377,0
DA:378,0
DA:380,0
DA:382,0
DA:383,0
DA:387,0
DA:388,0
DA:389,0
DA:391,0
DA:395,0
DA:396,0
DA:397,0
DA:400,0
DA:403,0
DA:404,0
DA:405,0
DA:408,0
DA:411,0
DA:413,0
DA:415,0
DA:417,0
DA:420,0
DA:421,0
DA:429,0
DA:431,0
DA:433,0
DA:435,0
DA:436,0
DA:437,0
DA:439,0
DA:440,0
DA:441,0
DA:442,0
DA:443,0
DA:444,0
DA:445,0
DA:447,0
DA:449,0
DA:450,0
DA:451,0
DA:452,0
DA:454,0
DA:455,0
DA:456,0
DA:457,0
DA:458,0
DA:461,0
DA:465,0
DA:466,0
DA:467,0
DA:471,0
DA:474,0
DA:476,0
DA:477,0
DA:478,0
DA:480,0
DA:481,0
DA:498,0
DA:500,0
DA:503,0
DA:504,0
DA:507,0
DA:508,0
DA:510,0
DA:511,0
DA:512,0
DA:514,0
DA:515,0
DA:516,0
DA:517,0
DA:518,0
DA:520,0
DA:526,0
DA:528,0
DA:529,0
DA:534,0
DA:536,0
DA:537,0
DA:538,0
DA:546,0
DA:550,0
DA:551,0
DA:552,0
DA:555,0
DA:558,0
DA:560,0
DA:565,0
DA:567,0
DA:571,0
DA:572,0
DA:573,0
DA:574,0
DA:575,0
DA:576,0
DA:577,0
DA:578,0
DA:579,0
DA:584,0
DA:589,0
DA:590,0
DA:591,0
DA:596,0
DA:598,0
DA:599,0
DA:601,0
DA:603,0
DA:605,0
DA:607,0
DA:608,0
DA:610,0
DA:612,0
DA:613,0
DA:614,0
DA:615,0
DA:616,0
DA:617,0
DA:618,0
DA:619,0
DA:620,0
DA:621,0
DA:623,0
DA:624,0
DA:625,0
DA:626,0
DA:627,0
DA:628,0
DA:629,0
DA:630,0
DA:631,0
DA:632,0
DA:633,0
DA:636,0
DA:637,0
DA:638,0
DA:640,0
DA:641,0
DA:642,0
DA:644,0
DA:645,0
DA:647,0
DA:648,0
DA:649,0
DA:650,0
DA:651,0
DA:652,0
DA:656,0
DA:658,0
DA:659,0
DA:664,0
DA:667,0
DA:668,0
DA:669,0
DA:674,0
DA:676,0
DA:677,0
DA:678,0
DA:679,0
DA:681,0
DA:683,0
DA:684,0
DA:685,0
DA:691,0
DA:692,0
DA:693,0
DA:699,0
DA:700,0
DA:701,0
DA:703,0
DA:704,0
DA:706,0
DA:707,0
DA:708,0
DA:711,0
DA:712,0
DA:713,0
DA:714,0
DA:715,0
DA:716,0
DA:718,0
DA:719,0
DA:720,0
DA:721,0
DA:722,0
DA:726,0
DA:727,0
DA:728,0
DA:729,0
DA:730,0
DA:732,0
DA:733,0
DA:734,0
DA:735,0
DA:737,0
DA:738,0
DA:739,0
DA:740,0
DA:742,0
DA:747,0
DA:749,0
DA:750,0
DA:751,0
DA:753,0
DA:755,0
DA:757,0
DA:758,0
DA:764,0
DA:771,0
DA:773,0
DA:774,0
DA:776,0
DA:778,0
DA:779,0
DA:780,0
DA:781,0
DA:784,0
DA:788,0
DA:789,0
DA:794,0
DA:796,0
DA:797,0
DA:798,0
DA:800,0
DA:801,0
DA:803,0
DA:804,0
DA:806,0
DA:810,0
DA:817,0
DA:820,0
DA:821,0
DA:822,0
DA:823,0
DA:829,0
DA:831,0
DA:832,0
DA:833,0
DA:835,0
DA:836,0
DA:839,0
DA:846,0
DA:847,0
DA:849,0
DA:850,0
DA:852,0
DA:855,0
DA:857,0
DA:858,0
DA:859,0
DA:861,0
DA:862,0
DA:863,0
DA:864,0
DA:865,0
DA:866,0
DA:867,0
DA:869,0
DA:870,0
LF:429
LH:0
end_of_record
TN:
SF:/usr/include/boost/test/impl/plain_report_formatter.ipp
FN:101,150,_ZN5boost9unit_test6output22plain_report_formatter22test_unit_report_startERKNS0_9test_unitERSo
FN:155,158,_ZN5boost9unit_test6output22plain_report_formatter23test_unit_report_finishERKNS0_9test_unitERSo
FN:163,208,_ZN5boost9unit_test6output22plain_report_formatter22do_confirmation_reportERKNS0_9test_unitERSo
FN:52,57,_ZN5boost9unit_test6output12_GLOBAL__N_1lsINSt7__cxx1112basic_stringIcSt11char_traitsIcESaIcEEEEERSoRKNS0_5utils14custom_printerINSB_12custom_manipINS2_7quote_tEEEEERKT_
FN:62,72,_ZN5boost9unit_test6output12_GLOBAL__N_116print_stat_valueERSommmNS0_13basic_cstringIKcEES6_
FN:83,88,_ZN5boost9unit_test6output22plain_report_formatter20results_report_startERSo
FN:93,96,_ZN5boost9unit_test6output22plain_report_formatter21results_report_finishERSo
FNDA:0,_ZN5boost9unit_test6output22plain_report_formatter22test_unit_report_startERKNS0_9test_unitERSo
FNDA:0,_ZN5boost9unit_test6output22plain_report_formatter23test_unit_report_finishERKNS0_9test_unitERSo
FNDA:1,_ZN5boost9unit_test6output22plain_report_formatter22do_confirmation_reportERKNS0_9test_unitERSo
FNDA:0,_ZN5boost9unit_test6output12_GLOBAL__N_1lsINSt7__cxx1112basic_stringIcSt11char_traitsIcESaIcEEEEERSoRKNS0_5utils14custom_printerINSB_12custom_manipINS2_7quote_tEEEEERKT_
FNDA:0,_ZN5boost9unit_test6output12_GLOBAL__N_116print_stat_valueERSommmNS0_13basic_cstringIKcEES6_
FNDA:1,_ZN5boost9unit_test6output22plain_report_formatter20results_report_startERSo
FNDA:1,_ZN5boost9unit_test6output22plain_report_formatter21results_report_finishERSo
FNF:7
FNH:3
DA:52,0
DA:54,0
DA:56,0
DA:62,0
DA:64,0
DA:65,0
DA:67,0
DA:68,0
DA:69,0
DA:71,0
DA:83,1
DA:85,1
DA:86,1
DA:87,1
DA:88,1
DA:93,1
DA:95,1
DA:96,1
DA:101,0
DA:103,0
DA:105,0
DA:107,0
DA:108,0
DA:109,0
DA:110,0
DA:111,0
DA:112,0
DA:113,0
DA:114,0
DA:116,0
DA:118,0
DA:119,0
DA:121,0
DA:122,0
DA:123,0
DA:124,0
DA:128,0
DA:129,0
DA:131,0
DA:132,0
DA:134,0
DA:135,0
DA:137,0
DA:138,0
DA:139,0
DA:140,0
DA:141,0
DA:142,0
DA:143,0
DA:144,0
DA:145,0
DA:146,0
DA:147,0
DA:149,0
DA:155,0
DA:157,0
DA:158,0
DA:163,1
DA:165,1
DA:167,1
DA:168,1
DA:170,1
DA:171,1
DA:172,1
DA:174,0
DA:176,0
DA:177,0
DA:178,0
DA:179,0
DA:182,0
DA:183,0
DA:184,0
DA:185,0
DA:188,0
DA:189,0
DA:190,0
DA:193,0
DA:194,0
DA:195,0
DA:196,0
DA:197,0
DA:200,0
DA:202,0
DA:204,0
DA:205,0
DA:207,0
DA:208,0
LF:87
LH:15
end_of_record
TN:
SF:/usr/include/boost/test/impl/progress_monitor.ipp
FN:104,108,_ZN5boost9unit_test12_GLOBAL__N_121progress_monitor_implC2Ev
FN:115,115,_ZN5boost9unit_test12_GLOBAL__N_19s_pm_implEv
FN:124,124,_ZN5boost9unit_test18progress_monitor_t8instanceEv
FN:129,136,_ZN5boost9unit_test18progress_monitor_t10test_startEmm
FN:141,146,_ZN5boost9unit_test18progress_monitor_t12test_abortedEv
FN:151,157,_ZN5boost9unit_test18progress_monitor_t16test_unit_finishERKNS0_9test_unitEm
FN:162,170,_ZN5boost9unit_test18progress_monitor_t17test_unit_skippedERKNS0_9test_unitENS0_13basic_cstringIKcEE
FN:175,178,_ZN5boost9unit_test18progress_monitor_t10set_streamERSo
FN:43,57,_ZN5boost9unit_test16progress_displayC2EmRSo
FN:59,84,_ZN5boost9unit_test16progress_displaypLEm
FN:85,85,_ZN5boost9unit_test16progress_displayppEv
FN:86,86,_ZNK5boost9unit_test16progress_display5countEv
FNDA:0,_ZN5boost9unit_test12_GLOBAL__N_121progress_monitor_implC2Ev
FNDA:0,_ZN5boost9unit_test12_GLOBAL__N_19s_pm_implEv
FNDA:1,_ZN5boost9unit_test18progress_monitor_t8instanceEv
FNDA:0,_ZN5boost9unit_test18progress_monitor_t10test_startEmm
FNDA:0,_ZN5boost9unit_test18progress_monitor_t12test_abortedEv
FNDA:0,_ZN5boost9unit_test18progress_monitor_t16test_unit_finishERKNS0_9test_unitEm
FNDA:0,_ZN5boost9unit_test18progress_monitor_t17test_unit_skippedERKNS0_9test_unitENS0_13basic_cstringIKcEE
FNDA:0,_ZN5boost9unit_test18progress_monitor_t10set_streamERSo
FNDA:0,_ZN5boost9unit_test16progress_displayC2EmRSo
FNDA:0,_ZN5boost9unit_test16progress_displaypLEm
FNDA:0,_ZN5boost9unit_test16progress_displayppEv
FNDA:0,_ZNK5boost9unit_test16progress_display5countEv
FNF:12
FNH:1
DA:43,0
DA:44,0
DA:45,0
DA:46,0
DA:47,0
DA:48,0
DA:51,0
DA:52,0
DA:53,0
DA:55,0
DA:56,0
DA:57,0
DA:59,0
DA:61,0
DA:62,0
DA:67,0
DA:68,0
DA:71,0
DA:72,0
DA:74,0
DA:76,0
DA:77,0
DA:78,0
DA:80,0
DA:83,0
DA:85,0
DA:86,0
DA:104,0
DA:105,0
DA:106,0
DA:108,0
DA:115,0
DA:124,1
DA:129,0
DA:131,0
DA:133,0
DA:135,0
DA:136,0
DA:141,0
DA:143,0
DA:145,0
DA:146,0
DA:151,0
DA:153,0
DA:155,0
DA:156,0
DA:157,0
DA:162,0
DA:164,0
DA:166,0
DA:167,0
DA:169,0
DA:170,0
DA:175,0
DA:177,0
DA:178,0
LF:56
LH:1
end_of_record
TN:
SF:/usr/include/boost/test/impl/results_collector.ipp
FN:114,132,_ZN5boost9unit_test12test_results5clearEv
FN:146,146,_ZN5boost9unit_test12_GLOBAL__N_19s_rc_implEv
FN:151,153,_ZN5boost9unit_test12_GLOBAL__N_120clear_subtree_resultC2ERNS1_22results_collector_implE
FN:156,164,_ZN5boost9unit_test12_GLOBAL__N_120clear_subtree_result5visitERKNS0_9test_unitE
FN:173,173,_ZN5boost9unit_test19results_collector_t8instanceEv
FN:178,183,_ZN5boost9unit_test19results_collector_t10test_startEmm
FN:188,196,_ZN5boost9unit_test19results_collector_t15test_unit_startERKNS0_9test_unitE
FN:202,202,_ZN5boost9unit_test22results_collect_helperC2ERNS0_12test_resultsERKNS0_9test_unitE
FN:204,227,_ZN5boost9unit_test22results_collect_helper5visitERKNS0_9test_caseE
FN:228,239,_ZN5boost9unit_test22results_collect_helper16test_suite_startERKNS0_10test_suiteE
FN:250,267,_ZN5boost9unit_test19results_collector_t16test_unit_finishERKNS0_9test_unitEm
FN:272,285,_ZN5boost9unit_test19results_collector_t17test_unit_skippedERKNS0_9test_unitENS0_13basic_cstringIKcEE
FN:290,294,_ZN5boost9unit_test19results_collector_t19test_unit_timed_outERKNS0_9test_unitE
FN:299,311,_ZN5boost9unit_test19results_collector_t16assertion_resultENS0_16assertion_resultE
FN:316,324,_ZN5boost9unit_test19results_collector_t16exception_caughtERKNS_19execution_exceptionE
FN:329,332,_ZN5boost9unit_test19results_collector_t17test_unit_abortedERKNS0_9test_unitE
FN:337,340,_ZNK5boost9unit_test19results_collector_t7resultsEm
FN:44,47,_ZN5boost9unit_test12test_resultsC2Ev
FN:52,63,_ZNK5boost9unit_test12test_results6passedEv
FN:68,71,_ZNK5boost9unit_test12test_results7abortedEv
FN:76,79,_ZNK5boost9unit_test12test_results7skippedEv
FN:84,90,_ZNK5boost9unit_test12test_results11result_codeEv
FN:95,109,_ZN5boost9unit_test12test_resultspLERKS1_
FNDA:108,_ZN5boost9unit_test12test_results5clearEv
FNDA:325,_ZN5boost9unit_test12_GLOBAL__N_19s_rc_implEv
FNDA:1,_ZN5boost9unit_test12_GLOBAL__N_120clear_subtree_resultC2ERNS1_22results_collector_implE
FNDA:54,_ZN5boost9unit_test12_GLOBAL__N_120clear_subtree_result5visitERKNS0_9test_unitE
FNDA:1,_ZN5boost9unit_test19results_collector_t8instanceEv
FNDA:1,_ZN5boost9unit_test19results_collector_t10test_startEmm
FNDA:54,_ZN5boost9unit_test19results_collector_t15test_unit_startERKNS0_9test_unitE
FNDA:1,_ZN5boost9unit_test22results_collect_helperC2ERNS0_12test_resultsERKNS0_9test_unitE
FNDA:53,_ZN5boost9unit_test22results_collect_helper5visitERKNS0_9test_caseE
FNDA:1,_ZN5boost9unit_test22results_collect_helper16test_suite_startERKNS0_10test_suiteE
FNDA:54,_ZN5boost9unit_test19results_collector_t16test_unit_finishERKNS0_9test_unitEm
FNDA:0,_ZN5boost9unit_test19results_collector_t17test_unit_skippedERKNS0_9test_unitENS0_13basic_cstringIKcEE
FNDA:0,_ZN5boost9unit_test19results_collector_t19test_unit_timed_outERKNS0_9test_unitE
FNDA:161,_ZN5boost9unit_test19results_collector_t16assertion_resultENS0_16assertion_resultE
FNDA:0,_ZN5boost9unit_test19results_collector_t16exception_caughtERKNS_19execution_exceptionE
FNDA:0,_ZN5boost9unit_test19results_collector_t17test_unit_abortedERKNS0_9test_unitE
FNDA:55,_ZNK5boost9unit_test19results_collector_t7resultsEm
FNDA:54,_ZN5boost9unit_test12test_resultsC2Ev
FNDA:55,_ZNK5boost9unit_test12test_results6passedEv
FNDA:55,_ZNK5boost9unit_test12test_results7abortedEv
FNDA:0,_ZNK5boost9unit_test12test_results7skippedEv
FNDA:1,_ZNK5boost9unit_test12test_results11result_codeEv
FNDA:53,_ZN5boost9unit_test12test_resultspLERKS1_
FNF:23
FNH:18
DA:44,54
DA:46,54
DA:47,54
DA:52,55
DA:56,55
DA:57,55
DA:58,110
DA:60,55
DA:61,165
DA:62,110
DA:68,55
DA:70,55
DA:76,0
DA:78,0
DA:84,1
DA:86,1
DA:87,0
DA:89,1
DA:95,53
DA:97,53
DA:98,53
DA:99,53
DA:100,53
DA:101,53
DA:102,53
DA:103,53
DA:104,53
DA:105,53
DA:106,53
DA:107,53
DA:108,53
DA:109,53
DA:114,108
DA:116,108
DA:117,108
DA:118,108
DA:119,108
DA:120,108
DA:121,108
DA:122,108
DA:123,108
DA:124,108
DA:125,108
DA:126,108
DA:127,108
DA:128,108
DA:129,108
DA:130,108
DA:131,108
DA:132,108
DA:146,325
DA:151,1
DA:152,1
DA:153,1
DA:156,54
DA:159,54
DA:160,54
DA:161,0
DA:163,54
DA:173,1
DA:178,1
DA:181,1
DA:182,1
DA:183,1
DA:188,54
DA:191,54
DA:193,54
DA:195,54
DA:196,54
DA:202,1
DA:204,53
DA:206,53
DA:207,53
DA:209,53
DA:210,53
DA:211,0
DA:213,53
DA:215,0
DA:216,0
DA:218,0
DA:219,0
DA:222,0
DA:223,0
DA:225,0
DA:227,53
DA:228,1
DA:230,1
DA:231,1
DA:233,0
DA:234,0
DA:236,0
DA:237,0
DA:238,0
DA:250,54
DA:252,54
DA:253,54
DA:254,1
DA:255,1
DA:256,1
DA:258,53
DA:259,53
DA:260,0
DA:262,53
DA:263,53
DA:264,0
DA:266,54
DA:267,54
DA:272,0
DA:274,0
DA:275,0
DA:277,0
DA:279,0
DA:280,0
DA:281,0
DA:283,0
DA:284,0
DA:285,0
DA:290,0
DA:292,0
DA:293,0
DA:294,0
DA:299,161
DA:301,161
DA:303,161
DA:304,161
DA:305,0
DA:306,0
DA:309,161
DA:310,0
DA:311,161
DA:316,0
DA:318,0
DA:320,0
DA:321,0
DA:322,0
DA:324,0
DA:329,0
DA:331,0
DA:332,0
DA:337,55
DA:339,55
LF:141
LH:96
end_of_record
TN:
SF:/usr/include/boost/test/impl/results_reporter.ipp
FN:100,104,_ZN5boost9unit_test16results_reporter9set_levelENS0_12report_levelE
FN:109,113,_ZN5boost9unit_test16results_reporter10set_streamERSo
FN:118,121,_ZN5boost9unit_test16results_reporter10get_streamEv
FN:126,137,_ZN5boost9unit_test16results_reporter10set_formatENS0_13output_formatE
FN:142,146,_ZN5boost9unit_test16results_reporter10set_formatEPNS1_6formatE
FN:155,187,_ZN5boost9unit_test16results_reporter11make_reportENS0_12report_levelEm
FN:54,59,_ZN5boost9unit_test16results_reporter12_GLOBAL__N_121results_reporter_implC2Ev
FN:62,66,_ZN5boost9unit_test16results_reporter12_GLOBAL__N_121results_reporter_impl5visitERKNS0_9test_caseE
FN:67,76,_ZN5boost9unit_test16results_reporter12_GLOBAL__N_121results_reporter_impl16test_suite_startERKNS0_10test_suiteE
FN:77,80,_ZN5boost9unit_test16results_reporter12_GLOBAL__N_121results_reporter_impl17test_suite_finishERKNS0_10test_suiteE
FN:91,91,_ZN5boost9unit_test16results_reporter12_GLOBAL__N_19s_rr_implEv
FNDA:1,_ZN5boost9unit_test16results_reporter9set_levelENS0_12report_levelE
FNDA:1,_ZN5boost9unit_test16results_reporter10set_streamERSo
FNDA:0,_ZN5boost9unit_test16results_reporter10get_streamEv
FNDA:1,_ZN5boost9unit_test16results_reporter10set_formatENS0_13output_formatE
FNDA:1,_ZN5boost9unit_test16results_reporter10set_formatEPNS1_6formatE
FNDA:1,_ZN5boost9unit_test16results_reporter11make_reportENS0_12report_levelEm
FNDA:1,_ZN5boost9unit_test16results_reporter12_GLOBAL__N_121results_reporter_implC2Ev
FNDA:0,_ZN5boost9unit_test16results_reporter12_GLOBAL__N_121results_reporter_impl5visitERKNS0_9test_caseE
FNDA:0,_ZN5boost9unit_test16results_reporter12_GLOBAL__N_121results_reporter_impl16test_suite_startERKNS0_10test_suiteE
FNDA:0,_ZN5boost9unit_test16results_reporter12_GLOBAL__N_121results_reporter_impl17test_suite_finishERKNS0_10test_suiteE
FNDA:15,_ZN5boost9unit_test16results_reporter12_GLOBAL__N_19s_rr_implEv
FNF:11
FNH:7
DA:54,1
DA:55,2
DA:56,1
DA:57,1
DA:58,2
DA:59,1
DA:62,0
DA:64,0
DA:65,0
DA:66,0
DA:67,0
DA:69,0
DA:71,0
DA:72,0
DA:74,0
DA:75,0
DA:77,0
DA:79,0
DA:80,0
DA:91,15
DA:100,1
DA:102,1
DA:103,1
DA:104,1
DA:109,1
DA:111,1
DA:112,1
DA:113,1
DA:118,0
DA:120,0
DA:126,1
DA:128,1
DA:129,1
DA:131,1
DA:132,1
DA:133,0
DA:134,0
DA:135,0
DA:137,1
DA:142,1
DA:144,1
DA:145,1
DA:146,1
DA:155,1
DA:157,1
DA:158,1
DA:160,1
DA:161,0
DA:163,1
DA:164,0
DA:166,1
DA:168,1
DA:169,1
DA:171,1
DA:173,1
DA:174,1
DA:175,1
DA:176,1
DA:177,0
DA:179,0
DA:180,0
DA:181,0
DA:182,0
DA:185,1
DA:186,1
LF:65
LH:40
end_of_record
TN:
SF:/usr/include/boost/test/impl/test_framework_init_observer.ipp
FN:33,36,_ZN5boost9unit_test25framework_init_observer_t5clearEv
FN:41,44,_ZN5boost9unit_test25framework_init_observer_t10test_startEmm
FN:49,56,_ZN5boost9unit_test25framework_init_observer_t16assertion_resultENS0_16assertion_resultE
FN:61,64,_ZN5boost9unit_test25framework_init_observer_t16exception_caughtERKNS_19execution_exceptionE
FN:67,70,_ZN5boost9unit_test25framework_init_observer_t12test_abortedEv
FN:76,79,_ZNK5boost9unit_test25framework_init_observer_t10has_failedEv
FNDA:2,_ZN5boost9unit_test25framework_init_observer_t5clearEv
FNDA:1,_ZN5boost9unit_test25framework_init_observer_t10test_startEmm
FNDA:0,_ZN5boost9unit_test25framework_init_observer_t16assertion_resultENS0_16assertion_resultE
FNDA:0,_ZN5boost9unit_test25framework_init_observer_t16exception_caughtERKNS_19execution_exceptionE
FNDA:0,_ZN5boost9unit_test25framework_init_observer_t12test_abortedEv
FNDA:4,_ZNK5boost9unit_test25framework_init_observer_t10has_failedEv
FNF:6
FNH:3
DA:33,2
DA:35,2
DA:36,2
DA:41,1
DA:43,1
DA:44,1
DA:49,0
DA:51,0
DA:52,0
DA:53,0
DA:54,0
DA:56,0
DA:61,0
DA:63,0
DA:64,0
DA:67,0
DA:69,0
DA:70,0
DA:76,4
DA:78,4
LF:20
LH:8
end_of_record
TN:
SF:/usr/include/boost/test/impl/test_tools.ipp
FN:102,112,_ZN5boost10test_tools9tt_detail15print_log_valueIhEclERSoh
FN:117,128,_ZN5boost10test_tools9tt_detail15print_log_valueIwEclERSow
FN:133,136,_ZN5boost10test_tools9tt_detail15print_log_valueIPKcEclERSoS4_
FN:141,149,_ZN5boost10test_tools9tt_detail15print_log_valueIPKwEclERSoS4_
FN:164,319,_ZN5boost10test_tools9tt_detail13format_reportINS_9unit_test15unit_test_log_tEEEvRT_RKNS0_16assertion_resultERKNS3_12lazy_ostreamENS1_10tool_levelENS1_10check_typeEmP13__va_list_tagPKcSI_
FN:164,319,_ZN5boost10test_tools9tt_detail13format_reportINSt7__cxx1119basic_ostringstreamIcSt11char_traitsIcESaIcEEEEEvRT_RKNS0_16assertion_resultERKNS_9unit_test12lazy_ostreamENS1_10tool_levelENS1_10check_typeEmP13__va_list_tagPKcSN_
FN:324,412,_ZN5boost10test_tools9tt_detail16report_assertionERKNS0_16assertion_resultERKNS_9unit_test12lazy_ostreamENS5_13basic_cstringIKcEEmNS1_10tool_levelENS1_10check_typeEmz
FN:417,439,_ZN5boost10test_tools9tt_detail23format_assertion_resultENS_9unit_test13basic_cstringIKcEES5_
FN:444,456,_ZN5boost10test_tools9tt_detail18prod_report_formatB5cxx11ERKNS0_16assertion_resultERKNS_9unit_test12lazy_ostreamENS1_10check_typeEmz
FN:461,464,_ZN5boost10test_tools9tt_detail10equal_implEPKcS3_
FN:471,474,_ZN5boost10test_tools9tt_detail10equal_implEPKwS3_
FN:481,485,_ZN5boost10test_tools9tt_detail15is_defined_implENS_9unit_test13basic_cstringIKcEES5_
FN:493,496,_ZN5boost10test_tools9tt_detail13context_frameC2ERKNS_9unit_test12lazy_ostreamE
FN:500,503,_ZN5boost10test_tools9tt_detail13context_frameD2Ev
FN:507,510,_ZN5boost10test_tools9tt_detail13context_framecvbEv
FN:527,535,_ZN5boost10test_tools18output_test_stream4Impl8get_charEv
FN:537,541,_ZN5boost10test_tools18output_test_stream4Impl14check_and_fillERNS0_16assertion_resultE
FN:546,562,_ZN5boost10test_tools18output_test_streamC1ENS_9unit_test13basic_cstringIKcEEbb
FN:546,562,_ZN5boost10test_tools18output_test_streamC2ENS_9unit_test13basic_cstringIKcEEbb
FN:566,569,_ZN5boost10test_tools18output_test_streamD0Ev
FN:566,569,_ZN5boost10test_tools18output_test_streamD1Ev
FN:566,569,_ZN5boost10test_tools18output_test_streamD2Ev
FN:574,586,_ZN5boost10test_tools18output_test_stream8is_emptyEb
FN:591,603,_ZN5boost10test_tools18output_test_stream12check_lengthEmb
FN:608,620,_ZN5boost10test_tools18output_test_stream8is_equalENS_9unit_test13basic_cstringIKcEEb
FN:624,633,_ZN5boost10test_tools16pretty_print_logENSt7__cxx1112basic_stringIcSt11char_traitsIcESaIcEEE
FN:636,802,_ZN5boost10test_tools18output_test_stream13match_patternEb
FN:79,82,_ZN5boost10test_tools9tt_detail15print_log_valueIbEclERSob
FN:807,816,_ZN5boost10test_tools18output_test_stream5flushEv
FN:820,822,_ZNK5boost10test_tools18output_test_stream32get_stream_string_representationB5cxx11Ev
FN:827,832,_ZN5boost10test_tools18output_test_stream6lengthEv
FN:837,845,_ZN5boost10test_tools18output_test_stream4syncEv
FN:85,97,_ZN5boost10test_tools9tt_detail15print_log_valueIcEclERSoc
FNDA:0,_ZN5boost10test_tools9tt_detail15print_log_valueIhEclERSoh
FNDA:0,_ZN5boost10test_tools9tt_detail15print_log_valueIwEclERSow
FNDA:0,_ZN5boost10test_tools9tt_detail15print_log_valueIPKcEclERSoS4_
FNDA:0,_ZN5boost10test_tools9tt_detail15print_log_valueIPKwEclERSoS4_
FNDA:161,_ZN5boost10test_tools9tt_detail13format_reportINS_9unit_test15unit_test_log_tEEEvRT_RKNS0_16assertion_resultERKNS3_12lazy_ostreamENS1_10tool_levelENS1_10check_typeEmP13__va_list_tagPKcSI_
FNDA:0,_ZN5boost10test_tools9tt_detail13format_reportINSt7__cxx1119basic_ostringstreamIcSt11char_traitsIcESaIcEEEEEvRT_RKNS0_16assertion_resultERKNS_9unit_test12lazy_ostreamENS1_10tool_levelENS1_10check_typeEmP13__va_list_tagPKcSN_
FNDA:161,_ZN5boost10test_tools9tt_detail16report_assertionERKNS0_16assertion_resultERKNS_9unit_test12lazy_ostreamENS5_13basic_cstringIKcEEmNS1_10tool_levelENS1_10check_typeEmz
FNDA:0,_ZN5boost10test_tools9tt_detail23format_assertion_resultENS_9unit_test13basic_cstringIKcEES5_
FNDA:0,_ZN5boost10test_tools9tt_detail18prod_report_formatB5cxx11ERKNS0_16assertion_resultERKNS_9unit_test12lazy_ostreamENS1_10check_typeEmz
FNDA:0,_ZN5boost10test_tools9tt_detail10equal_implEPKcS3_
FNDA:0,_ZN5boost10test_tools9tt_detail10equal_implEPKwS3_
FNDA:0,_ZN5boost10test_tools9tt_detail15is_defined_implENS_9unit_test13basic_cstringIKcEES5_
FNDA:0,_ZN5boost10test_tools9tt_detail13context_frameC2ERKNS_9unit_test12lazy_ostreamE
FNDA:0,_ZN5boost10test_tools9tt_detail13context_frameD2Ev
FNDA:0,_ZN5boost10test_tools9tt_detail13context_framecvbEv
FNDA:0,_ZN5boost10test_tools18output_test_stream4Impl8get_charEv
FNDA:0,_ZN5boost10test_tools18output_test_stream4Impl14check_and_fillERNS0_16assertion_resultE
FNDA:0,_ZN5boost10test_tools18output_test_streamC1ENS_9unit_test13basic_cstringIKcEEbb
FNDA:0,_ZN5boost10test_tools18output_test_streamC2ENS_9unit_test13basic_cstringIKcEEbb
FNDA:0,_ZN5boost10test_tools18output_test_streamD0Ev
FNDA:0,_ZN5boost10test_tools18output_test_streamD1Ev
FNDA:0,_ZN5boost10test_tools18output_test_streamD2Ev
FNDA:0,_ZN5boost10test_tools18output_test_stream8is_emptyEb
FNDA:0,_ZN5boost10test_tools18output_test_stream12check_lengthEmb
FNDA:0,_ZN5boost10test_tools18output_test_stream8is_equalENS_9unit_test13basic_cstringIKcEEb
FNDA:0,_ZN5boost10test_tools16pretty_print_logENSt7__cxx1112basic_stringIcSt11char_traitsIcESaIcEEE
FNDA:0,_ZN5boost10test_tools18output_test_stream13match_patternEb
FNDA:0,_ZN5boost10test_tools9tt_detail15print_log_valueIbEclERSob
FNDA:0,_ZN5boost10test_tools18output_test_stream5flushEv
FNDA:0,_ZNK5boost10test_tools18output_test_stream32get_stream_string_representationB5cxx11Ev
FNDA:0,_ZN5boost10test_tools18output_test_stream6lengthEv
FNDA:0,_ZN5boost10test_tools18output_test_stream4syncEv
FNDA:0,_ZN5boost10test_tools9tt_detail15print_log_valueIcEclERSoc
FNF:33
FNH:2
DA:79,0
DA:81,0
DA:82,0
DA:85,0
DA:87,0
DA:88,0
DA:90,0
DA:92,0
DA:96,0
DA:97,0
DA:102,0
DA:104,0
DA:107,0
DA:111,0
DA:112,0
DA:117,0
DA:120,0
DA:121,0
DA:122,0
DA:123,0
DA:126,0
DA:128,0
DA:133,0
DA:135,0
DA:136,0
DA:141,0
DA:143,0
DA:144,0
DA:147,0
DA:149,0
DA:164,161
DA:171,161
DA:172,127
DA:173,127
DA:175,127
DA:176,0
DA:177,127
DA:179,0
DA:180,0
DA:182,0
DA:183,0
DA:185,0
DA:186,0
DA:189,0
DA:192,2
DA:193,2
DA:194,2
DA:196,0
DA:198,2
DA:199,0
DA:200,2
DA:202,32
DA:208,32
DA:209,32
DA:210,32
DA:211,32
DA:213,32
DA:215,32
DA:216,0
DA:218,32
DA:219,0
DA:220,32
DA:223,0
DA:225,0
DA:226,0
DA:227,0
DA:228,0
DA:229,0
DA:230,0
DA:232,0
DA:233,0
DA:234,0
DA:235,0
DA:236,0
DA:237,0
DA:238,0
DA:239,0
DA:241,0
DA:242,0
DA:243,0
DA:244,0
DA:245,0
DA:247,0
DA:248,0
DA:249,0
DA:251,0
DA:252,0
DA:253,0
DA:256,0
DA:257,0
DA:258,0
DA:259,0
DA:260,0
DA:261,0
DA:262,0
DA:265,0
DA:268,0
DA:269,0
DA:270,0
DA:272,0
DA:273,0
DA:275,0
DA:277,0
DA:278,0
DA:279,0
DA:280,0
DA:282,0
DA:283,0
DA:285,0
DA:288,0
DA:289,0
DA:290,0
DA:291,0
DA:293,0
DA:294,0
DA:295,0
DA:296,0
DA:297,0
DA:299,0
DA:300,0
DA:301,0
DA:303,0
DA:304,0
DA:305,0
DA:308,0
DA:309,0
DA:310,0
DA:312,0
DA:314,0
DA:315,0
DA:316,0
DA:319,161
DA:324,161
DA:334,161
DA:343,0
DA:344,0
DA:348,161
DA:349,161
DA:355,161
DA:356,161
DA:357,161
DA:358,161
DA:359,161
DA:360,161
DA:361,0
DA:362,0
DA:363,0
DA:364,0
DA:365,0
DA:366,0
DA:367,0
DA:368,0
DA:369,0
DA:370,0
DA:371,0
DA:372,0
DA:373,0
DA:374,0
DA:375,0
DA:376,0
DA:377,0
DA:380,161
DA:382,161
DA:384,161
DA:386,161
DA:387,161
DA:389,161
DA:390,161
DA:391,161
DA:392,161
DA:394,0
DA:395,0
DA:396,0
DA:398,0
DA:399,0
DA:400,0
DA:402,0
DA:403,0
DA:404,0
DA:405,0
DA:411,0
DA:417,0
DA:419,0
DA:421,0
DA:423,0
DA:424,0
DA:426,0
DA:427,0
DA:428,0
DA:430,0
DA:432,0
DA:435,0
DA:436,0
DA:438,0
DA:439,0
DA:444,0
DA:446,0
DA:449,0
DA:451,0
DA:453,0
DA:455,0
DA:456,0
DA:461,0
DA:463,0
DA:471,0
DA:473,0
DA:481,0
DA:483,0
DA:484,0
DA:493,0
DA:494,0
DA:496,0
DA:500,0
DA:502,0
DA:503,0
DA:507,0
DA:509,0
DA:527,0
DA:529,0
DA:531,0
DA:532,0
DA:534,0
DA:537,0
DA:539,0
DA:540,0
DA:541,0
DA:546,0
DA:547,0
DA:549,0
DA:550,0
DA:551,0
DA:552,0
DA:554,0
DA:556,0
DA:557,0
DA:560,0
DA:561,0
DA:562,0
DA:566,0
DA:568,0
DA:569,0
DA:574,0
DA:576,0
DA:578,0
DA:580,0
DA:582,0
DA:583,0
DA:585,0
DA:586,0
DA:591,0
DA:593,0
DA:595,0
DA:597,0
DA:599,0
DA:600,0
DA:602,0
DA:603,0
DA:608,0
DA:610,0
DA:612,0
DA:614,0
DA:616,0
DA:617,0
DA:619,0
DA:620,0
DA:624,0
DA:626,0
DA:627,0
DA:632,0
DA:636,0
DA:638,0
DA:639,0
DA:641,0
DA:643,0
DA:645,0
DA:646,0
DA:647,0
DA:650,0
DA:652,0
DA:653,0
DA:654,0
DA:656,0
DA:658,0
DA:659,0
DA:662,0
DA:665,0
DA:666,0
DA:667,0
DA:669,0
DA:671,0
DA:673,0
DA:675,0
DA:676,0
DA:679,0
DA:680,0
DA:681,0
DA:683,0
DA:687,0
DA:691,0
DA:694,0
DA:695,0
DA:697,0
DA:698,0
DA:699,0
DA:701,0
DA:702,0
DA:703,0
DA:704,0
DA:706,0
DA:707,0
DA:709,0
DA:711,0
DA:716,0
DA:717,0
DA:718,0
DA:719,0
DA:720,0
DA:722,0
DA:723,0
DA:726,0
DA:727,0
DA:728,0
DA:730,0
DA:731,0
DA:732,0
DA:733,0
DA:735,0
DA:738,0
DA:739,0
DA:740,0
DA:741,0
DA:747,0
DA:748,0
DA:749,0
DA:752,0
DA:754,0
DA:755,0
DA:756,0
DA:757,0
DA:758,0
DA:759,0
DA:761,0
DA:762,0
DA:765,0
DA:768,0
DA:769,0
DA:773,0
DA:774,0
DA:776,0
DA:777,0
DA:779,0
DA:790,0
DA:792,0
DA:793,0
DA:794,0
DA:798,0
DA:799,0
DA:801,0
DA:802,0
DA:807,0
DA:809,0
DA:812,0
DA:816,0
DA:820,0
DA:821,0
DA:827,0
DA:829,0
DA:831,0
DA:837,0
DA:843,0
DA:845,0
LF:371
LH:40
end_of_record
TN:
SF:/usr/include/boost/test/impl/test_tree.ipp
FN:103,106,_ZN5boost9unit_test9test_unit16add_preconditionERKNS_8functionIFNS_10test_tools16assertion_resultEmEEE
FN:111,148,_ZNK5boost9unit_test9test_unit19check_preconditionsEv
FN:153,159,_ZN5boost9unit_test9test_unit17increase_exp_failEm
FN:164,175,_ZNK5boost9unit_test9test_unit9full_nameB5cxx11Ev
FN:180,183,_ZN5boost9unit_test9test_unit9add_labelENS0_13basic_cstringIKcEE
FN:188,191,_ZNK5boost9unit_test9test_unit9has_labelENS0_13basic_cstringIKcEE
FN:199,204,_ZN5boost9unit_test9test_caseC2ENS0_13basic_cstringIKcEERKNS_8functionIFvvEEE
FN:208,213,_ZN5boost9unit_test9test_caseC2ENS0_13basic_cstringIKcEES4_mRKNS_8functionIFvvEEE
FN:223,227,_ZN5boost9unit_test10test_suiteC2ENS0_13basic_cstringIKcEES4_m
FN:231,235,_ZN5boost9unit_test10test_suiteC2ENS0_13basic_cstringIKcEE
FN:240,252,_ZN5boost9unit_test10test_suite3addEPNS0_9test_unitEmj
FN:257,262,_ZN5boost9unit_test10test_suite3addERKNS0_19test_unit_generatorEj
FN:267,275,_ZN5boost9unit_test10test_suite3addERKNS0_19test_unit_generatorERNS0_9decorator11collector_tE
FN:280,285,_ZN5boost9unit_test10test_suite3addENS_10shared_ptrINS0_19test_unit_generatorEEERNS0_9decorator11collector_tE
FN:290,315,_ZN5boost9unit_test10test_suite8generateEv
FN:320,337,_ZN5boost9unit_test10test_suite30check_for_duplicate_test_casesEv
FN:342,348,_ZN5boost9unit_test10test_suite6removeEm
FN:353,361,_ZNK5boost9unit_test10test_suite3getENS0_13basic_cstringIKcEE
FN:369,375,_ZN5boost9unit_test19master_test_suite_tC2Ev
FN:382,386,_ZN5boost9unit_test18traverse_test_treeERKNS0_9test_caseERNS0_17test_tree_visitorEb
FN:391,414,_ZN5boost9unit_test18traverse_test_treeERKNS0_10test_suiteERNS0_17test_tree_visitorEb
FN:419,425,_ZN5boost9unit_test18traverse_test_treeEmRNS0_17test_tree_visitorEb
FN:436,463,_ZN5boost9unit_test9ut_detail24normalize_test_case_nameB5cxx11ENS0_13basic_cstringIKcEE
FN:471,477,_ZN5boost9unit_test9ut_detail24auto_test_unit_registrarC2EPNS0_9test_caseERNS0_9decorator11collector_tEm
FN:481,500,_ZN5boost9unit_test9ut_detail24auto_test_unit_registrarC2ENS0_13basic_cstringIKcEES5_mRNS0_9decorator11collector_tE
FN:49,63,_ZN5boost9unit_test9test_unitC2ENS0_13basic_cstringIKcEES4_mNS0_14test_unit_typeE
FN:504,507,_ZN5boost9unit_test9ut_detail24auto_test_unit_registrarC2ERKNS0_19test_unit_generatorERNS0_9decorator11collector_tE
FN:511,514,_ZN5boost9unit_test9ut_detail24auto_test_unit_registrarC2ENS_10shared_ptrINS0_19test_unit_generatorEEERNS0_9decorator11collector_tE
FN:519,522,_ZN5boost9unit_test9ut_detail24auto_test_unit_registrarC2Ei
FN:532,536,_ZN5boost9unit_test14global_fixtureC2Ev
FN:538,545,_ZN5boost9unit_test14global_fixture25unregister_from_frameworkEv
FN:547,550,_ZN5boost9unit_test14global_fixtureD0Ev
FN:547,550,_ZN5boost9unit_test14global_fixtureD2Ev
FN:556,560,_ZN5boost9unit_test20global_configurationC2Ev
FN:562,570,_ZN5boost9unit_test20global_configuration25unregister_from_frameworkEv
FN:572,575,_ZN5boost9unit_test20global_configurationD0Ev
FN:572,575,_ZN5boost9unit_test20global_configurationD2Ev
FN:67,80,_ZN5boost9unit_test9test_unitC2ENS0_13basic_cstringIKcEE
FN:84,87,_ZN5boost9unit_test9test_unitD2Ev
FN:92,98,_ZN5boost9unit_test9test_unit10depends_onEPS1_
FNDA:0,_ZN5boost9unit_test9test_unit16add_preconditionERKNS_8functionIFNS_10test_tools16assertion_resultEmEEE
FNDA:54,_ZNK5boost9unit_test9test_unit19check_preconditionsEv
FNDA:0,_ZN5boost9unit_test9test_unit17increase_exp_failEm
FNDA:0,_ZNK5boost9unit_test9test_unit9full_nameB5cxx11Ev
FNDA:0,_ZN5boost9unit_test9test_unit9add_labelENS0_13basic_cstringIKcEE
FNDA:0,_ZNK5boost9unit_test9test_unit9has_labelENS0_13basic_cstringIKcEE
FNDA:0,_ZN5boost9unit_test9test_caseC2ENS0_13basic_cstringIKcEERKNS_8functionIFvvEEE
FNDA:53,_ZN5boost9unit_test9test_caseC2ENS0_13basic_cstringIKcEES4_mRKNS_8functionIFvvEEE
FNDA:0,_ZN5boost9unit_test10test_suiteC2ENS0_13basic_cstringIKcEES4_m
FNDA:1,_ZN5boost9unit_test10test_suiteC2ENS0_13basic_cstringIKcEE
FNDA:53,_ZN5boost9unit_test10test_suite3addEPNS0_9test_unitEmj
FNDA:0,_ZN5boost9unit_test10test_suite3addERKNS0_19test_unit_generatorEj
FNDA:0,_ZN5boost9unit_test10test_suite3addERKNS0_19test_unit_generatorERNS0_9decorator11collector_tE
FNDA:0,_ZN5boost9unit_test10test_suite3addENS_10shared_ptrINS0_19test_unit_generatorEEERNS0_9decorator11collector_tE
FNDA:1,_ZN5boost9unit_test10test_suite8generateEv
FNDA:1,_ZN5boost9unit_test10test_suite30check_for_duplicate_test_casesEv
FNDA:0,_ZN5boost9unit_test10test_suite6removeEm
FNDA:0,_ZNK5boost9unit_test10test_suite3getENS0_13basic_cstringIKcEE
FNDA:1,_ZN5boost9unit_test19master_test_suite_tC2Ev
FNDA:265,_ZN5boost9unit_test18traverse_test_treeERKNS0_9test_caseERNS0_17test_tree_visitorEb
FNDA:5,_ZN5boost9unit_test18traverse_test_treeERKNS0_10test_suiteERNS0_17test_tree_visitorEb
FNDA:269,_ZN5boost9unit_test18traverse_test_treeEmRNS0_17test_tree_visitorEb
FNDA:53,_ZN5boost9unit_test9ut_detail24normalize_test_case_nameB5cxx11ENS0_13basic_cstringIKcEE
FNDA:53,_ZN5boost9unit_test9ut_detail24auto_test_unit_registrarC2EPNS0_9test_caseERNS0_9decorator11collector_tEm
FNDA:0,_ZN5boost9unit_test9ut_detail24auto_test_unit_registrarC2ENS0_13basic_cstringIKcEES5_mRNS0_9decorator11collector_tE
FNDA:53,_ZN5boost9unit_test9test_unitC2ENS0_13basic_cstringIKcEES4_mNS0_14test_unit_typeE
FNDA:0,_ZN5boost9unit_test9ut_detail24auto_test_unit_registrarC2ERKNS0_19test_unit_generatorERNS0_9decorator11collector_tE
FNDA:0,_ZN5boost9unit_test9ut_detail24auto_test_unit_registrarC2ENS_10shared_ptrINS0_19test_unit_generatorEEERNS0_9decorator11collector_tE
FNDA:0,_ZN5boost9unit_test9ut_detail24auto_test_unit_registrarC2Ei
FNDA:0,_ZN5boost9unit_test14global_fixtureC2Ev
FNDA:0,_ZN5boost9unit_test14global_fixture25unregister_from_frameworkEv
FNDA:0,_ZN5boost9unit_test14global_fixtureD0Ev
FNDA:0,_ZN5boost9unit_test14global_fixtureD2Ev
FNDA:0,_ZN5boost9unit_test20global_configurationC2Ev
FNDA:0,_ZN5boost9unit_test20global_configuration25unregister_from_frameworkEv
FNDA:0,_ZN5boost9unit_test20global_configurationD0Ev
FNDA:0,_ZN5boost9unit_test20global_configurationD2Ev
FNDA:1,_ZN5boost9unit_test9test_unitC2ENS0_13basic_cstringIKcEE
FNDA:54,_ZN5boost9unit_test9test_unitD2Ev
FNDA:0,_ZN5boost9unit_test9test_unit10depends_onEPS1_
FNF:40
FNH:15
DA:49,53
DA:50,53
DA:51,53
DA:52,53
DA:53,53
DA:54,53
DA:55,53
DA:56,106
DA:57,53
DA:58,53
DA:59,53
DA:60,53
DA:61,159
DA:63,53
DA:67,1
DA:68,1
DA:69,1
DA:70,1
DA:71,1
DA:72,1
DA:73,2
DA:74,1
DA:75,1
DA:76,1
DA:77,1
DA:78,4
DA:80,1
DA:84,54
DA:86,54
DA:87,54
DA:92,0
DA:94,0
DA:97,0
DA:98,0
DA:103,0
DA:105,0
DA:106,0
DA:111,54
DA:113,54
DA:114,0
DA:116,0
DA:117,0
DA:118,0
DA:119,0
DA:120,0
DA:122,0
DA:123,0
DA:124,0
DA:125,0
DA:126,0
DA:127,0
DA:129,0
DA:130,0
DA:131,0
DA:132,0
DA:133,0
DA:136,54
DA:137,0
DA:138,0
DA:139,0
DA:140,0
DA:141,0
DA:142,0
DA:143,0
DA:144,0
DA:145,0
DA:147,54
DA:153,0
DA:155,0
DA:157,0
DA:158,0
DA:159,0
DA:164,0
DA:166,0
DA:167,0
DA:169,0
DA:170,0
DA:172,0
DA:174,0
DA:175,0
DA:180,0
DA:182,0
DA:183,0
DA:188,0
DA:190,0
DA:199,0
DA:201,0
DA:203,0
DA:204,0
DA:208,53
DA:210,53
DA:212,53
DA:213,53
DA:223,0
DA:224,0
DA:226,0
DA:227,0
DA:231,1
DA:232,1
DA:234,1
DA:235,1
DA:240,53
DA:242,53
DA:244,53
DA:245,53
DA:247,53
DA:248,0
DA:250,53
DA:251,0
DA:252,53
DA:257,0
DA:260,0
DA:261,0
DA:262,0
DA:267,0
DA:270,0
DA:271,0
DA:272,0
DA:274,0
DA:275,0
DA:280,0
DA:282,0
DA:283,0
DA:284,0
DA:285,0
DA:290,1
DA:294,1
DA:295,1
DA:296,0
DA:299,0
DA:300,0
DA:302,0
DA:306,1
DA:315,1
DA:320,1
DA:322,1
DA:323,1
DA:324,54
DA:325,53
DA:326,53
DA:327,53
DA:328,53
DA:334,53
DA:336,2
DA:337,1
DA:342,0
DA:344,0
DA:346,0
DA:347,0
DA:348,0
DA:353,0
DA:355,0
DA:356,0
DA:357,0
DA:360,0
DA:369,1
DA:371,1
DA:372,1
DA:374,1
DA:375,1
DA:382,265
DA:384,265
DA:385,265
DA:386,265
DA:391,5
DA:394,5
DA:395,0
DA:398,5
DA:399,0
DA:402,5
DA:403,270
DA:405,265
DA:406,265
DA:407,0
DA:409,265
DA:413,5
DA:419,269
DA:421,269
DA:422,265
DA:424,4
DA:425,269
DA:436,53
DA:438,53
DA:440,53
DA:441,0
DA:444,53
DA:445,53
DA:446,0
DA:449,53
DA:450,53
DA:451,53
DA:456,53
DA:457,424
DA:459,371
DA:462,53
DA:463,0
DA:471,53
DA:473,53
DA:475,53
DA:476,53
DA:477,53
DA:481,0
DA:483,0
DA:487,0
DA:488,0
DA:489,0
DA:492,0
DA:493,0
DA:496,0
DA:497,0
DA:499,0
DA:500,0
DA:504,0
DA:506,0
DA:507,0
DA:511,0
DA:513,0
DA:514,0
DA:519,0
DA:521,0
DA:522,0
DA:532,0
DA:534,0
DA:535,0
DA:536,0
DA:538,0
DA:541,0
DA:542,0
DA:544,0
DA:545,0
DA:547,0
DA:549,0
DA:550,0
DA:556,0
DA:558,0
DA:559,0
DA:560,0
DA:562,0
DA:566,0
DA:567,0
DA:569,0
DA:570,0
DA:572,0
DA:574,0
DA:575,0
LF:245
LH:105
end_of_record
TN:
SF:/usr/include/boost/test/impl/unit_test_log.ipp
FN:111,114,_ZN5boost9unit_test12_GLOBAL__N_130unit_test_log_data_helper_impl6streamEv
FN:116,119,_ZNK5boost9unit_test12_GLOBAL__N_130unit_test_log_data_helper_impl13get_log_levelEv
FN:124,129,_ZN5boost9unit_test12_GLOBAL__N_118unit_test_log_implC2Ev
FN:140,150,_ZNK5boost9unit_test12_GLOBAL__N_118unit_test_log_impl21has_entry_in_progressEv
FN:155,160,_ZN5boost9unit_test12_GLOBAL__N_118unit_test_log_impl14set_checkpointENS0_13basic_cstringIKcEEmS5_
FN:163,163,_ZN5boost9unit_test12_GLOBAL__N_110s_log_implEv
FN:169,182,_ZN5boost9unit_test12_GLOBAL__N_117log_entry_contextENS0_9log_levelERNS1_30unit_test_log_data_helper_implE
FN:187,190,_ZN5boost9unit_test12_GLOBAL__N_119clear_entry_contextEv
FN:200,200,_ZN5boost9unit_test15unit_test_log_t8instanceEv
FN:203,220,_ZN5boost9unit_test15unit_test_log_t9configureEv
FN:225,240,_ZN5boost9unit_test15unit_test_log_t10test_startEmm
FN:245,254,_ZN5boost9unit_test15unit_test_log_t11test_finishEv
FN:259,262,_ZN5boost9unit_test15unit_test_log_t12test_abortedEv
FN:267,280,_ZN5boost9unit_test15unit_test_log_t15test_unit_startERKNS0_9test_unitE
FN:285,301,_ZN5boost9unit_test15unit_test_log_t16test_unit_finishERKNS0_9test_unitEm
FN:306,320,_ZN5boost9unit_test15unit_test_log_t17test_unit_skippedERKNS0_9test_unitENS0_13basic_cstringIKcEE
FN:323,337,_ZN5boost9unit_test15unit_test_log_t17test_unit_abortedERKNS0_9test_unitE
FN:340,354,_ZN5boost9unit_test15unit_test_log_t19test_unit_timed_outERKNS0_9test_unitE
FN:359,384,_ZN5boost9unit_test15unit_test_log_t16exception_caughtERKNS_19execution_exceptionE
FN:389,392,_ZN5boost9unit_test15unit_test_log_t14set_checkpointENS0_13basic_cstringIKcEEmS4_
FN:397,400,_ZN5boost9unit_test14set_unix_slashEc
FN:403,427,_ZN5boost9unit_test15unit_test_log_tlsERKNS0_3log5beginE
FN:432,453,_ZN5boost9unit_test15unit_test_log_tlsERKNS0_3log3endE
FN:458,463,_ZN5boost9unit_test15unit_test_log_tlsENS0_9log_levelE
FN:468,473,_ZN5boost9unit_test15unit_test_log_tclENS0_9log_levelE
FN:478,514,_ZN5boost9unit_test15log_entry_startERNS0_12_GLOBAL__N_130unit_test_log_data_helper_implE
FN:51,56,_ZNK5boost9unit_test9ut_detail21entry_value_collectorlsERKNS0_12lazy_ostreamE
FN:519,535,_ZN5boost9unit_test15unit_test_log_tlsENS0_13basic_cstringIKcEE
FN:540,557,_ZN5boost9unit_test15unit_test_log_tlsERKNS0_12lazy_ostreamE
FN:562,575,_ZN5boost9unit_test15unit_test_log_t10set_streamERSo
FN:580,595,_ZN5boost9unit_test15unit_test_log_t10set_streamENS0_13output_formatERSo
FN:598,609,_ZNK5boost9unit_test15unit_test_log_t10get_streamENS0_13output_formatE
FN:61,66,_ZNK5boost9unit_test9ut_detail21entry_value_collectorlsENS0_13basic_cstringIKcEE
FN:614,628,_ZN5boost9unit_test15unit_test_log_t19set_threshold_levelENS0_9log_levelE
FN:633,650,_ZN5boost9unit_test15unit_test_log_t19set_threshold_levelENS0_13output_formatENS0_9log_levelE
FN:655,666,_ZN5boost9unit_test15unit_test_log_t10set_formatENS0_13output_formatE
FN:671,685,_ZN5boost9unit_test15unit_test_log_t10add_formatENS0_13output_formatE
FN:690,701,_ZN5boost9unit_test15unit_test_log_t13get_formatterENS0_13output_formatE
FN:70,74,_ZN5boost9unit_test9ut_detail21entry_value_collectorD2Ev
FN:705,721,_ZN5boost9unit_test15unit_test_log_t13add_formatterEPNS0_23unit_test_log_formatterE
FN:724,753,_ZN5boost9unit_test15unit_test_log_t13set_formatterEPNS0_23unit_test_log_formatterE
FN:762,765,_ZN5boost9unit_test23unit_test_log_formatter15log_entry_valueERSoRKNS0_12lazy_ostreamE
FN:768,771,_ZN5boost9unit_test23unit_test_log_formatter13set_log_levelENS0_9log_levelE
FN:774,777,_ZNK5boost9unit_test23unit_test_log_formatter13get_log_levelEv
FN:98,108,_ZN5boost9unit_test12_GLOBAL__N_130unit_test_log_data_helper_implC2EPNS0_23unit_test_log_formatterENS0_13output_formatEb
FNDA:4,_ZN5boost9unit_test12_GLOBAL__N_130unit_test_log_data_helper_impl6streamEv
FNDA:661,_ZNK5boost9unit_test12_GLOBAL__N_130unit_test_log_data_helper_impl13get_log_levelEv
FNDA:1,_ZN5boost9unit_test12_GLOBAL__N_118unit_test_log_implC2Ev
FNDA:433,_ZNK5boost9unit_test12_GLOBAL__N_118unit_test_log_impl21has_entry_in_progressEv
FNDA:426,_ZN5boost9unit_test12_GLOBAL__N_118unit_test_log_impl14set_checkpointENS0_13basic_cstringIKcEEmS5_
FNDA:3424,_ZN5boost9unit_test12_GLOBAL__N_110s_log_implEv
FNDA:0,_ZN5boost9unit_test12_GLOBAL__N_117log_entry_contextENS0_9log_levelERNS1_30unit_test_log_data_helper_implE
FNDA:161,_ZN5boost9unit_test12_GLOBAL__N_119clear_entry_contextEv
FNDA:1,_ZN5boost9unit_test15unit_test_log_t8instanceEv
FNDA:2,_ZN5boost9unit_test15unit_test_log_t9configureEv
FNDA:1,_ZN5boost9unit_test15unit_test_log_t10test_startEmm
FNDA:1,_ZN5boost9unit_test15unit_test_log_t11test_finishEv
FNDA:0,_ZN5boost9unit_test15unit_test_log_t12test_abortedEv
FNDA:54,_ZN5boost9unit_test15unit_test_log_t15test_unit_startERKNS0_9test_unitE
FNDA:54,_ZN5boost9unit_test15unit_test_log_t16test_unit_finishERKNS0_9test_unitEm
FNDA:0,_ZN5boost9unit_test15unit_test_log_t17test_unit_skippedERKNS0_9test_unitENS0_13basic_cstringIKcEE
FNDA:0,_ZN5boost9unit_test15unit_test_log_t17test_unit_abortedERKNS0_9test_unitE
FNDA:0,_ZN5boost9unit_test15unit_test_log_t19test_unit_timed_outERKNS0_9test_unitE
FNDA:0,_ZN5boost9unit_test15unit_test_log_t16exception_caughtERKNS_19execution_exceptionE
FNDA:426,_ZN5boost9unit_test15unit_test_log_t14set_checkpointENS0_13basic_cstringIKcEEmS4_
FNDA:2254,_ZN5boost9unit_test14set_unix_slashEc
FNDA:161,_ZN5boost9unit_test15unit_test_log_tlsERKNS0_3log5beginE
FNDA:161,_ZN5boost9unit_test15unit_test_log_tlsERKNS0_3log3endE
FNDA:161,_ZN5boost9unit_test15unit_test_log_tlsENS0_9log_levelE
FNDA:0,_ZN5boost9unit_test15unit_test_log_tclENS0_9log_levelE
FNDA:0,_ZN5boost9unit_test15log_entry_startERNS0_12_GLOBAL__N_130unit_test_log_data_helper_implE
FNDA:0,_ZNK5boost9unit_test9ut_detail21entry_value_collectorlsERKNS0_12lazy_ostreamE
FNDA:422,_ZN5boost9unit_test15unit_test_log_tlsENS0_13basic_cstringIKcEE
FNDA:129,_ZN5boost9unit_test15unit_test_log_tlsERKNS0_12lazy_ostreamE
FNDA:1,_ZN5boost9unit_test15unit_test_log_t10set_streamERSo
FNDA:0,_ZN5boost9unit_test15unit_test_log_t10set_streamENS0_13output_formatERSo
FNDA:0,_ZNK5boost9unit_test15unit_test_log_t10get_streamENS0_13output_formatE
FNDA:0,_ZNK5boost9unit_test9ut_detail21entry_value_collectorlsENS0_13basic_cstringIKcEE
FNDA:1,_ZN5boost9unit_test15unit_test_log_t19set_threshold_levelENS0_9log_levelE
FNDA:0,_ZN5boost9unit_test15unit_test_log_t19set_threshold_levelENS0_13output_formatENS0_9log_levelE
FNDA:1,_ZN5boost9unit_test15unit_test_log_t10set_formatENS0_13output_formatE
FNDA:0,_ZN5boost9unit_test15unit_test_log_t10add_formatENS0_13output_formatE
FNDA:0,_ZN5boost9unit_test15unit_test_log_t13get_formatterENS0_13output_formatE
FNDA:0,_ZN5boost9unit_test9ut_detail21entry_value_collectorD2Ev
FNDA:0,_ZN5boost9unit_test15unit_test_log_t13add_formatterEPNS0_23unit_test_log_formatterE
FNDA:0,_ZN5boost9unit_test15unit_test_log_t13set_formatterEPNS0_23unit_test_log_formatterE
FNDA:0,_ZN5boost9unit_test23unit_test_log_formatter15log_entry_valueERSoRKNS0_12lazy_ostreamE
FNDA:4,_ZN5boost9unit_test23unit_test_log_formatter13set_log_levelENS0_9log_levelE
FNDA:664,_ZNK5boost9unit_test23unit_test_log_formatter13get_log_levelEv
FNDA:3,_ZN5boost9unit_test12_GLOBAL__N_130unit_test_log_data_helper_implC2EPNS0_23unit_test_log_formatterENS0_13output_formatEb
FNF:45
FNH:26
DA:51,0
DA:53,0
DA:55,0
DA:61,0
DA:63,0
DA:65,0
DA:70,0
DA:72,0
DA:73,0
DA:74,0
DA:98,3
DA:99,3
DA:100,3
DA:101,3
DA:102,3
DA:103,3
DA:104,3
DA:106,3
DA:107,3
DA:108,3
DA:111,4
DA:113,4
DA:116,661
DA:118,661
DA:124,1
DA:125,1
DA:126,1
DA:127,1
DA:128,1
DA:129,1
DA:140,433
DA:141,433
DA:142,863
DA:143,430
DA:145,430
DA:146,430
DA:147,0
DA:149,433
DA:155,426
DA:157,426
DA:158,426
DA:159,426
DA:160,426
DA:163,3424
DA:169,0
DA:171,0
DA:172,0
DA:173,0
DA:175,0
DA:176,0
DA:177,0
DA:179,0
DA:181,0
DA:187,161
DA:189,161
DA:190,161
DA:200,1
DA:203,2
DA:208,2
DA:209,4
DA:210,2
DA:211,8
DA:212,6
DA:214,6
DA:215,4
DA:217,2
DA:218,2
DA:220,2
DA:225,1
DA:227,1
DA:228,1
DA:229,2
DA:231,1
DA:233,1
DA:234,2
DA:236,2
DA:240,1
DA:245,1
DA:247,1
DA:248,2
DA:250,1
DA:251,1
DA:252,1
DA:254,1
DA:259,0
DA:261,0
DA:262,0
DA:267,54
DA:269,54
DA:270,0
DA:272,54
DA:273,108
DA:275,54
DA:276,54
DA:277,54
DA:278,0
DA:280,54
DA:285,54
DA:287,54
DA:289,54
DA:290,0
DA:292,54
DA:293,108
DA:295,54
DA:296,54
DA:297,54
DA:299,0
DA:301,54
DA:306,0
DA:308,0
DA:309,0
DA:311,0
DA:312,0
DA:314,0
DA:315,0
DA:316,0
DA:318,0
DA:320,0
DA:323,0
DA:325,0
DA:326,0
DA:328,0
DA:329,0
DA:331,0
DA:332,0
DA:333,0
DA:335,0
DA:337,0
DA:340,0
DA:342,0
DA:343,0
DA:345,0
DA:346,0
DA:348,0
DA:349,0
DA:350,0
DA:352,0
DA:354,0
DA:359,0
DA:362,0
DA:363,0
DA:364,0
DA:366,0
DA:367,0
DA:369,0
DA:370,0
DA:372,0
DA:374,0
DA:376,0
DA:378,0
DA:380,0
DA:383,0
DA:384,0
DA:389,426
DA:391,426
DA:392,426
DA:397,2254
DA:399,2254
DA:403,161
DA:405,161
DA:406,0
DA:408,161
DA:409,322
DA:411,161
DA:412,161
DA:415,161
DA:417,161
DA:420,161
DA:421,161
DA:424,161
DA:426,161
DA:432,161
DA:434,161
DA:435,0
DA:436,0
DA:437,0
DA:439,0
DA:440,0
DA:441,0
DA:442,0
DA:444,0
DA:446,0
DA:450,161
DA:452,161
DA:458,161
DA:460,161
DA:462,161
DA:468,0
DA:470,0
DA:472,0
DA:478,0
DA:480,0
DA:481,0
DA:483,0
DA:484,0
DA:485,0
DA:487,0
DA:488,0
DA:489,0
DA:491,0
DA:492,0
DA:493,0
DA:495,0
DA:496,0
DA:499,0
DA:501,0
DA:502,0
DA:503,0
DA:505,0
DA:506,0
DA:509,0
DA:512,0
DA:513,0
DA:519,422
DA:521,422
DA:522,0
DA:525,422
DA:526,844
DA:528,422
DA:529,422
DA:530,0
DA:531,0
DA:534,422
DA:540,129
DA:542,129
DA:543,0
DA:546,129
DA:547,258
DA:549,129
DA:550,129
DA:551,0
DA:552,0
DA:556,129
DA:562,1
DA:564,1
DA:565,0
DA:567,1
DA:568,4
DA:570,3
DA:572,3
DA:573,3
DA:580,0
DA:582,0
DA:583,0
DA:585,0
DA:586,0
DA:588,0
DA:589,0
DA:590,0
DA:591,0
DA:592,0
DA:598,0
DA:600,0
DA:601,0
DA:603,0
DA:604,0
DA:605,0
DA:608,0
DA:614,1
DA:616,1
DA:617,0
DA:619,1
DA:620,1
DA:621,4
DA:623,3
DA:624,3
DA:625,3
DA:627,1
DA:633,0
DA:635,0
DA:636,0
DA:638,0
DA:639,0
DA:640,0
DA:642,0
DA:643,0
DA:644,0
DA:645,0
DA:646,0
DA:649,0
DA:655,1
DA:657,1
DA:658,0
DA:660,1
DA:661,4
DA:663,3
DA:664,3
DA:671,0
DA:673,0
DA:674,0
DA:676,0
DA:677,0
DA:679,0
DA:680,0
DA:681,0
DA:682,0
DA:690,0
DA:692,0
DA:693,0
DA:695,0
DA:696,0
DA:697,0
DA:700,0
DA:705,0
DA:708,0
DA:709,0
DA:711,0
DA:712,0
DA:713,0
DA:717,0
DA:718,0
DA:719,0
DA:721,0
DA:724,0
DA:726,0
DA:727,0
DA:730,0
DA:731,0
DA:732,0
DA:733,0
DA:734,0
DA:736,0
DA:737,0
DA:738,0
DA:739,0
DA:740,0
DA:745,0
DA:746,0
DA:747,0
DA:748,0
DA:749,0
DA:752,0
DA:762,0
DA:764,0
DA:765,0
DA:768,4
DA:770,4
DA:771,4
DA:774,664
DA:776,664
LF:340
LH:146
end_of_record
TN:
SF:/usr/include/boost/test/impl/unit_test_main.ipp
FN:136,139,_ZN5boost9unit_test9ut_detail20dot_content_reporter5visitERKNS0_9test_caseE
FN:140,150,_ZN5boost9unit_test9ut_detail20dot_content_reporter16test_suite_startERKNS0_10test_suiteE
FN:151,156,_ZN5boost9unit_test9ut_detail20dot_content_reporter17test_suite_finishERKNS0_10test_suiteE
FN:166,166,_ZNK5boost9unit_test9ut_detail16labels_collector6labelsB5cxx11Ev
FN:169,173,_ZN5boost9unit_test9ut_detail16labels_collector5visitERKNS0_9test_unitE
FN:180,187,_ZN5boost9unit_test9ut_detail25framework_shutdown_helperD2Ev
FN:199,281,_ZN5boost9unit_test14unit_test_mainEPFPNS0_10test_suiteEiPPcEiS4_
FN:293,307,main
FN:58,58,_ZN5boost9unit_test9ut_detail20hrf_content_reporterC2ERSo
FN:61,70,_ZN5boost9unit_test9ut_detail20hrf_content_reporter16report_test_unitERKNS0_9test_unitE
FN:71,71,_ZN5boost9unit_test9ut_detail20hrf_content_reporter5visitERKNS0_9test_caseE
FN:72,78,_ZN5boost9unit_test9ut_detail20hrf_content_reporter16test_suite_startERKNS0_10test_suiteE
FN:79,82,_ZN5boost9unit_test9ut_detail20hrf_content_reporter17test_suite_finishERKNS0_10test_suiteE
FN:94,94,_ZN5boost9unit_test9ut_detail20dot_content_reporterC2ERSo
FN:97,135,_ZN5boost9unit_test9ut_detail20dot_content_reporter16report_test_unitERKNS0_9test_unitE
FNDA:0,_ZN5boost9unit_test9ut_detail20dot_content_reporter5visitERKNS0_9test_caseE
FNDA:0,_ZN5boost9unit_test9ut_detail20dot_content_reporter16test_suite_startERKNS0_10test_suiteE
FNDA:0,_ZN5boost9unit_test9ut_detail20dot_content_reporter17test_suite_finishERKNS0_10test_suiteE
FNDA:0,_ZNK5boost9unit_test9ut_detail16labels_collector6labelsB5cxx11Ev
FNDA:0,_ZN5boost9unit_test9ut_detail16labels_collector5visitERKNS0_9test_unitE
FNDA:1,_ZN5boost9unit_test9ut_detail25framework_shutdown_helperD2Ev
FNDA:1,_ZN5boost9unit_test14unit_test_mainEPFPNS0_10test_suiteEiPPcEiS4_
FNDA:1,main
FNDA:0,_ZN5boost9unit_test9ut_detail20hrf_content_reporterC2ERSo
FNDA:0,_ZN5boost9unit_test9ut_detail20hrf_content_reporter16report_test_unitERKNS0_9test_unitE
FNDA:0,_ZN5boost9unit_test9ut_detail20hrf_content_reporter5visitERKNS0_9test_caseE
FNDA:0,_ZN5boost9unit_test9ut_detail20hrf_content_reporter16test_suite_startERKNS0_10test_suiteE
FNDA:0,_ZN5boost9unit_test9ut_detail20hrf_content_reporter17test_suite_finishERKNS0_10test_suiteE
FNDA:0,_ZN5boost9unit_test9ut_detail20dot_content_reporterC2ERSo
FNDA:0,_ZN5boost9unit_test9ut_detail20dot_content_reporter16report_test_unitERKNS0_9test_unitE
FNF:15
FNH:3
DA:58,0
DA:61,0
DA:63,0
DA:64,0
DA:66,0
DA:67,0
DA:69,0
DA:70,0
DA:71,0
DA:72,0
DA:74,0
DA:75,0
DA:76,0
DA:77,0
DA:79,0
DA:81,0
DA:82,0
DA:94,0
DA:97,0
DA:99,0
DA:101,0
DA:103,0
DA:105,0
DA:107,0
DA:109,0
DA:110,0
DA:112,0
DA:113,0
DA:114,0
DA:115,0
DA:116,0
DA:117,0
DA:118,0
DA:120,0
DA:121,0
DA:123,0
DA:126,0
DA:127,0
DA:129,0
DA:130,0
DA:132,0
DA:135,0
DA:136,0
DA:138,0
DA:139,0
DA:140,0
DA:142,0
DA:143,0
DA:145,0
DA:147,0
DA:149,0
DA:151,0
DA:153,0
DA:154,0
DA:155,0
DA:156,0
DA:166,0
DA:169,0
DA:171,0
DA:172,0
DA:180,1
DA:182,1
DA:184,0
DA:185,0
DA:186,0
DA:187,1
DA:199,1
DA:201,1
DA:208,1
DA:210,1
DA:211,0
DA:215,0
DA:216,0
DA:219,1
DA:221,1
DA:222,1
DA:223,0
DA:224,0
DA:226,0
DA:227,0
DA:229,0
DA:231,0
DA:232,0
DA:234,0
DA:237,1
DA:238,0
DA:240,0
DA:242,0
DA:243,0
DA:244,0
DA:245,0
DA:247,0
DA:248,0
DA:250,1
DA:252,2
DA:253,1
DA:254,1
DA:256,0
DA:257,0
DA:258,0
DA:259,0
DA:260,0
DA:262,0
DA:263,0
DA:264,0
DA:265,0
DA:267,0
DA:268,0
DA:269,0
DA:270,0
DA:272,0
DA:273,0
DA:274,0
DA:275,0
DA:277,0
DA:278,0
DA:280,1
DA:281,1
DA:293,1
DA:303,1
DA:306,1
LF:121
LH:20
end_of_record
TN:
SF:/usr/include/boost/test/impl/unit_test_monitor.ipp
FN:33,33,_ZN5boost9unit_test19unit_test_monitor_t8instanceEv
FN:40,69,_ZN5boost9unit_test19unit_test_monitor_t21execute_and_translateERKNS_8functionIFvvEEEm
FNDA:1,_ZN5boost9unit_test19unit_test_monitor_t8instanceEv
FNDA:56,_ZN5boost9unit_test19unit_test_monitor_t21execute_and_translateERKNS_8functionIFvvEEEm
FNF:2
FNH:2
DA:33,1
DA:40,56
DA:43,56
DA:44,56
DA:45,56
DA:46,56
DA:47,56
DA:49,56
DA:51,0
DA:52,0
DA:53,0
DA:56,0
DA:57,0
DA:58,0
DA:59,0
DA:60,0
DA:61,0
DA:62,0
DA:63,0
DA:64,0
DA:66,0
DA:68,56
LF:22
LH:9
end_of_record
TN:
SF:/usr/include/boost/test/impl/unit_test_parameters.ipp
FN:108,647,_ZN5boost9unit_test14runtime_config12_GLOBAL__N_119register_parametersERNS_7runtime16parameters_storeE
FN:133,135,_ZZN5boost9unit_test14runtime_config12_GLOBAL__N_119register_parametersERNS_7runtime16parameters_storeEENKUlNS0_13basic_cstringIKcEEE_clES8_
FN:657,745,_ZN5boost9unit_test14runtime_config4initERiPPc
FN:750,753,_ZN5boost9unit_test14runtime_config14argument_storeEv
FN:758,761,_ZN5boost9unit_test14runtime_config12save_patternEv
FNDA:1,_ZN5boost9unit_test14runtime_config12_GLOBAL__N_119register_parametersERNS_7runtime16parameters_storeE
FNDA:0,_ZZN5boost9unit_test14runtime_config12_GLOBAL__N_119register_parametersERNS_7runtime16parameters_storeEENKUlNS0_13basic_cstringIKcEEE_clES8_
FNDA:1,_ZN5boost9unit_test14runtime_config4initERiPPc
FNDA:248,_ZN5boost9unit_test14runtime_config14argument_storeEv
FNDA:0,_ZN5boost9unit_test14runtime_config12save_patternEv
FNF:5
FNH:3
DA:108,1
DA:111,2
DA:112,2
DA:114,1
DA:120,1
DA:122,1
DA:123,1
DA:124,1
DA:129,2
DA:130,1
DA:132,1
DA:133,1
DA:134,0
DA:137,1
DA:139,1
DA:140,1
DA:145,2
DA:146,2
DA:147,1
DA:149,1
DA:151,1
DA:152,1
DA:153,1
DA:158,2
DA:159,2
DA:160,1
DA:164,1
DA:166,2
DA:174,1
DA:176,1
DA:177,1
DA:178,1
DA:183,2
DA:184,2
DA:185,2
DA:186,1
DA:188,1
DA:190,1
DA:191,1
DA:192,1
DA:197,2
DA:198,2
DA:199,1
DA:201,1
DA:203,1
DA:204,1
DA:209,2
DA:210,2
DA:211,2
DA:212,2
DA:213,2
DA:214,1
DA:220,1
DA:222,1
DA:223,1
DA:228,2
DA:229,2
DA:230,2
DA:231,2
DA:232,1
DA:235,1
DA:236,1
DA:237,1
DA:244,1
DA:249,1
DA:250,1
DA:251,1
DA:256,2
DA:257,2
DA:258,2
DA:260,1
DA:262,1
DA:263,1
DA:268,2
DA:269,2
DA:270,2
DA:271,1
DA:274,1
DA:275,1
DA:276,1
DA:277,1
DA:278,1
DA:287,1
DA:293,1
DA:295,1
DA:296,1
DA:297,1
DA:302,2
DA:303,2
DA:304,2
DA:305,1
DA:308,1
DA:309,1
DA:310,1
DA:311,1
DA:312,1
DA:313,1
DA:314,1
DA:315,1
DA:316,1
DA:317,1
DA:318,1
DA:319,1
DA:335,1
DA:341,1
DA:343,1
DA:344,1
DA:345,1
DA:350,2
DA:351,2
DA:352,2
DA:353,1
DA:357,1
DA:359,1
DA:360,1
DA:361,1
DA:366,2
DA:367,2
DA:368,1
DA:371,1
DA:372,1
DA:373,1
DA:374,1
DA:382,3
DA:383,2
DA:388,1
DA:390,1
DA:391,1
DA:392,1
DA:397,2
DA:398,2
DA:399,2
DA:400,1
DA:401,2
DA:402,2
DA:405,1
DA:407,1
DA:408,1
DA:413,1
DA:414,1
DA:415,2
DA:416,2
DA:417,2
DA:418,2
DA:419,1
DA:427,1
DA:429,1
DA:430,1
DA:435,2
DA:436,2
DA:437,2
DA:438,1
DA:441,1
DA:442,1
DA:443,1
DA:444,1
DA:452,1
DA:458,1
DA:460,1
DA:461,1
DA:462,1
DA:467,2
DA:468,2
DA:469,2
DA:470,1
DA:473,1
DA:474,1
DA:475,1
DA:476,1
DA:477,1
DA:486,1
DA:489,1
DA:491,1
DA:492,1
DA:493,1
DA:498,2
DA:499,2
DA:500,2
DA:501,2
DA:502,2
DA:505,1
DA:507,1
DA:508,1
DA:513,2
DA:514,2
DA:515,2
DA:516,1
DA:521,1
DA:523,1
DA:524,1
DA:525,1
DA:530,2
DA:531,2
DA:532,2
DA:533,2
DA:536,1
DA:538,1
DA:539,1
DA:540,1
DA:545,2
DA:546,2
DA:547,2
DA:548,1
DA:553,2
DA:555,1
DA:557,1
DA:558,1
DA:559,1
DA:564,2
DA:565,2
DA:566,2
DA:570,1
DA:572,1
DA:573,1
DA:578,2
DA:579,2
DA:580,1
DA:582,1
DA:584,1
DA:585,1
DA:586,1
DA:591,2
DA:592,2
DA:593,2
DA:594,1
DA:597,1
DA:599,1
DA:600,1
DA:605,2
DA:606,2
DA:607,1
DA:610,1
DA:612,1
DA:613,1
DA:614,1
DA:619,2
DA:620,2
DA:621,2
DA:622,1
DA:628,1
DA:629,1
DA:630,1
DA:635,1
DA:636,1
DA:637,1
DA:638,1
DA:643,1
DA:644,1
DA:645,1
DA:646,1
DA:647,1
DA:657,1
DA:659,1
DA:663,1
DA:664,1
DA:667,1
DA:670,1
DA:671,1
DA:674,1
DA:677,1
DA:680,1
DA:681,1
DA:682,1
DA:686,1
DA:687,0
DA:688,0
DA:690,1
DA:691,0
DA:692,0
DA:694,1
DA:695,0
DA:697,0
DA:699,0
DA:703,1
DA:704,0
DA:705,0
DA:706,0
DA:710,0
DA:711,0
DA:712,0
DA:713,0
DA:714,0
DA:716,0
DA:717,0
DA:719,0
DA:720,0
DA:721,0
DA:722,0
DA:724,0
DA:725,0
DA:727,0
DA:728,0
DA:730,0
DA:731,0
DA:732,0
DA:735,0
DA:736,0
DA:737,0
DA:738,0
DA:740,0
DA:741,0
DA:743,0
DA:744,0
DA:745,1
DA:750,248
DA:752,248
DA:758,0
DA:760,0
LF:308
LH:269
end_of_record
TN:
SF:/usr/include/boost/test/impl/xml_log_formatter.ipp
FN:108,115,_ZN5boost9unit_test6output17xml_log_formatter17test_unit_skippedERSoRKNS0_9test_unitENS0_13basic_cstringIKcEE
FN:120,139,_ZN5boost9unit_test6output17xml_log_formatter19log_exception_startERSoRKNS0_19log_checkpoint_dataERKNS_19execution_exceptionE
FN:144,147,_ZN5boost9unit_test6output17xml_log_formatter20log_exception_finishERSo
FN:152,163,_ZN5boost9unit_test6output17xml_log_formatter15log_entry_startERSoRKNS0_14log_entry_dataENS0_23unit_test_log_formatter15log_entry_typesE
FN:168,171,_ZN5boost9unit_test6output17xml_log_formatter15log_entry_valueERSoNS0_13basic_cstringIKcEE
FN:176,186,_ZN5boost9unit_test6output17xml_log_formatter16log_entry_finishERSo
FN:191,199,_ZN5boost9unit_test6output17xml_log_formatter19entry_context_startERSoNS0_9log_levelE
FN:204,207,_ZN5boost9unit_test6output17xml_log_formatter20entry_context_finishERSoNS0_9log_levelE
FN:212,215,_ZN5boost9unit_test6output17xml_log_formatter17log_entry_contextERSoNS0_9log_levelENS0_13basic_cstringIKcEE
FN:40,43,_ZN5boost9unit_test6outputL12tu_type_nameERKNS0_9test_unitE
FN:50,53,_ZN5boost9unit_test6output17xml_log_formatter9log_startERSom
FN:58,61,_ZN5boost9unit_test6output17xml_log_formatter10log_finishERSo
FN:66,78,_ZN5boost9unit_test6output17xml_log_formatter14log_build_infoERSob
FN:83,92,_ZN5boost9unit_test6output17xml_log_formatter15test_unit_startERSoRKNS0_9test_unitE
FN:97,103,_ZN5boost9unit_test6output17xml_log_formatter16test_unit_finishERSoRKNS0_9test_unitEm
FNDA:0,_ZN5boost9unit_test6output17xml_log_formatter17test_unit_skippedERSoRKNS0_9test_unitENS0_13basic_cstringIKcEE
FNDA:0,_ZN5boost9unit_test6output17xml_log_formatter19log_exception_startERSoRKNS0_19log_checkpoint_dataERKNS_19execution_exceptionE
FNDA:0,_ZN5boost9unit_test6output17xml_log_formatter20log_exception_finishERSo
FNDA:0,_ZN5boost9unit_test6output17xml_log_formatter15log_entry_startERSoRKNS0_14log_entry_dataENS0_23unit_test_log_formatter15log_entry_typesE
FNDA:0,_ZN5boost9unit_test6output17xml_log_formatter15log_entry_valueERSoNS0_13basic_cstringIKcEE
FNDA:0,_ZN5boost9unit_test6output17xml_log_formatter16log_entry_finishERSo
FNDA:0,_ZN5boost9unit_test6output17xml_log_formatter19entry_context_startERSoNS0_9log_levelE
FNDA:0,_ZN5boost9unit_test6output17xml_log_formatter20entry_context_finishERSoNS0_9log_levelE
FNDA:0,_ZN5boost9unit_test6output17xml_log_formatter17log_entry_contextERSoNS0_9log_levelENS0_13basic_cstringIKcEE
FNDA:0,_ZN5boost9unit_test6outputL12tu_type_nameERKNS0_9test_unitE
FNDA:0,_ZN5boost9unit_test6output17xml_log_formatter9log_startERSom
FNDA:0,_ZN5boost9unit_test6output17xml_log_formatter10log_finishERSo
FNDA:0,_ZN5boost9unit_test6output17xml_log_formatter14log_build_infoERSob
FNDA:0,_ZN5boost9unit_test6output17xml_log_formatter15test_unit_startERSoRKNS0_9test_unitE
FNDA:0,_ZN5boost9unit_test6output17xml_log_formatter16test_unit_finishERSoRKNS0_9test_unitEm
FNF:15
FNH:0
DA:40,0
DA:42,0
DA:50,0
DA:52,0
DA:53,0
DA:58,0
DA:60,0
DA:61,0
DA:66,0
DA:68,0
DA:70,0
DA:71,0
DA:72,0
DA:73,0
DA:74,0
DA:76,0
DA:78,0
DA:83,0
DA:85,0
DA:87,0
DA:88,0
DA:89,0
DA:91,0
DA:92,0
DA:97,0
DA:99,0
DA:100,0
DA:102,0
DA:103,0
DA:108,0
DA:110,0
DA:111,0
DA:112,0
DA:113,0
DA:114,0
DA:115,0
DA:120,0
DA:122,0
DA:124,0
DA:125,0
DA:127,0
DA:128,0
DA:130,0
DA:132,0
DA:133,0
DA:134,0
DA:135,0
DA:136,0
DA:137,0
DA:139,0
DA:144,0
DA:146,0
DA:147,0
DA:152,0
DA:154,0
DA:156,0
DA:157,0
DA:158,0
DA:159,0
DA:160,0
DA:162,0
DA:163,0
DA:168,0
DA:170,0
DA:171,0
DA:176,0
DA:178,0
DA:179,0
DA:180,0
DA:183,0
DA:185,0
DA:186,0
DA:191,0
DA:193,0
DA:194,0
DA:195,0
DA:198,0
DA:199,0
DA:204,0
DA:206,0
DA:207,0
DA:212,0
DA:214,0
DA:215,0
LF:84
LH:0
end_of_record
TN:
SF:/usr/include/boost/test/impl/xml_report_formatter.ipp
FN:103,107,_ZN5boost9unit_test6output20xml_report_formatter22do_confirmation_reportERKNS0_9test_unitERSo
FN:35,38,_ZN5boost9unit_test6output20xml_report_formatter20results_report_startERSo
FN:43,46,_ZN5boost9unit_test6output20xml_report_formatter21results_report_finishERSo
FN:52,90,_ZN5boost9unit_test6output20xml_report_formatter22test_unit_report_startERKNS0_9test_unitERSo
FN:95,98,_ZN5boost9unit_test6output20xml_report_formatter23test_unit_report_finishERKNS0_9test_unitERSo
FNDA:0,_ZN5boost9unit_test6output20xml_report_formatter22do_confirmation_reportERKNS0_9test_unitERSo
FNDA:0,_ZN5boost9unit_test6output20xml_report_formatter20results_report_startERSo
FNDA:0,_ZN5boost9unit_test6output20xml_report_formatter21results_report_finishERSo
FNDA:0,_ZN5boost9unit_test6output20xml_report_formatter22test_unit_report_startERKNS0_9test_unitERSo
FNDA:0,_ZN5boost9unit_test6output20xml_report_formatter23test_unit_report_finishERKNS0_9test_unitERSo
FNF:5
FNH:0
DA:35,0
DA:37,0
DA:38,0
DA:43,0
DA:45,0
DA:46,0
DA:52,0
DA:54,0
DA:56,0
DA:58,0
DA:59,0
DA:60,0
DA:61,0
DA:62,0
DA:63,0
DA:64,0
DA:65,0
DA:67,0
DA:69,0
DA:70,0
DA:71,0
DA:72,0
DA:73,0
DA:74,0
DA:75,0
DA:78,0
DA:79,0
DA:80,0
DA:81,0
DA:82,0
DA:83,0
DA:84,0
DA:85,0
DA:89,0
DA:90,0
DA:95,0
DA:97,0
DA:98,0
DA:103,0
DA:105,0
DA:106,0
DA:107,0
LF:42
LH:0
end_of_record
TN:
SF:/usr/include/boost/test/output/compiler_log_formatter.hpp
FN:36,36,_ZN5boost9unit_test6output22compiler_log_formatterC2Ev
FNDA:1,_ZN5boost9unit_test6output22compiler_log_formatterC2Ev
FNF:1
FNH:1
DA:36,1
LF:1
LH:1
end_of_record
TN:
SF:/usr/include/boost/test/output/junit_log_formatter.hpp
FN:126,134,_ZN5boost9unit_test6output19junit_log_formatter13set_log_levelENS0_9log_levelE
FN:147,152,_ZN5boost9unit_test6output19junit_log_formatter21get_current_log_entryEv
FN:49,50,_ZN5boost9unit_test6output10junit_impl16junit_log_helper15assertion_entryC2Ev
FN:70,71,_ZN5boost9unit_test6output10junit_impl16junit_log_helperC2Ev
FN:73,79,_ZN5boost9unit_test6output10junit_impl16junit_log_helper5clearEv
FN:92,99,_ZN5boost9unit_test6output19junit_log_formatterC2Ev
FNDA:2,_ZN5boost9unit_test6output19junit_log_formatter13set_log_levelENS0_9log_levelE
FNDA:0,_ZN5boost9unit_test6output19junit_log_formatter21get_current_log_entryEv
FNDA:0,_ZN5boost9unit_test6output10junit_impl16junit_log_helper15assertion_entryC2Ev
FNDA:1,_ZN5boost9unit_test6output10junit_impl16junit_log_helperC2Ev
FNDA:0,_ZN5boost9unit_test6output10junit_impl16junit_log_helper5clearEv
FNDA:1,_ZN5boost9unit_test6output19junit_log_formatterC2Ev
FNF:6
FNH:3
DA:49,0
DA:50,0
DA:70,1
DA:71,1
DA:73,0
DA:74,0
DA:75,0
DA:76,0
DA:77,0
DA:78,0
DA:79,0
DA:92,1
DA:97,1
DA:98,1
DA:99,1
DA:126,2
DA:128,2
DA:129,0
DA:130,2
DA:131,0
DA:133,2
DA:134,2
DA:147,0
DA:148,0
DA:149,0
DA:150,0
DA:151,0
LF:27
LH:11
end_of_record
TN:
SF:/usr/include/boost/test/output/plain_report_formatter.hpp
FN:36,36,_ZN5boost9unit_test6output22plain_report_formatterC2Ev
FNDA:2,_ZN5boost9unit_test6output22plain_report_formatterC2Ev
FNF:1
FNH:1
DA:36,2
LF:1
LH:1
end_of_record
TN:
SF:/usr/include/boost/test/output/xml_log_formatter.hpp
FNF:0
FNH:0
LF:0
LH:0
end_of_record
TN:
SF:/usr/include/boost/test/output/xml_report_formatter.hpp
FNF:0
FNH:0
LF:0
LH:0
end_of_record
TN:
SF:/usr/include/boost/test/progress_monitor.hpp
FN:43,43,_ZN5boost9unit_test18progress_monitor_t8priorityEv
FN:52,52,_ZN5boost9unit_test18progress_monitor_tD0Ev
FN:52,52,_ZN5boost9unit_test18progress_monitor_tD2Ev
FNDA:0,_ZN5boost9unit_test18progress_monitor_t8priorityEv
FNDA:0,_ZN5boost9unit_test18progress_monitor_tD0Ev
FNDA:1,_ZN5boost9unit_test18progress_monitor_tD2Ev
FNF:3
FNH:1
DA:43,0
DA:52,1
LF:2
LH:1
end_of_record
TN:
SF:/usr/include/boost/test/results_collector.hpp
FN:135,135,_ZN5boost9unit_test19results_collector_t8priorityEv
FN:143,143,_ZN5boost9unit_test19results_collector_tD0Ev
FN:143,143,_ZN5boost9unit_test19results_collector_tD2Ev
FN:41,41,_ZN5boost9unit_test12_GLOBAL__N_122first_failed_assertionEv
FN:57,57,_ZN5boost9unit_test12test_results19readonly_property57C2Ev
FN:61,61,_ZN5boost9unit_test12test_results19readonly_property61C2Ev
FNDA:12,_ZN5boost9unit_test19results_collector_t8priorityEv
FNDA:0,_ZN5boost9unit_test19results_collector_tD0Ev
FNDA:1,_ZN5boost9unit_test19results_collector_tD2Ev
FNDA:0,_ZN5boost9unit_test12_GLOBAL__N_122first_failed_assertionEv
FNDA:702,_ZN5boost9unit_test12test_results19readonly_property57C2Ev
FNDA:162,_ZN5boost9unit_test12test_results19readonly_property61C2Ev
FNF:6
FNH:4
DA:41,0
DA:57,702
DA:61,162
DA:135,12
DA:143,1
LF:5
LH:4
end_of_record
TN:
SF:/usr/include/boost/test/results_reporter.hpp
FN:46,46,_ZN5boost9unit_test16results_reporter6formatD0Ev
FN:46,46,_ZN5boost9unit_test16results_reporter6formatD2Ev
FNDA:0,_ZN5boost9unit_test16results_reporter6formatD0Ev
FNDA:2,_ZN5boost9unit_test16results_reporter6formatD2Ev
FNF:2
FNH:1
DA:46,2
LF:1
LH:1
end_of_record
TN:
SF:/usr/include/boost/test/test_framework_init_observer.hpp
FN:37,37,_ZN5boost9unit_test25framework_init_observer_tC2Ev
FN:45,45,_ZN5boost9unit_test25framework_init_observer_t8priorityEv
FNDA:1,_ZN5boost9unit_test25framework_init_observer_tC2Ev
FNDA:27,_ZN5boost9unit_test25framework_init_observer_t8priorityEv
FNF:2
FNH:2
DA:37,1
DA:45,27
LF:2
LH:2
end_of_record
TN:
SF:/usr/include/boost/test/tools/assertion_result.hpp
FN:52,54,_ZN5boost10test_tools16assertion_resultC2Eb
FN:60,60,_ZNK5boost10test_tools16assertion_resultntEv
FN:61,61,_ZN5boost10test_tools16assertion_resultaSEb
FN:65,65,_ZN5boost10test_tools16assertion_result19readonly_property65C2Eb
FN:68,68,_ZNK5boost10test_tools16assertion_result17has_empty_messageEv
FN:69,75,_ZN5boost10test_tools16assertion_result7messageEv
FN:76,76,_ZNK5boost10test_tools16assertion_result7messageEv
FNDA:215,_ZN5boost10test_tools16assertion_resultC2Eb
FNDA:215,_ZNK5boost10test_tools16assertion_resultntEv
FNDA:0,_ZN5boost10test_tools16assertion_resultaSEb
FNDA:215,_ZN5boost10test_tools16assertion_result19readonly_property65C2Eb
FNDA:161,_ZNK5boost10test_tools16assertion_result17has_empty_messageEv
FNDA:0,_ZN5boost10test_tools16assertion_result7messageEv
FNDA:0,_ZNK5boost10test_tools16assertion_result7messageEv
FNF:7
FNH:4
DA:52,215
DA:53,215
DA:54,215
DA:60,215
DA:61,0
DA:65,215
DA:68,161
DA:69,0
DA:71,0
DA:72,0
DA:74,0
DA:76,0
LF:12
LH:6
end_of_record
TN:
SF:/usr/include/boost/test/tools/detail/fwd.hpp
FN:45,45,_ZN5boost10test_tools9tt_detail10dummy_condEv
FNDA:163,_ZN5boost10test_tools9tt_detail10dummy_condEv
FNF:1
FNH:1
DA:45,163
LF:1
LH:1
end_of_record
TN:
SF:/usr/include/boost/test/tools/detail/print_helper.hpp
FN:118,118,_ZN5boost10test_tools9tt_detail15print_log_valueIA11_cE13set_precisionERSoN4mpl_5bool_ILb1EEE
FN:118,118,_ZN5boost10test_tools9tt_detail15print_log_valueIA16_cE13set_precisionERSoN4mpl_5bool_ILb1EEE
FN:118,118,_ZN5boost10test_tools9tt_detail15print_log_valueIA1_cE13set_precisionERSoN4mpl_5bool_ILb1EEE
FN:118,118,_ZN5boost10test_tools9tt_detail15print_log_valueIA25_cE13set_precisionERSoN4mpl_5bool_ILb1EEE
FN:118,118,_ZN5boost10test_tools9tt_detail15print_log_valueIA26_cE13set_precisionERSoN4mpl_5bool_ILb1EEE
FN:118,118,_ZN5boost10test_tools9tt_detail15print_log_valueIA2_cE13set_precisionERSoN4mpl_5bool_ILb1EEE
FN:118,118,_ZN5boost10test_tools9tt_detail15print_log_valueIA30_cE13set_precisionERSoN4mpl_5bool_ILb1EEE
FN:118,118,_ZN5boost10test_tools9tt_detail15print_log_valueIA34_cE13set_precisionERSoN4mpl_5bool_ILb1EEE
FN:118,118,_ZN5boost10test_tools9tt_detail15print_log_valueIA38_cE13set_precisionERSoN4mpl_5bool_ILb1EEE
FN:118,118,_ZN5boost10test_tools9tt_detail15print_log_valueIA42_cE13set_precisionERSoN4mpl_5bool_ILb1EEE
FN:118,118,_ZN5boost10test_tools9tt_detail15print_log_valueIA45_cE13set_precisionERSoN4mpl_5bool_ILb1EEE
FN:118,118,_ZN5boost10test_tools9tt_detail15print_log_valueIA4_cE13set_precisionERSoN4mpl_5bool_ILb1EEE
FN:118,118,_ZN5boost10test_tools9tt_detail15print_log_valueIA6_cE13set_precisionERSoN4mpl_5bool_ILb1EEE
FN:118,118,_ZN5boost10test_tools9tt_detail15print_log_valueIA7_cE13set_precisionERSoN4mpl_5bool_ILb1EEE
FN:118,118,_ZN5boost10test_tools9tt_detail15print_log_valueIA8_cE13set_precisionERSoN4mpl_5bool_ILb1EEE
FN:195,195,_ZN5boost10test_tools9tt_detail14print_helper_tIA11_cEC2ERA11_Kc
FN:195,195,_ZN5boost10test_tools9tt_detail14print_helper_tIA16_cEC2ERA16_Kc
FN:195,195,_ZN5boost10test_tools9tt_detail14print_helper_tIA1_cEC2ERA1_Kc
FN:195,195,_ZN5boost10test_tools9tt_detail14print_helper_tIA25_cEC2ERA25_Kc
FN:195,195,_ZN5boost10test_tools9tt_detail14print_helper_tIA26_cEC2ERA26_Kc
FN:195,195,_ZN5boost10test_tools9tt_detail14print_helper_tIA2_cEC2ERA2_Kc
FN:195,195,_ZN5boost10test_tools9tt_detail14print_helper_tIA30_cEC2ERA30_Kc
FN:195,195,_ZN5boost10test_tools9tt_detail14print_helper_tIA34_cEC2ERA34_Kc
FN:195,195,_ZN5boost10test_tools9tt_detail14print_helper_tIA38_cEC2ERA38_Kc
FN:195,195,_ZN5boost10test_tools9tt_detail14print_helper_tIA42_cEC2ERA42_Kc
FN:195,195,_ZN5boost10test_tools9tt_detail14print_helper_tIA45_cEC2ERA45_Kc
FN:195,195,_ZN5boost10test_tools9tt_detail14print_helper_tIA4_cEC2ERA4_Kc
FN:195,195,_ZN5boost10test_tools9tt_detail14print_helper_tIA6_cEC2ERA6_Kc
FN:195,195,_ZN5boost10test_tools9tt_detail14print_helper_tIA7_cEC2ERA7_Kc
FN:195,195,_ZN5boost10test_tools9tt_detail14print_helper_tIA8_cEC2ERA8_Kc
FN:195,195,_ZN5boost10test_tools9tt_detail14print_helper_tINS2_IA1_cEEEC2ERKS4_
FN:195,195,_ZN5boost10test_tools9tt_detail14print_helper_tINS2_IA2_cEEEC2ERKS4_
FN:195,195,_ZN5boost10test_tools9tt_detail14print_helper_tINS2_IA4_cEEEC2ERKS4_
FN:195,195,_ZN5boost10test_tools9tt_detail14print_helper_tINS2_IA6_cEEEC2ERKS4_
FN:195,195,_ZN5boost10test_tools9tt_detail14print_helper_tINS2_IA7_cEEEC2ERKS4_
FN:195,195,_ZN5boost10test_tools9tt_detail14print_helper_tINS2_INSt7__cxx1112basic_stringIcSt11char_traitsIcESaIcEEEEEEC2ERKS9_
FN:195,195,_ZN5boost10test_tools9tt_detail14print_helper_tINS2_IiEEEC2ERKS3_
FN:195,195,_ZN5boost10test_tools9tt_detail14print_helper_tINS2_ImEEEC2ERKS3_
FN:195,195,_ZN5boost10test_tools9tt_detail14print_helper_tINS_9unit_test13basic_cstringIKcEEEC2ERKS6_
FN:195,195,_ZN5boost10test_tools9tt_detail14print_helper_tINSt7__cxx1112basic_stringIcSt11char_traitsIcESaIcEEEEC2ERKS8_
FN:195,195,_ZN5boost10test_tools9tt_detail14print_helper_tIcEC2ERKc
FN:195,195,_ZN5boost10test_tools9tt_detail14print_helper_tIiEC2ERKi
FN:195,195,_ZN5boost10test_tools9tt_detail14print_helper_tIjEC2ERKj
FN:195,195,_ZN5boost10test_tools9tt_detail14print_helper_tImEC2ERKm
FN:216,219,_ZN5boost10test_tools9tt_detail12print_helperIA11_cEENS1_14print_helper_tIT_EERKS5_
FN:216,219,_ZN5boost10test_tools9tt_detail12print_helperIA16_cEENS1_14print_helper_tIT_EERKS5_
FN:216,219,_ZN5boost10test_tools9tt_detail12print_helperIA1_cEENS1_14print_helper_tIT_EERKS5_
FN:216,219,_ZN5boost10test_tools9tt_detail12print_helperIA25_cEENS1_14print_helper_tIT_EERKS5_
FN:216,219,_ZN5boost10test_tools9tt_detail12print_helperIA26_cEENS1_14print_helper_tIT_EERKS5_
FN:216,219,_ZN5boost10test_tools9tt_detail12print_helperIA2_cEENS1_14print_helper_tIT_EERKS5_
FN:216,219,_ZN5boost10test_tools9tt_detail12print_helperIA30_cEENS1_14print_helper_tIT_EERKS5_
FN:216,219,_ZN5boost10test_tools9tt_detail12print_helperIA34_cEENS1_14print_helper_tIT_EERKS5_
FN:216,219,_ZN5boost10test_tools9tt_detail12print_helperIA38_cEENS1_14print_helper_tIT_EERKS5_
FN:216,219,_ZN5boost10test_tools9tt_detail12print_helperIA42_cEENS1_14print_helper_tIT_EERKS5_
FN:216,219,_ZN5boost10test_tools9tt_detail12print_helperIA45_cEENS1_14print_helper_tIT_EERKS5_
FN:216,219,_ZN5boost10test_tools9tt_detail12print_helperIA4_cEENS1_14print_helper_tIT_EERKS5_
FN:216,219,_ZN5boost10test_tools9tt_detail12print_helperIA6_cEENS1_14print_helper_tIT_EERKS5_
FN:216,219,_ZN5boost10test_tools9tt_detail12print_helperIA7_cEENS1_14print_helper_tIT_EERKS5_
FN:216,219,_ZN5boost10test_tools9tt_detail12print_helperIA8_cEENS1_14print_helper_tIT_EERKS5_
FN:216,219,_ZN5boost10test_tools9tt_detail12print_helperINS1_14print_helper_tIA1_cEEEENS3_IT_EERKS6_
FN:216,219,_ZN5boost10test_tools9tt_detail12print_helperINS1_14print_helper_tIA2_cEEEENS3_IT_EERKS6_
FN:216,219,_ZN5boost10test_tools9tt_detail12print_helperINS1_14print_helper_tIA4_cEEEENS3_IT_EERKS6_
FN:216,219,_ZN5boost10test_tools9tt_detail12print_helperINS1_14print_helper_tIA6_cEEEENS3_IT_EERKS6_
FN:216,219,_ZN5boost10test_tools9tt_detail12print_helperINS1_14print_helper_tIA7_cEEEENS3_IT_EERKS6_
FN:216,219,_ZN5boost10test_tools9tt_detail12print_helperINS1_14print_helper_tINSt7__cxx1112basic_stringIcSt11char_traitsIcESaIcEEEEEEENS3_IT_EERKSB_
FN:216,219,_ZN5boost10test_tools9tt_detail12print_helperINS1_14print_helper_tIiEEEENS3_IT_EERKS5_
FN:216,219,_ZN5boost10test_tools9tt_detail12print_helperINS1_14print_helper_tImEEEENS3_IT_EERKS5_
FN:216,219,_ZN5boost10test_tools9tt_detail12print_helperINS_9unit_test13basic_cstringIKcEEEENS1_14print_helper_tIT_EERKS8_
FN:216,219,_ZN5boost10test_tools9tt_detail12print_helperINSt7__cxx1112basic_stringIcSt11char_traitsIcESaIcEEEEENS1_14print_helper_tIT_EERKSA_
FN:216,219,_ZN5boost10test_tools9tt_detail12print_helperIcEENS1_14print_helper_tIT_EERKS4_
FN:216,219,_ZN5boost10test_tools9tt_detail12print_helperIiEENS1_14print_helper_tIT_EERKS4_
FN:216,219,_ZN5boost10test_tools9tt_detail12print_helperIjEENS1_14print_helper_tIT_EERKS4_
FN:216,219,_ZN5boost10test_tools9tt_detail12print_helperImEENS1_14print_helper_tIT_EERKS4_
FN:225,230,_ZN5boost10test_tools9tt_detaillsIA11_cEERSoS4_RKNS1_14print_helper_tIT_EE
FN:225,230,_ZN5boost10test_tools9tt_detaillsIA16_cEERSoS4_RKNS1_14print_helper_tIT_EE
FN:225,230,_ZN5boost10test_tools9tt_detaillsIA1_cEERSoS4_RKNS1_14print_helper_tIT_EE
FN:225,230,_ZN5boost10test_tools9tt_detaillsIA25_cEERSoS4_RKNS1_14print_helper_tIT_EE
FN:225,230,_ZN5boost10test_tools9tt_detaillsIA26_cEERSoS4_RKNS1_14print_helper_tIT_EE
FN:225,230,_ZN5boost10test_tools9tt_detaillsIA2_cEERSoS4_RKNS1_14print_helper_tIT_EE
FN:225,230,_ZN5boost10test_tools9tt_detaillsIA30_cEERSoS4_RKNS1_14print_helper_tIT_EE
FN:225,230,_ZN5boost10test_tools9tt_detaillsIA34_cEERSoS4_RKNS1_14print_helper_tIT_EE
FN:225,230,_ZN5boost10test_tools9tt_detaillsIA38_cEERSoS4_RKNS1_14print_helper_tIT_EE
FN:225,230,_ZN5boost10test_tools9tt_detaillsIA42_cEERSoS4_RKNS1_14print_helper_tIT_EE
FN:225,230,_ZN5boost10test_tools9tt_detaillsIA45_cEERSoS4_RKNS1_14print_helper_tIT_EE
FN:225,230,_ZN5boost10test_tools9tt_detaillsIA4_cEERSoS4_RKNS1_14print_helper_tIT_EE
FN:225,230,_ZN5boost10test_tools9tt_detaillsIA6_cEERSoS4_RKNS1_14print_helper_tIT_EE
FN:225,230,_ZN5boost10test_tools9tt_detaillsIA7_cEERSoS4_RKNS1_14print_helper_tIT_EE
FN:225,230,_ZN5boost10test_tools9tt_detaillsIA8_cEERSoS4_RKNS1_14print_helper_tIT_EE
FN:225,230,_ZN5boost10test_tools9tt_detaillsINS1_14print_helper_tIA1_cEEEERSoS6_RKNS3_IT_EE
FN:225,230,_ZN5boost10test_tools9tt_detaillsINS1_14print_helper_tIA2_cEEEERSoS6_RKNS3_IT_EE
FN:225,230,_ZN5boost10test_tools9tt_detaillsINS1_14print_helper_tIA4_cEEEERSoS6_RKNS3_IT_EE
FN:225,230,_ZN5boost10test_tools9tt_detaillsINS1_14print_helper_tIA6_cEEEERSoS6_RKNS3_IT_EE
FN:225,230,_ZN5boost10test_tools9tt_detaillsINS1_14print_helper_tIA7_cEEEERSoS6_RKNS3_IT_EE
FN:225,230,_ZN5boost10test_tools9tt_detaillsINS1_14print_helper_tINSt7__cxx1112basic_stringIcSt11char_traitsIcESaIcEEEEEEERSoSB_RKNS3_IT_EE
FN:225,230,_ZN5boost10test_tools9tt_detaillsINS1_14print_helper_tIiEEEERSoS5_RKNS3_IT_EE
FN:225,230,_ZN5boost10test_tools9tt_detaillsINS1_14print_helper_tImEEEERSoS5_RKNS3_IT_EE
FN:225,230,_ZN5boost10test_tools9tt_detaillsINS_9unit_test13basic_cstringIKcEEEERSoS7_RKNS1_14print_helper_tIT_EE
FN:225,230,_ZN5boost10test_tools9tt_detaillsINSt7__cxx1112basic_stringIcSt11char_traitsIcESaIcEEEEERSoS9_RKNS1_14print_helper_tIT_EE
FN:225,230,_ZN5boost10test_tools9tt_detaillsIcEERSoS3_RKNS1_14print_helper_tIT_EE
FN:225,230,_ZN5boost10test_tools9tt_detaillsIiEERSoS3_RKNS1_14print_helper_tIT_EE
FN:225,230,_ZN5boost10test_tools9tt_detaillsIjEERSoS3_RKNS1_14print_helper_tIT_EE
FN:225,230,_ZN5boost10test_tools9tt_detaillsImEERSoS3_RKNS1_14print_helper_tIT_EE
FN:52,57,_ZN5boost10test_tools9tt_detail4impl21boost_test_print_typeIA11_cEERSoS5_RKT_
FN:52,57,_ZN5boost10test_tools9tt_detail4impl21boost_test_print_typeIA16_cEERSoS5_RKT_
FN:52,57,_ZN5boost10test_tools9tt_detail4impl21boost_test_print_typeIA1_cEERSoS5_RKT_
FN:52,57,_ZN5boost10test_tools9tt_detail4impl21boost_test_print_typeIA25_cEERSoS5_RKT_
FN:52,57,_ZN5boost10test_tools9tt_detail4impl21boost_test_print_typeIA26_cEERSoS5_RKT_
FN:52,57,_ZN5boost10test_tools9tt_detail4impl21boost_test_print_typeIA2_cEERSoS5_RKT_
FN:52,57,_ZN5boost10test_tools9tt_detail4impl21boost_test_print_typeIA30_cEERSoS5_RKT_
FN:52,57,_ZN5boost10test_tools9tt_detail4impl21boost_test_print_typeIA34_cEERSoS5_RKT_
FN:52,57,_ZN5boost10test_tools9tt_detail4impl21boost_test_print_typeIA38_cEERSoS5_RKT_
FN:52,57,_ZN5boost10test_tools9tt_detail4impl21boost_test_print_typeIA42_cEERSoS5_RKT_
FN:52,57,_ZN5boost10test_tools9tt_detail4impl21boost_test_print_typeIA45_cEERSoS5_RKT_
FN:52,57,_ZN5boost10test_tools9tt_detail4impl21boost_test_print_typeIA4_cEERSoS5_RKT_
FN:52,57,_ZN5boost10test_tools9tt_detail4impl21boost_test_print_typeIA6_cEERSoS5_RKT_
FN:52,57,_ZN5boost10test_tools9tt_detail4impl21boost_test_print_typeIA7_cEERSoS5_RKT_
FN:52,57,_ZN5boost10test_tools9tt_detail4impl21boost_test_print_typeIA8_cEERSoS5_RKT_
FN:52,57,_ZN5boost10test_tools9tt_detail4impl21boost_test_print_typeINS1_14print_helper_tIA1_cEEEERSoS7_RKT_
FN:52,57,_ZN5boost10test_tools9tt_detail4impl21boost_test_print_typeINS1_14print_helper_tIA2_cEEEERSoS7_RKT_
FN:52,57,_ZN5boost10test_tools9tt_detail4impl21boost_test_print_typeINS1_14print_helper_tIA4_cEEEERSoS7_RKT_
FN:52,57,_ZN5boost10test_tools9tt_detail4impl21boost_test_print_typeINS1_14print_helper_tIA6_cEEEERSoS7_RKT_
FN:52,57,_ZN5boost10test_tools9tt_detail4impl21boost_test_print_typeINS1_14print_helper_tIA7_cEEEERSoS7_RKT_
FN:52,57,_ZN5boost10test_tools9tt_detail4impl21boost_test_print_typeINS1_14print_helper_tINSt7__cxx1112basic_stringIcSt11char_traitsIcESaIcEEEEEEERSoSC_RKT_
FN:52,57,_ZN5boost10test_tools9tt_detail4impl21boost_test_print_typeINS1_14print_helper_tIiEEEERSoS6_RKT_
FN:52,57,_ZN5boost10test_tools9tt_detail4impl21boost_test_print_typeINS1_14print_helper_tImEEEERSoS6_RKT_
FN:52,57,_ZN5boost10test_tools9tt_detail4impl21boost_test_print_typeINS_9unit_test13basic_cstringIKcEEEERSoS8_RKT_
FN:52,57,_ZN5boost10test_tools9tt_detail4impl21boost_test_print_typeINSt7__cxx1112basic_stringIcSt11char_traitsIcESaIcEEEEERSoSA_RKT_
FN:52,57,_ZN5boost10test_tools9tt_detail4impl21boost_test_print_typeIiEERSoS4_RKT_
FN:52,57,_ZN5boost10test_tools9tt_detail4impl21boost_test_print_typeIjEERSoS4_RKT_
FN:52,57,_ZN5boost10test_tools9tt_detail4impl21boost_test_print_typeImEERSoS4_RKT_
FN:61,63,_ZNK5boost10test_tools9tt_detail4impl26boost_test_print_type_implclIA11_cEERSoS6_RKT_
FN:61,63,_ZNK5boost10test_tools9tt_detail4impl26boost_test_print_type_implclIA16_cEERSoS6_RKT_
FN:61,63,_ZNK5boost10test_tools9tt_detail4impl26boost_test_print_type_implclIA1_cEERSoS6_RKT_
FN:61,63,_ZNK5boost10test_tools9tt_detail4impl26boost_test_print_type_implclIA25_cEERSoS6_RKT_
FN:61,63,_ZNK5boost10test_tools9tt_detail4impl26boost_test_print_type_implclIA26_cEERSoS6_RKT_
FN:61,63,_ZNK5boost10test_tools9tt_detail4impl26boost_test_print_type_implclIA2_cEERSoS6_RKT_
FN:61,63,_ZNK5boost10test_tools9tt_detail4impl26boost_test_print_type_implclIA30_cEERSoS6_RKT_
FN:61,63,_ZNK5boost10test_tools9tt_detail4impl26boost_test_print_type_implclIA34_cEERSoS6_RKT_
FN:61,63,_ZNK5boost10test_tools9tt_detail4impl26boost_test_print_type_implclIA38_cEERSoS6_RKT_
FN:61,63,_ZNK5boost10test_tools9tt_detail4impl26boost_test_print_type_implclIA42_cEERSoS6_RKT_
FN:61,63,_ZNK5boost10test_tools9tt_detail4impl26boost_test_print_type_implclIA45_cEERSoS6_RKT_
FN:61,63,_ZNK5boost10test_tools9tt_detail4impl26boost_test_print_type_implclIA4_cEERSoS6_RKT_
FN:61,63,_ZNK5boost10test_tools9tt_detail4impl26boost_test_print_type_implclIA6_cEERSoS6_RKT_
FN:61,63,_ZNK5boost10test_tools9tt_detail4impl26boost_test_print_type_implclIA7_cEERSoS6_RKT_
FN:61,63,_ZNK5boost10test_tools9tt_detail4impl26boost_test_print_type_implclIA8_cEERSoS6_RKT_
FN:61,63,_ZNK5boost10test_tools9tt_detail4impl26boost_test_print_type_implclINS1_14print_helper_tIA1_cEEEERSoS8_RKT_
FN:61,63,_ZNK5boost10test_tools9tt_detail4impl26boost_test_print_type_implclINS1_14print_helper_tIA2_cEEEERSoS8_RKT_
FN:61,63,_ZNK5boost10test_tools9tt_detail4impl26boost_test_print_type_implclINS1_14print_helper_tIA4_cEEEERSoS8_RKT_
FN:61,63,_ZNK5boost10test_tools9tt_detail4impl26boost_test_print_type_implclINS1_14print_helper_tIA6_cEEEERSoS8_RKT_
FN:61,63,_ZNK5boost10test_tools9tt_detail4impl26boost_test_print_type_implclINS1_14print_helper_tIA7_cEEEERSoS8_RKT_
FN:61,63,_ZNK5boost10test_tools9tt_detail4impl26boost_test_print_type_implclINS1_14print_helper_tINSt7__cxx1112basic_stringIcSt11char_traitsIcESaIcEEEEEEERSoSD_RKT_
FN:61,63,_ZNK5boost10test_tools9tt_detail4impl26boost_test_print_type_implclINS1_14print_helper_tIiEEEERSoS7_RKT_
FN:61,63,_ZNK5boost10test_tools9tt_detail4impl26boost_test_print_type_implclINS1_14print_helper_tImEEEERSoS7_RKT_
FN:61,63,_ZNK5boost10test_tools9tt_detail4impl26boost_test_print_type_implclINS_9unit_test13basic_cstringIKcEEEERSoS9_RKT_
FN:61,63,_ZNK5boost10test_tools9tt_detail4impl26boost_test_print_type_implclINSt7__cxx1112basic_stringIcSt11char_traitsIcESaIcEEEEERSoSB_RKT_
FN:61,63,_ZNK5boost10test_tools9tt_detail4impl26boost_test_print_type_implclIiEERSoS5_RKT_
FN:61,63,_ZNK5boost10test_tools9tt_detail4impl26boost_test_print_type_implclIjEERSoS5_RKT_
FN:61,63,_ZNK5boost10test_tools9tt_detail4impl26boost_test_print_type_implclImEERSoS5_RKT_
FN:83,95,_ZN5boost10test_tools9tt_detail15print_log_valueIA11_cEclERSoRA11_Kc
FN:83,95,_ZN5boost10test_tools9tt_detail15print_log_valueIA16_cEclERSoRA16_Kc
FN:83,95,_ZN5boost10test_tools9tt_detail15print_log_valueIA1_cEclERSoRA1_Kc
FN:83,95,_ZN5boost10test_tools9tt_detail15print_log_valueIA25_cEclERSoRA25_Kc
FN:83,95,_ZN5boost10test_tools9tt_detail15print_log_valueIA26_cEclERSoRA26_Kc
FN:83,95,_ZN5boost10test_tools9tt_detail15print_log_valueIA2_cEclERSoRA2_Kc
FN:83,95,_ZN5boost10test_tools9tt_detail15print_log_valueIA30_cEclERSoRA30_Kc
FN:83,95,_ZN5boost10test_tools9tt_detail15print_log_valueIA34_cEclERSoRA34_Kc
FN:83,95,_ZN5boost10test_tools9tt_detail15print_log_valueIA38_cEclERSoRA38_Kc
FN:83,95,_ZN5boost10test_tools9tt_detail15print_log_valueIA42_cEclERSoRA42_Kc
FN:83,95,_ZN5boost10test_tools9tt_detail15print_log_valueIA45_cEclERSoRA45_Kc
FN:83,95,_ZN5boost10test_tools9tt_detail15print_log_valueIA4_cEclERSoRA4_Kc
FN:83,95,_ZN5boost10test_tools9tt_detail15print_log_valueIA6_cEclERSoRA6_Kc
FN:83,95,_ZN5boost10test_tools9tt_detail15print_log_valueIA7_cEclERSoRA7_Kc
FN:83,95,_ZN5boost10test_tools9tt_detail15print_log_valueIA8_cEclERSoRA8_Kc
FN:83,95,_ZN5boost10test_tools9tt_detail15print_log_valueINS1_14print_helper_tIA1_cEEEclERSoRKS5_
FN:83,95,_ZN5boost10test_tools9tt_detail15print_log_valueINS1_14print_helper_tIA2_cEEEclERSoRKS5_
FN:83,95,_ZN5boost10test_tools9tt_detail15print_log_valueINS1_14print_helper_tIA4_cEEEclERSoRKS5_
FN:83,95,_ZN5boost10test_tools9tt_detail15print_log_valueINS1_14print_helper_tIA6_cEEEclERSoRKS5_
FN:83,95,_ZN5boost10test_tools9tt_detail15print_log_valueINS1_14print_helper_tIA7_cEEEclERSoRKS5_
FN:83,95,_ZN5boost10test_tools9tt_detail15print_log_valueINS1_14print_helper_tINSt7__cxx1112basic_stringIcSt11char_traitsIcESaIcEEEEEEclERSoRKSA_
FN:83,95,_ZN5boost10test_tools9tt_detail15print_log_valueINS1_14print_helper_tIiEEEclERSoRKS4_
FN:83,95,_ZN5boost10test_tools9tt_detail15print_log_valueINS1_14print_helper_tImEEEclERSoRKS4_
FN:83,95,_ZN5boost10test_tools9tt_detail15print_log_valueINS_9unit_test13basic_cstringIKcEEEclERSoRKS6_
FN:83,95,_ZN5boost10test_tools9tt_detail15print_log_valueINSt7__cxx1112basic_stringIcSt11char_traitsIcESaIcEEEEclERSoRKS8_
FN:83,95,_ZN5boost10test_tools9tt_detail15print_log_valueIiEclERSoRKi
FN:83,95,_ZN5boost10test_tools9tt_detail15print_log_valueIjEclERSoRKj
FN:83,95,_ZN5boost10test_tools9tt_detail15print_log_valueImEclERSoRKm
FN:97,116,_ZN5boost10test_tools9tt_detail15print_log_valueINS1_14print_helper_tIA1_cEEE13set_precisionERSoN4mpl_5bool_ILb0EEE
FN:97,116,_ZN5boost10test_tools9tt_detail15print_log_valueINS1_14print_helper_tIA2_cEEE13set_precisionERSoN4mpl_5bool_ILb0EEE
FN:97,116,_ZN5boost10test_tools9tt_detail15print_log_valueINS1_14print_helper_tIA4_cEEE13set_precisionERSoN4mpl_5bool_ILb0EEE
FN:97,116,_ZN5boost10test_tools9tt_detail15print_log_valueINS1_14print_helper_tIA6_cEEE13set_precisionERSoN4mpl_5bool_ILb0EEE
FN:97,116,_ZN5boost10test_tools9tt_detail15print_log_valueINS1_14print_helper_tIA7_cEEE13set_precisionERSoN4mpl_5bool_ILb0EEE
FN:97,116,_ZN5boost10test_tools9tt_detail15print_log_valueINS1_14print_helper_tINSt7__cxx1112basic_stringIcSt11char_traitsIcESaIcEEEEEE13set_precisionERSoN4mpl_5bool_ILb0EEE
FN:97,116,_ZN5boost10test_tools9tt_detail15print_log_valueINS1_14print_helper_tIiEEE13set_precisionERSoN4mpl_5bool_ILb0EEE
FN:97,116,_ZN5boost10test_tools9tt_detail15print_log_valueINS1_14print_helper_tImEEE13set_precisionERSoN4mpl_5bool_ILb0EEE
FN:97,116,_ZN5boost10test_tools9tt_detail15print_log_valueINS_9unit_test13basic_cstringIKcEEE13set_precisionERSoN4mpl_5bool_ILb0EEE
FN:97,116,_ZN5boost10test_tools9tt_detail15print_log_valueINSt7__cxx1112basic_stringIcSt11char_traitsIcESaIcEEEE13set_precisionERSoN4mpl_5bool_ILb0EEE
FN:97,116,_ZN5boost10test_tools9tt_detail15print_log_valueIiE13set_precisionERSoN4mpl_5bool_ILb0EEE
FN:97,116,_ZN5boost10test_tools9tt_detail15print_log_valueIjE13set_precisionERSoN4mpl_5bool_ILb0EEE
FN:97,116,_ZN5boost10test_tools9tt_detail15print_log_valueImE13set_precisionERSoN4mpl_5bool_ILb0EEE
FNDA:0,_ZN5boost10test_tools9tt_detail15print_log_valueIA11_cE13set_precisionERSoN4mpl_5bool_ILb1EEE
FNDA:0,_ZN5boost10test_tools9tt_detail15print_log_valueIA16_cE13set_precisionERSoN4mpl_5bool_ILb1EEE
FNDA:0,_ZN5boost10test_tools9tt_detail15print_log_valueIA1_cE13set_precisionERSoN4mpl_5bool_ILb1EEE
FNDA:0,_ZN5boost10test_tools9tt_detail15print_log_valueIA25_cE13set_precisionERSoN4mpl_5bool_ILb1EEE
FNDA:0,_ZN5boost10test_tools9tt_detail15print_log_valueIA26_cE13set_precisionERSoN4mpl_5bool_ILb1EEE
FNDA:0,_ZN5boost10test_tools9tt_detail15print_log_valueIA2_cE13set_precisionERSoN4mpl_5bool_ILb1EEE
FNDA:0,_ZN5boost10test_tools9tt_detail15print_log_valueIA30_cE13set_precisionERSoN4mpl_5bool_ILb1EEE
FNDA:0,_ZN5boost10test_tools9tt_detail15print_log_valueIA34_cE13set_precisionERSoN4mpl_5bool_ILb1EEE
FNDA:0,_ZN5boost10test_tools9tt_detail15print_log_valueIA38_cE13set_precisionERSoN4mpl_5bool_ILb1EEE
FNDA:0,_ZN5boost10test_tools9tt_detail15print_log_valueIA42_cE13set_precisionERSoN4mpl_5bool_ILb1EEE
FNDA:0,_ZN5boost10test_tools9tt_detail15print_log_valueIA45_cE13set_precisionERSoN4mpl_5bool_ILb1EEE
FNDA:0,_ZN5boost10test_tools9tt_detail15print_log_valueIA4_cE13set_precisionERSoN4mpl_5bool_ILb1EEE
FNDA:0,_ZN5boost10test_tools9tt_detail15print_log_valueIA6_cE13set_precisionERSoN4mpl_5bool_ILb1EEE
FNDA:0,_ZN5boost10test_tools9tt_detail15print_log_valueIA7_cE13set_precisionERSoN4mpl_5bool_ILb1EEE
FNDA:0,_ZN5boost10test_tools9tt_detail15print_log_valueIA8_cE13set_precisionERSoN4mpl_5bool_ILb1EEE
FNDA:0,_ZN5boost10test_tools9tt_detail14print_helper_tIA11_cEC2ERA11_Kc
FNDA:0,_ZN5boost10test_tools9tt_detail14print_helper_tIA16_cEC2ERA16_Kc
FNDA:3,_ZN5boost10test_tools9tt_detail14print_helper_tIA1_cEC2ERA1_Kc
FNDA:0,_ZN5boost10test_tools9tt_detail14print_helper_tIA25_cEC2ERA25_Kc
FNDA:0,_ZN5boost10test_tools9tt_detail14print_helper_tIA26_cEC2ERA26_Kc
FNDA:12,_ZN5boost10test_tools9tt_detail14print_helper_tIA2_cEC2ERA2_Kc
FNDA:0,_ZN5boost10test_tools9tt_detail14print_helper_tIA30_cEC2ERA30_Kc
FNDA:0,_ZN5boost10test_tools9tt_detail14print_helper_tIA34_cEC2ERA34_Kc
FNDA:0,_ZN5boost10test_tools9tt_detail14print_helper_tIA38_cEC2ERA38_Kc
FNDA:0,_ZN5boost10test_tools9tt_detail14print_helper_tIA42_cEC2ERA42_Kc
FNDA:0,_ZN5boost10test_tools9tt_detail14print_helper_tIA45_cEC2ERA45_Kc
FNDA:2,_ZN5boost10test_tools9tt_detail14print_helper_tIA4_cEC2ERA4_Kc
FNDA:7,_ZN5boost10test_tools9tt_detail14print_helper_tIA6_cEC2ERA6_Kc
FNDA:5,_ZN5boost10test_tools9tt_detail14print_helper_tIA7_cEC2ERA7_Kc
FNDA:0,_ZN5boost10test_tools9tt_detail14print_helper_tIA8_cEC2ERA8_Kc
FNDA:0,_ZN5boost10test_tools9tt_detail14print_helper_tINS2_IA1_cEEEC2ERKS4_
FNDA:0,_ZN5boost10test_tools9tt_detail14print_helper_tINS2_IA2_cEEEC2ERKS4_
FNDA:0,_ZN5boost10test_tools9tt_detail14print_helper_tINS2_IA4_cEEEC2ERKS4_
FNDA:0,_ZN5boost10test_tools9tt_detail14print_helper_tINS2_IA6_cEEEC2ERKS4_
FNDA:0,_ZN5boost10test_tools9tt_detail14print_helper_tINS2_IA7_cEEEC2ERKS4_
FNDA:0,_ZN5boost10test_tools9tt_detail14print_helper_tINS2_INSt7__cxx1112basic_stringIcSt11char_traitsIcESaIcEEEEEEC2ERKS9_
FNDA:0,_ZN5boost10test_tools9tt_detail14print_helper_tINS2_IiEEEC2ERKS3_
FNDA:0,_ZN5boost10test_tools9tt_detail14print_helper_tINS2_ImEEEC2ERKS3_
FNDA:0,_ZN5boost10test_tools9tt_detail14print_helper_tINS_9unit_test13basic_cstringIKcEEEC2ERKS6_
FNDA:29,_ZN5boost10test_tools9tt_detail14print_helper_tINSt7__cxx1112basic_stringIcSt11char_traitsIcESaIcEEEEC2ERKS8_
FNDA:0,_ZN5boost10test_tools9tt_detail14print_helper_tIcEC2ERKc
FNDA:5,_ZN5boost10test_tools9tt_detail14print_helper_tIiEC2ERKi
FNDA:0,_ZN5boost10test_tools9tt_detail14print_helper_tIjEC2ERKj
FNDA:1,_ZN5boost10test_tools9tt_detail14print_helper_tImEC2ERKm
FNDA:0,_ZN5boost10test_tools9tt_detail12print_helperIA11_cEENS1_14print_helper_tIT_EERKS5_
FNDA:0,_ZN5boost10test_tools9tt_detail12print_helperIA16_cEENS1_14print_helper_tIT_EERKS5_
FNDA:3,_ZN5boost10test_tools9tt_detail12print_helperIA1_cEENS1_14print_helper_tIT_EERKS5_
FNDA:0,_ZN5boost10test_tools9tt_detail12print_helperIA25_cEENS1_14print_helper_tIT_EERKS5_
FNDA:0,_ZN5boost10test_tools9tt_detail12print_helperIA26_cEENS1_14print_helper_tIT_EERKS5_
FNDA:12,_ZN5boost10test_tools9tt_detail12print_helperIA2_cEENS1_14print_helper_tIT_EERKS5_
FNDA:0,_ZN5boost10test_tools9tt_detail12print_helperIA30_cEENS1_14print_helper_tIT_EERKS5_
FNDA:0,_ZN5boost10test_tools9tt_detail12print_helperIA34_cEENS1_14print_helper_tIT_EERKS5_
FNDA:0,_ZN5boost10test_tools9tt_detail12print_helperIA38_cEENS1_14print_helper_tIT_EERKS5_
FNDA:0,_ZN5boost10test_tools9tt_detail12print_helperIA42_cEENS1_14print_helper_tIT_EERKS5_
FNDA:0,_ZN5boost10test_tools9tt_detail12print_helperIA45_cEENS1_14print_helper_tIT_EERKS5_
FNDA:2,_ZN5boost10test_tools9tt_detail12print_helperIA4_cEENS1_14print_helper_tIT_EERKS5_
FNDA:7,_ZN5boost10test_tools9tt_detail12print_helperIA6_cEENS1_14print_helper_tIT_EERKS5_
FNDA:5,_ZN5boost10test_tools9tt_detail12print_helperIA7_cEENS1_14print_helper_tIT_EERKS5_
FNDA:0,_ZN5boost10test_tools9tt_detail12print_helperIA8_cEENS1_14print_helper_tIT_EERKS5_
FNDA:0,_ZN5boost10test_tools9tt_detail12print_helperINS1_14print_helper_tIA1_cEEEENS3_IT_EERKS6_
FNDA:0,_ZN5boost10test_tools9tt_detail12print_helperINS1_14print_helper_tIA2_cEEEENS3_IT_EERKS6_
FNDA:0,_ZN5boost10test_tools9tt_detail12print_helperINS1_14print_helper_tIA4_cEEEENS3_IT_EERKS6_
FNDA:0,_ZN5boost10test_tools9tt_detail12print_helperINS1_14print_helper_tIA6_cEEEENS3_IT_EERKS6_
FNDA:0,_ZN5boost10test_tools9tt_detail12print_helperINS1_14print_helper_tIA7_cEEEENS3_IT_EERKS6_
FNDA:0,_ZN5boost10test_tools9tt_detail12print_helperINS1_14print_helper_tINSt7__cxx1112basic_stringIcSt11char_traitsIcESaIcEEEEEEENS3_IT_EERKSB_
FNDA:0,_ZN5boost10test_tools9tt_detail12print_helperINS1_14print_helper_tIiEEEENS3_IT_EERKS5_
FNDA:0,_ZN5boost10test_tools9tt_detail12print_helperINS1_14print_helper_tImEEEENS3_IT_EERKS5_
FNDA:0,_ZN5boost10test_tools9tt_detail12print_helperINS_9unit_test13basic_cstringIKcEEEENS1_14print_helper_tIT_EERKS8_
FNDA:29,_ZN5boost10test_tools9tt_detail12print_helperINSt7__cxx1112basic_stringIcSt11char_traitsIcESaIcEEEEENS1_14print_helper_tIT_EERKSA_
FNDA:0,_ZN5boost10test_tools9tt_detail12print_helperIcEENS1_14print_helper_tIT_EERKS4_
FNDA:5,_ZN5boost10test_tools9tt_detail12print_helperIiEENS1_14print_helper_tIT_EERKS4_
FNDA:0,_ZN5boost10test_tools9tt_detail12print_helperIjEENS1_14print_helper_tIT_EERKS4_
FNDA:1,_ZN5boost10test_tools9tt_detail12print_helperImEENS1_14print_helper_tIT_EERKS4_
FNDA:0,_ZN5boost10test_tools9tt_detaillsIA11_cEERSoS4_RKNS1_14print_helper_tIT_EE
FNDA:0,_ZN5boost10test_tools9tt_detaillsIA16_cEERSoS4_RKNS1_14print_helper_tIT_EE
FNDA:0,_ZN5boost10test_tools9tt_detaillsIA1_cEERSoS4_RKNS1_14print_helper_tIT_EE
FNDA:0,_ZN5boost10test_tools9tt_detaillsIA25_cEERSoS4_RKNS1_14print_helper_tIT_EE
FNDA:0,_ZN5boost10test_tools9tt_detaillsIA26_cEERSoS4_RKNS1_14print_helper_tIT_EE
FNDA:0,_ZN5boost10test_tools9tt_detaillsIA2_cEERSoS4_RKNS1_14print_helper_tIT_EE
FNDA:0,_ZN5boost10test_tools9tt_detaillsIA30_cEERSoS4_RKNS1_14print_helper_tIT_EE
FNDA:0,_ZN5boost10test_tools9tt_detaillsIA34_cEERSoS4_RKNS1_14print_helper_tIT_EE
FNDA:0,_ZN5boost10test_tools9tt_detaillsIA38_cEERSoS4_RKNS1_14print_helper_tIT_EE
FNDA:0,_ZN5boost10test_tools9tt_detaillsIA42_cEERSoS4_RKNS1_14print_helper_tIT_EE
FNDA:0,_ZN5boost10test_tools9tt_detaillsIA45_cEERSoS4_RKNS1_14print_helper_tIT_EE
FNDA:0,_ZN5boost10test_tools9tt_detaillsIA4_cEERSoS4_RKNS1_14print_helper_tIT_EE
FNDA:0,_ZN5boost10test_tools9tt_detaillsIA6_cEERSoS4_RKNS1_14print_helper_tIT_EE
FNDA:0,_ZN5boost10test_tools9tt_detaillsIA7_cEERSoS4_RKNS1_14print_helper_tIT_EE
FNDA:0,_ZN5boost10test_tools9tt_detaillsIA8_cEERSoS4_RKNS1_14print_helper_tIT_EE
FNDA:0,_ZN5boost10test_tools9tt_detaillsINS1_14print_helper_tIA1_cEEEERSoS6_RKNS3_IT_EE
FNDA:0,_ZN5boost10test_tools9tt_detaillsINS1_14print_helper_tIA2_cEEEERSoS6_RKNS3_IT_EE
FNDA:0,_ZN5boost10test_tools9tt_detaillsINS1_14print_helper_tIA4_cEEEERSoS6_RKNS3_IT_EE
FNDA:0,_ZN5boost10test_tools9tt_detaillsINS1_14print_helper_tIA6_cEEEERSoS6_RKNS3_IT_EE
FNDA:0,_ZN5boost10test_tools9tt_detaillsINS1_14print_helper_tIA7_cEEEERSoS6_RKNS3_IT_EE
FNDA:0,_ZN5boost10test_tools9tt_detaillsINS1_14print_helper_tINSt7__cxx1112basic_stringIcSt11char_traitsIcESaIcEEEEEEERSoSB_RKNS3_IT_EE
FNDA:0,_ZN5boost10test_tools9tt_detaillsINS1_14print_helper_tIiEEEERSoS5_RKNS3_IT_EE
FNDA:0,_ZN5boost10test_tools9tt_detaillsINS1_14print_helper_tImEEEERSoS5_RKNS3_IT_EE
FNDA:0,_ZN5boost10test_tools9tt_detaillsINS_9unit_test13basic_cstringIKcEEEERSoS7_RKNS1_14print_helper_tIT_EE
FNDA:0,_ZN5boost10test_tools9tt_detaillsINSt7__cxx1112basic_stringIcSt11char_traitsIcESaIcEEEEERSoS9_RKNS1_14print_helper_tIT_EE
FNDA:0,_ZN5boost10test_tools9tt_detaillsIcEERSoS3_RKNS1_14print_helper_tIT_EE
FNDA:0,_ZN5boost10test_tools9tt_detaillsIiEERSoS3_RKNS1_14print_helper_tIT_EE
FNDA:0,_ZN5boost10test_tools9tt_detaillsIjEERSoS3_RKNS1_14print_helper_tIT_EE
FNDA:0,_ZN5boost10test_tools9tt_detaillsImEERSoS3_RKNS1_14print_helper_tIT_EE
FNDA:0,_ZN5boost10test_tools9tt_detail4impl21boost_test_print_typeIA11_cEERSoS5_RKT_
FNDA:0,_ZN5boost10test_tools9tt_detail4impl21boost_test_print_typeIA16_cEERSoS5_RKT_
FNDA:0,_ZN5boost10test_tools9tt_detail4impl21boost_test_print_typeIA1_cEERSoS5_RKT_
FNDA:0,_ZN5boost10test_tools9tt_detail4impl21boost_test_print_typeIA25_cEERSoS5_RKT_
FNDA:0,_ZN5boost10test_tools9tt_detail4impl21boost_test_print_typeIA26_cEERSoS5_RKT_
FNDA:0,_ZN5boost10test_tools9tt_detail4impl21boost_test_print_typeIA2_cEERSoS5_RKT_
FNDA:0,_ZN5boost10test_tools9tt_detail4impl21boost_test_print_typeIA30_cEERSoS5_RKT_
FNDA:0,_ZN5boost10test_tools9tt_detail4impl21boost_test_print_typeIA34_cEERSoS5_RKT_
FNDA:0,_ZN5boost10test_tools9tt_detail4impl21boost_test_print_typeIA38_cEERSoS5_RKT_
FNDA:0,_ZN5boost10test_tools9tt_detail4impl21boost_test_print_typeIA42_cEERSoS5_RKT_
FNDA:0,_ZN5boost10test_tools9tt_detail4impl21boost_test_print_typeIA45_cEERSoS5_RKT_
FNDA:0,_ZN5boost10test_tools9tt_detail4impl21boost_test_print_typeIA4_cEERSoS5_RKT_
FNDA:0,_ZN5boost10test_tools9tt_detail4impl21boost_test_print_typeIA6_cEERSoS5_RKT_
FNDA:0,_ZN5boost10test_tools9tt_detail4impl21boost_test_print_typeIA7_cEERSoS5_RKT_
FNDA:0,_ZN5boost10test_tools9tt_detail4impl21boost_test_print_typeIA8_cEERSoS5_RKT_
FNDA:0,_ZN5boost10test_tools9tt_detail4impl21boost_test_print_typeINS1_14print_helper_tIA1_cEEEERSoS7_RKT_
FNDA:0,_ZN5boost10test_tools9tt_detail4impl21boost_test_print_typeINS1_14print_helper_tIA2_cEEEERSoS7_RKT_
FNDA:0,_ZN5boost10test_tools9tt_detail4impl21boost_test_print_typeINS1_14print_helper_tIA4_cEEEERSoS7_RKT_
FNDA:0,_ZN5boost10test_tools9tt_detail4impl21boost_test_print_typeINS1_14print_helper_tIA6_cEEEERSoS7_RKT_
FNDA:0,_ZN5boost10test_tools9tt_detail4impl21boost_test_print_typeINS1_14print_helper_tIA7_cEEEERSoS7_RKT_
FNDA:0,_ZN5boost10test_tools9tt_detail4impl21boost_test_print_typeINS1_14print_helper_tINSt7__cxx1112basic_stringIcSt11char_traitsIcESaIcEEEEEEERSoSC_RKT_
FNDA:0,_ZN5boost10test_tools9tt_detail4impl21boost_test_print_typeINS1_14print_helper_tIiEEEERSoS6_RKT_
FNDA:0,_ZN5boost10test_tools9tt_detail4impl21boost_test_print_typeINS1_14print_helper_tImEEEERSoS6_RKT_
FNDA:0,_ZN5boost10test_tools9tt_detail4impl21boost_test_print_typeINS_9unit_test13basic_cstringIKcEEEERSoS8_RKT_
FNDA:0,_ZN5boost10test_tools9tt_detail4impl21boost_test_print_typeINSt7__cxx1112basic_stringIcSt11char_traitsIcESaIcEEEEERSoSA_RKT_
FNDA:0,_ZN5boost10test_tools9tt_detail4impl21boost_test_print_typeIiEERSoS4_RKT_
FNDA:0,_ZN5boost10test_tools9tt_detail4impl21boost_test_print_typeIjEERSoS4_RKT_
FNDA:0,_ZN5boost10test_tools9tt_detail4impl21boost_test_print_typeImEERSoS4_RKT_
FNDA:0,_ZNK5boost10test_tools9tt_detail4impl26boost_test_print_type_implclIA11_cEERSoS6_RKT_
FNDA:0,_ZNK5boost10test_tools9tt_detail4impl26boost_test_print_type_implclIA16_cEERSoS6_RKT_
FNDA:0,_ZNK5boost10test_tools9tt_detail4impl26boost_test_print_type_implclIA1_cEERSoS6_RKT_
FNDA:0,_ZNK5boost10test_tools9tt_detail4impl26boost_test_print_type_implclIA25_cEERSoS6_RKT_
FNDA:0,_ZNK5boost10test_tools9tt_detail4impl26boost_test_print_type_implclIA26_cEERSoS6_RKT_
FNDA:0,_ZNK5boost10test_tools9tt_detail4impl26boost_test_print_type_implclIA2_cEERSoS6_RKT_
FNDA:0,_ZNK5boost10test_tools9tt_detail4impl26boost_test_print_type_implclIA30_cEERSoS6_RKT_
FNDA:0,_ZNK5boost10test_tools9tt_detail4impl26boost_test_print_type_implclIA34_cEERSoS6_RKT_
FNDA:0,_ZNK5boost10test_tools9tt_detail4impl26boost_test_print_type_implclIA38_cEERSoS6_RKT_
FNDA:0,_ZNK5boost10test_tools9tt_detail4impl26boost_test_print_type_implclIA42_cEERSoS6_RKT_
FNDA:0,_ZNK5boost10test_tools9tt_detail4impl26boost_test_print_type_implclIA45_cEERSoS6_RKT_
FNDA:0,_ZNK5boost10test_tools9tt_detail4impl26boost_test_print_type_implclIA4_cEERSoS6_RKT_
FNDA:0,_ZNK5boost10test_tools9tt_detail4impl26boost_test_print_type_implclIA6_cEERSoS6_RKT_
FNDA:0,_ZNK5boost10test_tools9tt_detail4impl26boost_test_print_type_implclIA7_cEERSoS6_RKT_
FNDA:0,_ZNK5boost10test_tools9tt_detail4impl26boost_test_print_type_implclIA8_cEERSoS6_RKT_
FNDA:0,_ZNK5boost10test_tools9tt_detail4impl26boost_test_print_type_implclINS1_14print_helper_tIA1_cEEEERSoS8_RKT_
FNDA:0,_ZNK5boost10test_tools9tt_detail4impl26boost_test_print_type_implclINS1_14print_helper_tIA2_cEEEERSoS8_RKT_
FNDA:0,_ZNK5boost10test_tools9tt_detail4impl26boost_test_print_type_implclINS1_14print_helper_tIA4_cEEEERSoS8_RKT_
FNDA:0,_ZNK5boost10test_tools9tt_detail4impl26boost_test_print_type_implclINS1_14print_helper_tIA6_cEEEERSoS8_RKT_
FNDA:0,_ZNK5boost10test_tools9tt_detail4impl26boost_test_print_type_implclINS1_14print_helper_tIA7_cEEEERSoS8_RKT_
FNDA:0,_ZNK5boost10test_tools9tt_detail4impl26boost_test_print_type_implclINS1_14print_helper_tINSt7__cxx1112basic_stringIcSt11char_traitsIcESaIcEEEEEEERSoSD_RKT_
FNDA:0,_ZNK5boost10test_tools9tt_detail4impl26boost_test_print_type_implclINS1_14print_helper_tIiEEEERSoS7_RKT_
FNDA:0,_ZNK5boost10test_tools9tt_detail4impl26boost_test_print_type_implclINS1_14print_helper_tImEEEERSoS7_RKT_
FNDA:0,_ZNK5boost10test_tools9tt_detail4impl26boost_test_print_type_implclINS_9unit_test13basic_cstringIKcEEEERSoS9_RKT_
FNDA:0,_ZNK5boost10test_tools9tt_detail4impl26boost_test_print_type_implclINSt7__cxx1112basic_stringIcSt11char_traitsIcESaIcEEEEERSoSB_RKT_
FNDA:0,_ZNK5boost10test_tools9tt_detail4impl26boost_test_print_type_implclIiEERSoS5_RKT_
FNDA:0,_ZNK5boost10test_tools9tt_detail4impl26boost_test_print_type_implclIjEERSoS5_RKT_
FNDA:0,_ZNK5boost10test_tools9tt_detail4impl26boost_test_print_type_implclImEERSoS5_RKT_
FNDA:0,_ZN5boost10test_tools9tt_detail15print_log_valueIA11_cEclERSoRA11_Kc
FNDA:0,_ZN5boost10test_tools9tt_detail15print_log_valueIA16_cEclERSoRA16_Kc
FNDA:0,_ZN5boost10test_tools9tt_detail15print_log_valueIA1_cEclERSoRA1_Kc
FNDA:0,_ZN5boost10test_tools9tt_detail15print_log_valueIA25_cEclERSoRA25_Kc
FNDA:0,_ZN5boost10test_tools9tt_detail15print_log_valueIA26_cEclERSoRA26_Kc
FNDA:0,_ZN5boost10test_tools9tt_detail15print_log_valueIA2_cEclERSoRA2_Kc
FNDA:0,_ZN5boost10test_tools9tt_detail15print_log_valueIA30_cEclERSoRA30_Kc
FNDA:0,_ZN5boost10test_tools9tt_detail15print_log_valueIA34_cEclERSoRA34_Kc
FNDA:0,_ZN5boost10test_tools9tt_detail15print_log_valueIA38_cEclERSoRA38_Kc
FNDA:0,_ZN5boost10test_tools9tt_detail15print_log_valueIA42_cEclERSoRA42_Kc
FNDA:0,_ZN5boost10test_tools9tt_detail15print_log_valueIA45_cEclERSoRA45_Kc
FNDA:0,_ZN5boost10test_tools9tt_detail15print_log_valueIA4_cEclERSoRA4_Kc
FNDA:0,_ZN5boost10test_tools9tt_detail15print_log_valueIA6_cEclERSoRA6_Kc
FNDA:0,_ZN5boost10test_tools9tt_detail15print_log_valueIA7_cEclERSoRA7_Kc
FNDA:0,_ZN5boost10test_tools9tt_detail15print_log_valueIA8_cEclERSoRA8_Kc
FNDA:0,_ZN5boost10test_tools9tt_detail15print_log_valueINS1_14print_helper_tIA1_cEEEclERSoRKS5_
FNDA:0,_ZN5boost10test_tools9tt_detail15print_log_valueINS1_14print_helper_tIA2_cEEEclERSoRKS5_
FNDA:0,_ZN5boost10test_tools9tt_detail15print_log_valueINS1_14print_helper_tIA4_cEEEclERSoRKS5_
FNDA:0,_ZN5boost10test_tools9tt_detail15print_log_valueINS1_14print_helper_tIA6_cEEEclERSoRKS5_
FNDA:0,_ZN5boost10test_tools9tt_detail15print_log_valueINS1_14print_helper_tIA7_cEEEclERSoRKS5_
FNDA:0,_ZN5boost10test_tools9tt_detail15print_log_valueINS1_14print_helper_tINSt7__cxx1112basic_stringIcSt11char_traitsIcESaIcEEEEEEclERSoRKSA_
FNDA:0,_ZN5boost10test_tools9tt_detail15print_log_valueINS1_14print_helper_tIiEEEclERSoRKS4_
FNDA:0,_ZN5boost10test_tools9tt_detail15print_log_valueINS1_14print_helper_tImEEEclERSoRKS4_
FNDA:0,_ZN5boost10test_tools9tt_detail15print_log_valueINS_9unit_test13basic_cstringIKcEEEclERSoRKS6_
FNDA:0,_ZN5boost10test_tools9tt_detail15print_log_valueINSt7__cxx1112basic_stringIcSt11char_traitsIcESaIcEEEEclERSoRKS8_
FNDA:0,_ZN5boost10test_tools9tt_detail15print_log_valueIiEclERSoRKi
FNDA:0,_ZN5boost10test_tools9tt_detail15print_log_valueIjEclERSoRKj
FNDA:0,_ZN5boost10test_tools9tt_detail15print_log_valueImEclERSoRKm
FNDA:0,_ZN5boost10test_tools9tt_detail15print_log_valueINS1_14print_helper_tIA1_cEEE13set_precisionERSoN4mpl_5bool_ILb0EEE
FNDA:0,_ZN5boost10test_tools9tt_detail15print_log_valueINS1_14print_helper_tIA2_cEEE13set_precisionERSoN4mpl_5bool_ILb0EEE
FNDA:0,_ZN5boost10test_tools9tt_detail15print_log_valueINS1_14print_helper_tIA4_cEEE13set_precisionERSoN4mpl_5bool_ILb0EEE
FNDA:0,_ZN5boost10test_tools9tt_detail15print_log_valueINS1_14print_helper_tIA6_cEEE13set_precisionERSoN4mpl_5bool_ILb0EEE
FNDA:0,_ZN5boost10test_tools9tt_detail15print_log_valueINS1_14print_helper_tIA7_cEEE13set_precisionERSoN4mpl_5bool_ILb0EEE
FNDA:0,_ZN5boost10test_tools9tt_detail15print_log_valueINS1_14print_helper_tINSt7__cxx1112basic_stringIcSt11char_traitsIcESaIcEEEEEE13set_precisionERSoN4mpl_5bool_ILb0EEE
FNDA:0,_ZN5boost10test_tools9tt_detail15print_log_valueINS1_14print_helper_tIiEEE13set_precisionERSoN4mpl_5bool_ILb0EEE
FNDA:0,_ZN5boost10test_tools9tt_detail15print_log_valueINS1_14print_helper_tImEEE13set_precisionERSoN4mpl_5bool_ILb0EEE
FNDA:0,_ZN5boost10test_tools9tt_detail15print_log_valueINS_9unit_test13basic_cstringIKcEEE13set_precisionERSoN4mpl_5bool_ILb0EEE
FNDA:0,_ZN5boost10test_tools9tt_detail15print_log_valueINSt7__cxx1112basic_stringIcSt11char_traitsIcESaIcEEEE13set_precisionERSoN4mpl_5bool_ILb0EEE
FNDA:0,_ZN5boost10test_tools9tt_detail15print_log_valueIiE13set_precisionERSoN4mpl_5bool_ILb0EEE
FNDA:0,_ZN5boost10test_tools9tt_detail15print_log_valueIjE13set_precisionERSoN4mpl_5bool_ILb0EEE
FNDA:0,_ZN5boost10test_tools9tt_detail15print_log_valueImE13set_precisionERSoN4mpl_5bool_ILb0EEE
FNF:199
FNH:16
DA:52,0
DA:55,0
DA:56,0
DA:61,0
DA:62,0
DA:83,0
DA:87,0
DA:91,0
DA:93,0
DA:94,0
DA:95,0
DA:97,0
DA:100,0
DA:115,0
DA:118,0
DA:195,64
DA:216,64
DA:218,64
DA:225,0
DA:227,0
DA:229,0
LF:21
LH:3
end_of_record
TN:
SF:/usr/include/boost/test/tools/old/impl.hpp
FN:105,108,_ZN5boost10test_tools9tt_detail10equal_implINSt7__cxx1112basic_stringIcSt11char_traitsIcESaIcEEEA1_cEENS0_16assertion_resultERKT_RKT0_
FN:105,108,_ZN5boost10test_tools9tt_detail10equal_implINSt7__cxx1112basic_stringIcSt11char_traitsIcESaIcEEEA2_cEENS0_16assertion_resultERKT_RKT0_
FN:105,108,_ZN5boost10test_tools9tt_detail10equal_implINSt7__cxx1112basic_stringIcSt11char_traitsIcESaIcEEEA4_cEENS0_16assertion_resultERKT_RKT0_
FN:105,108,_ZN5boost10test_tools9tt_detail10equal_implINSt7__cxx1112basic_stringIcSt11char_traitsIcESaIcEEEA6_cEENS0_16assertion_resultERKT_RKT0_
FN:105,108,_ZN5boost10test_tools9tt_detail10equal_implINSt7__cxx1112basic_stringIcSt11char_traitsIcESaIcEEEA7_cEENS0_16assertion_resultERKT_RKT0_
FN:105,108,_ZN5boost10test_tools9tt_detail10equal_implIiiEENS0_16assertion_resultERKT_RKT0_
FN:105,108,_ZN5boost10test_tools9tt_detail10equal_implImiEENS0_16assertion_resultERKT_RKT0_
FN:128,131,_ZNK5boost10test_tools9tt_detail15equal_impl_frwd9call_implINSt7__cxx1112basic_stringIcSt11char_traitsIcESaIcEEEA1_cEENS0_16assertion_resultERKT_RKT0_N4mpl_5bool_ILb0EEE
FN:128,131,_ZNK5boost10test_tools9tt_detail15equal_impl_frwd9call_implINSt7__cxx1112basic_stringIcSt11char_traitsIcESaIcEEEA2_cEENS0_16assertion_resultERKT_RKT0_N4mpl_5bool_ILb0EEE
FN:128,131,_ZNK5boost10test_tools9tt_detail15equal_impl_frwd9call_implINSt7__cxx1112basic_stringIcSt11char_traitsIcESaIcEEEA4_cEENS0_16assertion_resultERKT_RKT0_N4mpl_5bool_ILb0EEE
FN:128,131,_ZNK5boost10test_tools9tt_detail15equal_impl_frwd9call_implINSt7__cxx1112basic_stringIcSt11char_traitsIcESaIcEEEA6_cEENS0_16assertion_resultERKT_RKT0_N4mpl_5bool_ILb0EEE
FN:128,131,_ZNK5boost10test_tools9tt_detail15equal_impl_frwd9call_implINSt7__cxx1112basic_stringIcSt11char_traitsIcESaIcEEEA7_cEENS0_16assertion_resultERKT_RKT0_N4mpl_5bool_ILb0EEE
FN:128,131,_ZNK5boost10test_tools9tt_detail15equal_impl_frwd9call_implIiiEENS0_16assertion_resultERKT_RKT0_N4mpl_5bool_ILb0EEE
FN:128,131,_ZNK5boost10test_tools9tt_detail15equal_impl_frwd9call_implImiEENS0_16assertion_resultERKT_RKT0_N4mpl_5bool_ILb0EEE
FN:142,146,_ZNK5boost10test_tools9tt_detail15equal_impl_frwdclINSt7__cxx1112basic_stringIcSt11char_traitsIcESaIcEEEA1_cEENS0_16assertion_resultERKT_RKT0_
FN:142,146,_ZNK5boost10test_tools9tt_detail15equal_impl_frwdclINSt7__cxx1112basic_stringIcSt11char_traitsIcESaIcEEEA2_cEENS0_16assertion_resultERKT_RKT0_
FN:142,146,_ZNK5boost10test_tools9tt_detail15equal_impl_frwdclINSt7__cxx1112basic_stringIcSt11char_traitsIcESaIcEEEA4_cEENS0_16assertion_resultERKT_RKT0_
FN:142,146,_ZNK5boost10test_tools9tt_detail15equal_impl_frwdclINSt7__cxx1112basic_stringIcSt11char_traitsIcESaIcEEEA6_cEENS0_16assertion_resultERKT_RKT0_
FN:142,146,_ZNK5boost10test_tools9tt_detail15equal_impl_frwdclINSt7__cxx1112basic_stringIcSt11char_traitsIcESaIcEEEA7_cEENS0_16assertion_resultERKT_RKT0_
FN:142,146,_ZNK5boost10test_tools9tt_detail15equal_impl_frwdclIiiEENS0_16assertion_resultERKT_RKT0_
FN:142,146,_ZNK5boost10test_tools9tt_detail15equal_impl_frwdclImiEENS0_16assertion_resultERKT_RKT0_
FN:92,92,_ZN5boost10test_tools9tt_detail10check_frwdINS1_15equal_impl_frwdENSt7__cxx1112basic_stringIcSt11char_traitsIcESaIcEEEA1_cEEbT_RKNS_9unit_test12lazy_ostreamENSC_13basic_cstringIKcEEmNS1_10tool_levelENS1_10check_typeERKT0_PSH_RKT1_SO_
FN:92,92,_ZN5boost10test_tools9tt_detail10check_frwdINS1_15equal_impl_frwdENSt7__cxx1112basic_stringIcSt11char_traitsIcESaIcEEEA2_cEEbT_RKNS_9unit_test12lazy_ostreamENSC_13basic_cstringIKcEEmNS1_10tool_levelENS1_10check_typeERKT0_PSH_RKT1_SO_
FN:92,92,_ZN5boost10test_tools9tt_detail10check_frwdINS1_15equal_impl_frwdENSt7__cxx1112basic_stringIcSt11char_traitsIcESaIcEEEA4_cEEbT_RKNS_9unit_test12lazy_ostreamENSC_13basic_cstringIKcEEmNS1_10tool_levelENS1_10check_typeERKT0_PSH_RKT1_SO_
FN:92,92,_ZN5boost10test_tools9tt_detail10check_frwdINS1_15equal_impl_frwdENSt7__cxx1112basic_stringIcSt11char_traitsIcESaIcEEEA6_cEEbT_RKNS_9unit_test12lazy_ostreamENSC_13basic_cstringIKcEEmNS1_10tool_levelENS1_10check_typeERKT0_PSH_RKT1_SO_
FN:92,92,_ZN5boost10test_tools9tt_detail10check_frwdINS1_15equal_impl_frwdENSt7__cxx1112basic_stringIcSt11char_traitsIcESaIcEEEA7_cEEbT_RKNS_9unit_test12lazy_ostreamENSC_13basic_cstringIKcEEmNS1_10tool_levelENS1_10check_typeERKT0_PSH_RKT1_SO_
FN:92,92,_ZN5boost10test_tools9tt_detail10check_frwdINS1_15equal_impl_frwdEiiEEbT_RKNS_9unit_test12lazy_ostreamENS5_13basic_cstringIKcEEmNS1_10tool_levelENS1_10check_typeERKT0_PSA_RKT1_SH_
FN:92,92,_ZN5boost10test_tools9tt_detail10check_frwdINS1_15equal_impl_frwdEmiEEbT_RKNS_9unit_test12lazy_ostreamENS5_13basic_cstringIKcEEmNS1_10tool_levelENS1_10check_typeERKT0_PSA_RKT1_SH_
FNDA:3,_ZN5boost10test_tools9tt_detail10equal_implINSt7__cxx1112basic_stringIcSt11char_traitsIcESaIcEEEA1_cEENS0_16assertion_resultERKT_RKT0_
FNDA:12,_ZN5boost10test_tools9tt_detail10equal_implINSt7__cxx1112basic_stringIcSt11char_traitsIcESaIcEEEA2_cEENS0_16assertion_resultERKT_RKT0_
FNDA:2,_ZN5boost10test_tools9tt_detail10equal_implINSt7__cxx1112basic_stringIcSt11char_traitsIcESaIcEEEA4_cEENS0_16assertion_resultERKT_RKT0_
FNDA:7,_ZN5boost10test_tools9tt_detail10equal_implINSt7__cxx1112basic_stringIcSt11char_traitsIcESaIcEEEA6_cEENS0_16assertion_resultERKT_RKT0_
FNDA:5,_ZN5boost10test_tools9tt_detail10equal_implINSt7__cxx1112basic_stringIcSt11char_traitsIcESaIcEEEA7_cEENS0_16assertion_resultERKT_RKT0_
FNDA:2,_ZN5boost10test_tools9tt_detail10equal_implIiiEENS0_16assertion_resultERKT_RKT0_
FNDA:1,_ZN5boost10test_tools9tt_detail10equal_implImiEENS0_16assertion_resultERKT_RKT0_
FNDA:3,_ZNK5boost10test_tools9tt_detail15equal_impl_frwd9call_implINSt7__cxx1112basic_stringIcSt11char_traitsIcESaIcEEEA1_cEENS0_16assertion_resultERKT_RKT0_N4mpl_5bool_ILb0EEE
FNDA:12,_ZNK5boost10test_tools9tt_detail15equal_impl_frwd9call_implINSt7__cxx1112basic_stringIcSt11char_traitsIcESaIcEEEA2_cEENS0_16assertion_resultERKT_RKT0_N4mpl_5bool_ILb0EEE
FNDA:2,_ZNK5boost10test_tools9tt_detail15equal_impl_frwd9call_implINSt7__cxx1112basic_stringIcSt11char_traitsIcESaIcEEEA4_cEENS0_16assertion_resultERKT_RKT0_N4mpl_5bool_ILb0EEE
FNDA:7,_ZNK5boost10test_tools9tt_detail15equal_impl_frwd9call_implINSt7__cxx1112basic_stringIcSt11char_traitsIcESaIcEEEA6_cEENS0_16assertion_resultERKT_RKT0_N4mpl_5bool_ILb0EEE
FNDA:5,_ZNK5boost10test_tools9tt_detail15equal_impl_frwd9call_implINSt7__cxx1112basic_stringIcSt11char_traitsIcESaIcEEEA7_cEENS0_16assertion_resultERKT_RKT0_N4mpl_5bool_ILb0EEE
FNDA:2,_ZNK5boost10test_tools9tt_detail15equal_impl_frwd9call_implIiiEENS0_16assertion_resultERKT_RKT0_N4mpl_5bool_ILb0EEE
FNDA:1,_ZNK5boost10test_tools9tt_detail15equal_impl_frwd9call_implImiEENS0_16assertion_resultERKT_RKT0_N4mpl_5bool_ILb0EEE
FNDA:3,_ZNK5boost10test_tools9tt_detail15equal_impl_frwdclINSt7__cxx1112basic_stringIcSt11char_traitsIcESaIcEEEA1_cEENS0_16assertion_resultERKT_RKT0_
FNDA:12,_ZNK5boost10test_tools9tt_detail15equal_impl_frwdclINSt7__cxx1112basic_stringIcSt11char_traitsIcESaIcEEEA2_cEENS0_16assertion_resultERKT_RKT0_
FNDA:2,_ZNK5boost10test_tools9tt_detail15equal_impl_frwdclINSt7__cxx1112basic_stringIcSt11char_traitsIcESaIcEEEA4_cEENS0_16assertion_resultERKT_RKT0_
FNDA:7,_ZNK5boost10test_tools9tt_detail15equal_impl_frwdclINSt7__cxx1112basic_stringIcSt11char_traitsIcESaIcEEEA6_cEENS0_16assertion_resultERKT_RKT0_
FNDA:5,_ZNK5boost10test_tools9tt_detail15equal_impl_frwdclINSt7__cxx1112basic_stringIcSt11char_traitsIcESaIcEEEA7_cEENS0_16assertion_resultERKT_RKT0_
FNDA:2,_ZNK5boost10test_tools9tt_detail15equal_impl_frwdclIiiEENS0_16assertion_resultERKT_RKT0_
FNDA:1,_ZNK5boost10test_tools9tt_detail15equal_impl_frwdclImiEENS0_16assertion_resultERKT_RKT0_
FNDA:3,_ZN5boost10test_tools9tt_detail10check_frwdINS1_15equal_impl_frwdENSt7__cxx1112basic_stringIcSt11char_traitsIcESaIcEEEA1_cEEbT_RKNS_9unit_test12lazy_ostreamENSC_13basic_cstringIKcEEmNS1_10tool_levelENS1_10check_typeERKT0_PSH_RKT1_SO_
FNDA:12,_ZN5boost10test_tools9tt_detail10check_frwdINS1_15equal_impl_frwdENSt7__cxx1112basic_stringIcSt11char_traitsIcESaIcEEEA2_cEEbT_RKNS_9unit_test12lazy_ostreamENSC_13basic_cstringIKcEEmNS1_10tool_levelENS1_10check_typeERKT0_PSH_RKT1_SO_
FNDA:2,_ZN5boost10test_tools9tt_detail10check_frwdINS1_15equal_impl_frwdENSt7__cxx1112basic_stringIcSt11char_traitsIcESaIcEEEA4_cEEbT_RKNS_9unit_test12lazy_ostreamENSC_13basic_cstringIKcEEmNS1_10tool_levelENS1_10check_typeERKT0_PSH_RKT1_SO_
FNDA:7,_ZN5boost10test_tools9tt_detail10check_frwdINS1_15equal_impl_frwdENSt7__cxx1112basic_stringIcSt11char_traitsIcESaIcEEEA6_cEEbT_RKNS_9unit_test12lazy_ostreamENSC_13basic_cstringIKcEEmNS1_10tool_levelENS1_10check_typeERKT0_PSH_RKT1_SO_
FNDA:5,_ZN5boost10test_tools9tt_detail10check_frwdINS1_15equal_impl_frwdENSt7__cxx1112basic_stringIcSt11char_traitsIcESaIcEEEA7_cEEbT_RKNS_9unit_test12lazy_ostreamENSC_13basic_cstringIKcEEmNS1_10tool_levelENS1_10check_typeERKT0_PSH_RKT1_SO_
FNDA:2,_ZN5boost10test_tools9tt_detail10check_frwdINS1_15equal_impl_frwdEiiEEbT_RKNS_9unit_test12lazy_ostreamENS5_13basic_cstringIKcEEmNS1_10tool_levelENS1_10check_typeERKT0_PSA_RKT1_SH_
FNDA:1,_ZN5boost10test_tools9tt_detail10check_frwdINS1_15equal_impl_frwdEmiEEbT_RKNS_9unit_test12lazy_ostreamENS5_13basic_cstringIKcEEmNS1_10tool_levelENS1_10check_typeERKT0_PSA_RKT1_SH_
FNF:28
FNH:28
DA:92,32
DA:105,32
DA:107,32
DA:128,32
DA:130,32
DA:142,32
DA:145,32
LF:7
LH:7
end_of_record
TN:
SF:/usr/include/boost/test/tools/output_test_stream.hpp
FNF:0
FNH:0
LF:0
LH:0
end_of_record
TN:
SF:/usr/include/boost/test/tree/decorator.hpp
FN:111,111,_ZN5boost9unit_test9decorator15stack_decoratorC2Ev
FN:118,118,_ZNK5boost9unit_test9decorator15stack_decorator5cloneEv
FN:127,127,_ZN5boost9unit_test9decorator5labelC2ENS0_13basic_cstringIKcEE
FN:132,132,_ZNK5boost9unit_test9decorator5label5cloneEv
FN:144,144,_ZN5boost9unit_test9decorator17expected_failuresC2Em
FN:149,149,_ZNK5boost9unit_test9decorator17expected_failures5cloneEv
FN:161,161,_ZN5boost9unit_test9decorator7timeoutC2Ej
FN:166,166,_ZNK5boost9unit_test9decorator7timeout5cloneEv
FN:178,178,_ZN5boost9unit_test9decorator11descriptionC2ENS0_13basic_cstringIKcEE
FN:183,183,_ZNK5boost9unit_test9decorator11description5cloneEv
FN:195,195,_ZN5boost9unit_test9decorator10depends_onC2ENS0_13basic_cstringIKcEE
FN:200,200,_ZNK5boost9unit_test9decorator10depends_on5cloneEv
FN:233,233,_ZN5boost9unit_test9decorator9fixture_tC2ENS_10shared_ptrINS0_17test_unit_fixtureEEE
FN:238,238,_ZNK5boost9unit_test9decorator9fixture_t5cloneEv
FN:280,280,_ZN5boost9unit_test9decorator12preconditionC2ENS_8functionIFNS_10test_tools16assertion_resultEmEEE
FN:285,285,_ZNK5boost9unit_test9decorator12precondition5cloneEv
FN:67,67,_ZN5boost9unit_test9decorator11collector_tD2Ev
FN:71,71,_ZN5boost9unit_test9decorator11collector_tC2Ev
FN:94,94,_ZN5boost9unit_test9decorator4baseD0Ev
FN:94,94,_ZN5boost9unit_test9decorator4baseD2Ev
FNDA:0,_ZN5boost9unit_test9decorator15stack_decoratorC2Ev
FNDA:0,_ZNK5boost9unit_test9decorator15stack_decorator5cloneEv
FNDA:0,_ZN5boost9unit_test9decorator5labelC2ENS0_13basic_cstringIKcEE
FNDA:0,_ZNK5boost9unit_test9decorator5label5cloneEv
FNDA:0,_ZN5boost9unit_test9decorator17expected_failuresC2Em
FNDA:0,_ZNK5boost9unit_test9decorator17expected_failures5cloneEv
FNDA:0,_ZN5boost9unit_test9decorator7timeoutC2Ej
FNDA:0,_ZNK5boost9unit_test9decorator7timeout5cloneEv
FNDA:0,_ZN5boost9unit_test9decorator11descriptionC2ENS0_13basic_cstringIKcEE
FNDA:0,_ZNK5boost9unit_test9decorator11description5cloneEv
FNDA:0,_ZN5boost9unit_test9decorator10depends_onC2ENS0_13basic_cstringIKcEE
FNDA:0,_ZNK5boost9unit_test9decorator10depends_on5cloneEv
FNDA:0,_ZN5boost9unit_test9decorator9fixture_tC2ENS_10shared_ptrINS0_17test_unit_fixtureEEE
FNDA:0,_ZNK5boost9unit_test9decorator9fixture_t5cloneEv
FNDA:0,_ZN5boost9unit_test9decorator12preconditionC2ENS_8functionIFNS_10test_tools16assertion_resultEmEEE
FNDA:0,_ZNK5boost9unit_test9decorator12precondition5cloneEv
FNDA:1,_ZN5boost9unit_test9decorator11collector_tD2Ev
FNDA:1,_ZN5boost9unit_test9decorator11collector_tC2Ev
FNDA:0,_ZN5boost9unit_test9decorator4baseD0Ev
FNDA:0,_ZN5boost9unit_test9decorator4baseD2Ev
FNF:20
FNH:2
DA:67,1
DA:71,3
DA:94,0
DA:111,0
DA:118,0
DA:127,0
DA:132,0
DA:144,0
DA:149,0
DA:161,0
DA:166,0
DA:178,0
DA:183,0
DA:195,0
DA:200,0
DA:233,0
DA:238,0
DA:280,0
DA:285,0
LF:19
LH:2
end_of_record
TN:
SF:/usr/include/boost/test/tree/fixture.hpp
FN:104,104,_ZN5boost9unit_test12impl_fixture13call_teardownILb0EEclI11ATestDeleteEEvRT_
FN:104,104,_ZN5boost9unit_test12impl_fixture13call_teardownILb0EEclI11FLTestClearEEvRT_
FN:104,104,_ZN5boost9unit_test12impl_fixture13call_teardownILb0EEclI12QTestIsEmptyEEvRT_
FN:104,104,_ZN5boost9unit_test12impl_fixture13call_teardownILb0EEclI12QTestPushPopEEvRT_
FN:104,104,_ZN5boost9unit_test12impl_fixture13call_teardownILb0EEclI13OHTTestRemoveEEvRT_
FN:104,104,_ZN5boost9unit_test12impl_fixture13call_teardownILb0EEclI13QTestSaveLoadEEvRT_
FN:104,104,_ZN5boost9unit_test12impl_fixture13call_teardownILb0EEclI13StackSaveLoadEEvRT_
FN:104,104,_ZN5boost9unit_test12impl_fixture13call_teardownILb0EEclI13TestPrintTreeEEvRT_
FN:104,104,_ZN5boost9unit_test12impl_fixture13call_teardownILb0EEclI14DLTestSaveLoadEEvRT_
FN:104,104,_ZN5boost9unit_test12impl_fixture13call_teardownILb0EEclI14FLTestAddAfterEEvRT_
FN:104,104,_ZN5boost9unit_test12impl_fixture13call_teardownILb0EEclI14TestPrintArrayEEvRT_
FN:104,104,_ZN5boost9unit_test12impl_fixture13call_teardownILb0EEclI14TestPrintQueueEEvRT_
FN:104,104,_ZN5boost9unit_test12impl_fixture13call_teardownILb0EEclI14TestPrintStackEEvRT_
FN:104,104,_ZN5boost9unit_test12impl_fixture13call_teardownILb0EEclI15OHTTestContainsEEvRT_
FN:104,104,_ZN5boost9unit_test12impl_fixture13call_teardownILb0EEclI16ATestSaveAndLoadEEvRT_
FN:104,104,_ZN5boost9unit_test12impl_fixture13call_teardownILb0EEclI16FLTestPrintEmptyEEvRT_
FN:104,104,_ZN5boost9unit_test12impl_fixture13call_teardownILb0EEclI17DLTestAndHeadTailEEvRT_
FN:104,104,_ZN5boost9unit_test12impl_fixture13call_teardownILb0EEclI17FLTestSaveAndLoadEEvRT_
FN:104,104,_ZN5boost9unit_test12impl_fixture13call_teardownILb0EEclI17OHTTestPrintTableEEvRT_
FN:104,104,_ZN5boost9unit_test12impl_fixture13call_teardownILb0EEclI18FLTestPrintByValueEEvRT_
FN:104,104,_ZN5boost9unit_test12impl_fixture13call_teardownILb0EEclI18FLTestPrintReverseEEvRT_
FN:104,104,_ZN5boost9unit_test12impl_fixture13call_teardownILb0EEclI18OHTTestGetNotFoundEEvRT_
FN:104,104,_ZN5boost9unit_test12impl_fixture13call_teardownILb0EEclI18OHTTestInsertBasicEEvRT_
FN:104,104,_ZN5boost9unit_test12impl_fixture13call_teardownILb0EEclI18TestPrintForwardDLEEvRT_
FN:104,104,_ZN5boost9unit_test12impl_fixture13call_teardownILb0EEclI18TreeTestIsCompleteEEvRT_
FN:104,104,_ZN5boost9unit_test12impl_fixture13call_teardownILb0EEclI19ATestPushBackAndGetEEvRT_
FN:104,104,_ZN5boost9unit_test12impl_fixture13call_teardownILb0EEclI19FLTestAddBeforeHeadEEvRT_
FN:104,104,_ZN5boost9unit_test12impl_fixture13call_teardownILb0EEclI19TestDeleteByValueDLEEvRT_
FN:104,104,_ZN5boost9unit_test12impl_fixture13call_teardownILb0EEclI19TestPrintBackwardDLEEvRT_
FN:104,104,_ZN5boost9unit_test12impl_fixture13call_teardownILb0EEclI19TestPrintEmptyArrayEEvRT_
FN:104,104,_ZN5boost9unit_test12impl_fixture13call_teardownILb0EEclI19TestPrintEmptyQueueEEvRT_
FN:104,104,_ZN5boost9unit_test12impl_fixture13call_teardownILb0EEclI19TestPrintEmptyStackEEvRT_
FN:104,104,_ZN5boost9unit_test12impl_fixture13call_teardownILb0EEclI19TreeTestSaveAndLoadEEvRT_
FN:104,104,_ZN5boost9unit_test12impl_fixture13call_teardownILb0EEclI20DLTestAddAfterBeforeEEvRT_
FN:104,104,_ZN5boost9unit_test12impl_fixture13call_teardownILb0EEclI20DLTestDeleteHeadTailEEvRT_
FN:104,104,_ZN5boost9unit_test12impl_fixture13call_teardownILb0EEclI20FLTestAddHeadAndTailEEvRT_
FN:104,104,_ZN5boost9unit_test12impl_fixture13call_teardownILb0EEclI20StackBasicOperationsEEvRT_
FN:104,104,_ZN5boost9unit_test12impl_fixture13call_teardownILb0EEclI21ATestInsertAndReplaceEEvRT_
FN:104,104,_ZN5boost9unit_test12impl_fixture13call_teardownILb0EEclI21FLTestAddBeforeMiddleEEvRT_
FN:104,104,_ZN5boost9unit_test12impl_fixture13call_teardownILb0EEclI21OHTTestInsertEmptyKeyEEvRT_
FN:104,104,_ZN5boost9unit_test12impl_fixture13call_teardownILb0EEclI21OHTTestRemoveNotFoundEEvRT_
FN:104,104,_ZN5boost9unit_test12impl_fixture13call_teardownILb0EEclI22FLTestDeleteOperationsEEvRT_
FN:104,104,_ZN5boost9unit_test12impl_fixture13call_teardownILb0EEclI22OHTTestHashDeterminismEEvRT_
FN:104,104,_ZN5boost9unit_test12impl_fixture13call_teardownILb0EEclI22OHTTestInsertDuplicateEEvRT_
FN:104,104,_ZN5boost9unit_test12impl_fixture13call_teardownILb0EEclI23FLTestAddAfterAndBeforeEEvRT_
FN:104,104,_ZN5boost9unit_test12impl_fixture13call_teardownILb0EEclI23OHTTestGetStopsOnUnusedEEvRT_
FN:104,104,_ZN5boost9unit_test12impl_fixture13call_teardownILb0EEclI23TestEmptyTreeOperationsEEvRT_
FN:104,104,_ZN5boost9unit_test12impl_fixture13call_teardownILb0EEclI23TreeTestInsertAndSearchEEvRT_
FN:104,104,_ZN5boost9unit_test12impl_fixture13call_teardownILb0EEclI28DLTestDeleteAfterBeforeValueEEvRT_
FN:104,104,_ZN5boost9unit_test12impl_fixture13call_teardownILb0EEclI28OHTTestContainsStopsOnUnusedEEvRT_
FN:104,104,_ZN5boost9unit_test12impl_fixture13call_teardownILb0EEclI29ChainHashTableBasicOperationsEEvRT_
FN:104,104,_ZN5boost9unit_test12impl_fixture13call_teardownILb0EEclI29OHTTestLinearProbingCollisionEEvRT_
FN:104,104,_ZN5boost9unit_test12impl_fixture13call_teardownILb0EEclI31ChainHashTableCollisionHandlingEEvRT_
FN:112,114,_ZN5boost9unit_test17setup_conditionalI11ATestDeleteEEvRT_
FN:112,114,_ZN5boost9unit_test17setup_conditionalI11FLTestClearEEvRT_
FN:112,114,_ZN5boost9unit_test17setup_conditionalI12QTestIsEmptyEEvRT_
FN:112,114,_ZN5boost9unit_test17setup_conditionalI12QTestPushPopEEvRT_
FN:112,114,_ZN5boost9unit_test17setup_conditionalI13OHTTestRemoveEEvRT_
FN:112,114,_ZN5boost9unit_test17setup_conditionalI13QTestSaveLoadEEvRT_
FN:112,114,_ZN5boost9unit_test17setup_conditionalI13StackSaveLoadEEvRT_
FN:112,114,_ZN5boost9unit_test17setup_conditionalI13TestPrintTreeEEvRT_
FN:112,114,_ZN5boost9unit_test17setup_conditionalI14DLTestSaveLoadEEvRT_
FN:112,114,_ZN5boost9unit_test17setup_conditionalI14FLTestAddAfterEEvRT_
FN:112,114,_ZN5boost9unit_test17setup_conditionalI14TestPrintArrayEEvRT_
FN:112,114,_ZN5boost9unit_test17setup_conditionalI14TestPrintQueueEEvRT_
FN:112,114,_ZN5boost9unit_test17setup_conditionalI14TestPrintStackEEvRT_
FN:112,114,_ZN5boost9unit_test17setup_conditionalI15OHTTestContainsEEvRT_
FN:112,114,_ZN5boost9unit_test17setup_conditionalI16ATestSaveAndLoadEEvRT_
FN:112,114,_ZN5boost9unit_test17setup_conditionalI16FLTestPrintEmptyEEvRT_
FN:112,114,_ZN5boost9unit_test17setup_conditionalI17DLTestAndHeadTailEEvRT_
FN:112,114,_ZN5boost9unit_test17setup_conditionalI17FLTestSaveAndLoadEEvRT_
FN:112,114,_ZN5boost9unit_test17setup_conditionalI17OHTTestPrintTableEEvRT_
FN:112,114,_ZN5boost9unit_test17setup_conditionalI18FLTestPrintByValueEEvRT_
FN:112,114,_ZN5boost9unit_test17setup_conditionalI18FLTestPrintReverseEEvRT_
FN:112,114,_ZN5boost9unit_test17setup_conditionalI18OHTTestGetNotFoundEEvRT_
FN:112,114,_ZN5boost9unit_test17setup_conditionalI18OHTTestInsertBasicEEvRT_
FN:112,114,_ZN5boost9unit_test17setup_conditionalI18TestPrintForwardDLEEvRT_
FN:112,114,_ZN5boost9unit_test17setup_conditionalI18TreeTestIsCompleteEEvRT_
FN:112,114,_ZN5boost9unit_test17setup_conditionalI19ATestPushBackAndGetEEvRT_
FN:112,114,_ZN5boost9unit_test17setup_conditionalI19FLTestAddBeforeHeadEEvRT_
FN:112,114,_ZN5boost9unit_test17setup_conditionalI19TestDeleteByValueDLEEvRT_
FN:112,114,_ZN5boost9unit_test17setup_conditionalI19TestPrintBackwardDLEEvRT_
FN:112,114,_ZN5boost9unit_test17setup_conditionalI19TestPrintEmptyArrayEEvRT_
FN:112,114,_ZN5boost9unit_test17setup_conditionalI19TestPrintEmptyQueueEEvRT_
FN:112,114,_ZN5boost9unit_test17setup_conditionalI19TestPrintEmptyStackEEvRT_
FN:112,114,_ZN5boost9unit_test17setup_conditionalI19TreeTestSaveAndLoadEEvRT_
FN:112,114,_ZN5boost9unit_test17setup_conditionalI20DLTestAddAfterBeforeEEvRT_
FN:112,114,_ZN5boost9unit_test17setup_conditionalI20DLTestDeleteHeadTailEEvRT_
FN:112,114,_ZN5boost9unit_test17setup_conditionalI20FLTestAddHeadAndTailEEvRT_
FN:112,114,_ZN5boost9unit_test17setup_conditionalI20StackBasicOperationsEEvRT_
FN:112,114,_ZN5boost9unit_test17setup_conditionalI21ATestInsertAndReplaceEEvRT_
FN:112,114,_ZN5boost9unit_test17setup_conditionalI21FLTestAddBeforeMiddleEEvRT_
FN:112,114,_ZN5boost9unit_test17setup_conditionalI21OHTTestInsertEmptyKeyEEvRT_
FN:112,114,_ZN5boost9unit_test17setup_conditionalI21OHTTestRemoveNotFoundEEvRT_
FN:112,114,_ZN5boost9unit_test17setup_conditionalI22FLTestDeleteOperationsEEvRT_
FN:112,114,_ZN5boost9unit_test17setup_conditionalI22OHTTestHashDeterminismEEvRT_
FN:112,114,_ZN5boost9unit_test17setup_conditionalI22OHTTestInsertDuplicateEEvRT_
FN:112,114,_ZN5boost9unit_test17setup_conditionalI23FLTestAddAfterAndBeforeEEvRT_
FN:112,114,_ZN5boost9unit_test17setup_conditionalI23OHTTestGetStopsOnUnusedEEvRT_
FN:112,114,_ZN5boost9unit_test17setup_conditionalI23TestEmptyTreeOperationsEEvRT_
FN:112,114,_ZN5boost9unit_test17setup_conditionalI23TreeTestInsertAndSearchEEvRT_
FN:112,114,_ZN5boost9unit_test17setup_conditionalI28DLTestDeleteAfterBeforeValueEEvRT_
FN:112,114,_ZN5boost9unit_test17setup_conditionalI28OHTTestContainsStopsOnUnusedEEvRT_
FN:112,114,_ZN5boost9unit_test17setup_conditionalI29ChainHashTableBasicOperationsEEvRT_
FN:112,114,_ZN5boost9unit_test17setup_conditionalI29OHTTestLinearProbingCollisionEEvRT_
FN:112,114,_ZN5boost9unit_test17setup_conditionalI31ChainHashTableCollisionHandlingEEvRT_
FN:118,120,_ZN5boost9unit_test20teardown_conditionalI11ATestDeleteEEvRT_
FN:118,120,_ZN5boost9unit_test20teardown_conditionalI11FLTestClearEEvRT_
FN:118,120,_ZN5boost9unit_test20teardown_conditionalI12QTestIsEmptyEEvRT_
FN:118,120,_ZN5boost9unit_test20teardown_conditionalI12QTestPushPopEEvRT_
FN:118,120,_ZN5boost9unit_test20teardown_conditionalI13OHTTestRemoveEEvRT_
FN:118,120,_ZN5boost9unit_test20teardown_conditionalI13QTestSaveLoadEEvRT_
FN:118,120,_ZN5boost9unit_test20teardown_conditionalI13StackSaveLoadEEvRT_
FN:118,120,_ZN5boost9unit_test20teardown_conditionalI13TestPrintTreeEEvRT_
FN:118,120,_ZN5boost9unit_test20teardown_conditionalI14DLTestSaveLoadEEvRT_
FN:118,120,_ZN5boost9unit_test20teardown_conditionalI14FLTestAddAfterEEvRT_
FN:118,120,_ZN5boost9unit_test20teardown_conditionalI14TestPrintArrayEEvRT_
FN:118,120,_ZN5boost9unit_test20teardown_conditionalI14TestPrintQueueEEvRT_
FN:118,120,_ZN5boost9unit_test20teardown_conditionalI14TestPrintStackEEvRT_
FN:118,120,_ZN5boost9unit_test20teardown_conditionalI15OHTTestContainsEEvRT_
FN:118,120,_ZN5boost9unit_test20teardown_conditionalI16ATestSaveAndLoadEEvRT_
FN:118,120,_ZN5boost9unit_test20teardown_conditionalI16FLTestPrintEmptyEEvRT_
FN:118,120,_ZN5boost9unit_test20teardown_conditionalI17DLTestAndHeadTailEEvRT_
FN:118,120,_ZN5boost9unit_test20teardown_conditionalI17FLTestSaveAndLoadEEvRT_
FN:118,120,_ZN5boost9unit_test20teardown_conditionalI17OHTTestPrintTableEEvRT_
FN:118,120,_ZN5boost9unit_test20teardown_conditionalI18FLTestPrintByValueEEvRT_
FN:118,120,_ZN5boost9unit_test20teardown_conditionalI18FLTestPrintReverseEEvRT_
FN:118,120,_ZN5boost9unit_test20teardown_conditionalI18OHTTestGetNotFoundEEvRT_
FN:118,120,_ZN5boost9unit_test20teardown_conditionalI18OHTTestInsertBasicEEvRT_
FN:118,120,_ZN5boost9unit_test20teardown_conditionalI18TestPrintForwardDLEEvRT_
FN:118,120,_ZN5boost9unit_test20teardown_conditionalI18TreeTestIsCompleteEEvRT_
FN:118,120,_ZN5boost9unit_test20teardown_conditionalI19ATestPushBackAndGetEEvRT_
FN:118,120,_ZN5boost9unit_test20teardown_conditionalI19FLTestAddBeforeHeadEEvRT_
FN:118,120,_ZN5boost9unit_test20teardown_conditionalI19TestDeleteByValueDLEEvRT_
FN:118,120,_ZN5boost9unit_test20teardown_conditionalI19TestPrintBackwardDLEEvRT_
FN:118,120,_ZN5boost9unit_test20teardown_conditionalI19TestPrintEmptyArrayEEvRT_
FN:118,120,_ZN5boost9unit_test20teardown_conditionalI19TestPrintEmptyQueueEEvRT_
FN:118,120,_ZN5boost9unit_test20teardown_conditionalI19TestPrintEmptyStackEEvRT_
FN:118,120,_ZN5boost9unit_test20teardown_conditionalI19TreeTestSaveAndLoadEEvRT_
FN:118,120,_ZN5boost9unit_test20teardown_conditionalI20DLTestAddAfterBeforeEEvRT_
FN:118,120,_ZN5boost9unit_test20teardown_conditionalI20DLTestDeleteHeadTailEEvRT_
FN:118,120,_ZN5boost9unit_test20teardown_conditionalI20FLTestAddHeadAndTailEEvRT_
FN:118,120,_ZN5boost9unit_test20teardown_conditionalI20StackBasicOperationsEEvRT_
FN:118,120,_ZN5boost9unit_test20teardown_conditionalI21ATestInsertAndReplaceEEvRT_
FN:118,120,_ZN5boost9unit_test20teardown_conditionalI21FLTestAddBeforeMiddleEEvRT_
FN:118,120,_ZN5boost9unit_test20teardown_conditionalI21OHTTestInsertEmptyKeyEEvRT_
FN:118,120,_ZN5boost9unit_test20teardown_conditionalI21OHTTestRemoveNotFoundEEvRT_
FN:118,120,_ZN5boost9unit_test20teardown_conditionalI22FLTestDeleteOperationsEEvRT_
FN:118,120,_ZN5boost9unit_test20teardown_conditionalI22OHTTestHashDeterminismEEvRT_
FN:118,120,_ZN5boost9unit_test20teardown_conditionalI22OHTTestInsertDuplicateEEvRT_
FN:118,120,_ZN5boost9unit_test20teardown_conditionalI23FLTestAddAfterAndBeforeEEvRT_
FN:118,120,_ZN5boost9unit_test20teardown_conditionalI23OHTTestGetStopsOnUnusedEEvRT_
FN:118,120,_ZN5boost9unit_test20teardown_conditionalI23TestEmptyTreeOperationsEEvRT_
FN:118,120,_ZN5boost9unit_test20teardown_conditionalI23TreeTestInsertAndSearchEEvRT_
FN:118,120,_ZN5boost9unit_test20teardown_conditionalI28DLTestDeleteAfterBeforeValueEEvRT_
FN:118,120,_ZN5boost9unit_test20teardown_conditionalI28OHTTestContainsStopsOnUnusedEEvRT_
FN:118,120,_ZN5boost9unit_test20teardown_conditionalI29ChainHashTableBasicOperationsEEvRT_
FN:118,120,_ZN5boost9unit_test20teardown_conditionalI29OHTTestLinearProbingCollisionEEvRT_
FN:118,120,_ZN5boost9unit_test20teardown_conditionalI31ChainHashTableCollisionHandlingEEvRT_
FN:37,37,_ZN5boost9unit_test17test_unit_fixtureD0Ev
FN:37,37,_ZN5boost9unit_test17test_unit_fixtureD2Ev
FN:98,98,_ZN5boost9unit_test12impl_fixture10call_setupILb0EEclI11ATestDeleteEEvRT_
FN:98,98,_ZN5boost9unit_test12impl_fixture10call_setupILb0EEclI11FLTestClearEEvRT_
FN:98,98,_ZN5boost9unit_test12impl_fixture10call_setupILb0EEclI12QTestIsEmptyEEvRT_
FN:98,98,_ZN5boost9unit_test12impl_fixture10call_setupILb0EEclI12QTestPushPopEEvRT_
FN:98,98,_ZN5boost9unit_test12impl_fixture10call_setupILb0EEclI13OHTTestRemoveEEvRT_
FN:98,98,_ZN5boost9unit_test12impl_fixture10call_setupILb0EEclI13QTestSaveLoadEEvRT_
FN:98,98,_ZN5boost9unit_test12impl_fixture10call_setupILb0EEclI13StackSaveLoadEEvRT_
FN:98,98,_ZN5boost9unit_test12impl_fixture10call_setupILb0EEclI13TestPrintTreeEEvRT_
FN:98,98,_ZN5boost9unit_test12impl_fixture10call_setupILb0EEclI14DLTestSaveLoadEEvRT_
FN:98,98,_ZN5boost9unit_test12impl_fixture10call_setupILb0EEclI14FLTestAddAfterEEvRT_
FN:98,98,_ZN5boost9unit_test12impl_fixture10call_setupILb0EEclI14TestPrintArrayEEvRT_
FN:98,98,_ZN5boost9unit_test12impl_fixture10call_setupILb0EEclI14TestPrintQueueEEvRT_
FN:98,98,_ZN5boost9unit_test12impl_fixture10call_setupILb0EEclI14TestPrintStackEEvRT_
FN:98,98,_ZN5boost9unit_test12impl_fixture10call_setupILb0EEclI15OHTTestContainsEEvRT_
FN:98,98,_ZN5boost9unit_test12impl_fixture10call_setupILb0EEclI16ATestSaveAndLoadEEvRT_
FN:98,98,_ZN5boost9unit_test12impl_fixture10call_setupILb0EEclI16FLTestPrintEmptyEEvRT_
FN:98,98,_ZN5boost9unit_test12impl_fixture10call_setupILb0EEclI17DLTestAndHeadTailEEvRT_
FN:98,98,_ZN5boost9unit_test12impl_fixture10call_setupILb0EEclI17FLTestSaveAndLoadEEvRT_
FN:98,98,_ZN5boost9unit_test12impl_fixture10call_setupILb0EEclI17OHTTestPrintTableEEvRT_
FN:98,98,_ZN5boost9unit_test12impl_fixture10call_setupILb0EEclI18FLTestPrintByValueEEvRT_
FN:98,98,_ZN5boost9unit_test12impl_fixture10call_setupILb0EEclI18FLTestPrintReverseEEvRT_
FN:98,98,_ZN5boost9unit_test12impl_fixture10call_setupILb0EEclI18OHTTestGetNotFoundEEvRT_
FN:98,98,_ZN5boost9unit_test12impl_fixture10call_setupILb0EEclI18OHTTestInsertBasicEEvRT_
FN:98,98,_ZN5boost9unit_test12impl_fixture10call_setupILb0EEclI18TestPrintForwardDLEEvRT_
FN:98,98,_ZN5boost9unit_test12impl_fixture10call_setupILb0EEclI18TreeTestIsCompleteEEvRT_
FN:98,98,_ZN5boost9unit_test12impl_fixture10call_setupILb0EEclI19ATestPushBackAndGetEEvRT_
FN:98,98,_ZN5boost9unit_test12impl_fixture10call_setupILb0EEclI19FLTestAddBeforeHeadEEvRT_
FN:98,98,_ZN5boost9unit_test12impl_fixture10call_setupILb0EEclI19TestDeleteByValueDLEEvRT_
FN:98,98,_ZN5boost9unit_test12impl_fixture10call_setupILb0EEclI19TestPrintBackwardDLEEvRT_
FN:98,98,_ZN5boost9unit_test12impl_fixture10call_setupILb0EEclI19TestPrintEmptyArrayEEvRT_
FN:98,98,_ZN5boost9unit_test12impl_fixture10call_setupILb0EEclI19TestPrintEmptyQueueEEvRT_
FN:98,98,_ZN5boost9unit_test12impl_fixture10call_setupILb0EEclI19TestPrintEmptyStackEEvRT_
FN:98,98,_ZN5boost9unit_test12impl_fixture10call_setupILb0EEclI19TreeTestSaveAndLoadEEvRT_
FN:98,98,_ZN5boost9unit_test12impl_fixture10call_setupILb0EEclI20DLTestAddAfterBeforeEEvRT_
FN:98,98,_ZN5boost9unit_test12impl_fixture10call_setupILb0EEclI20DLTestDeleteHeadTailEEvRT_
FN:98,98,_ZN5boost9unit_test12impl_fixture10call_setupILb0EEclI20FLTestAddHeadAndTailEEvRT_
FN:98,98,_ZN5boost9unit_test12impl_fixture10call_setupILb0EEclI20StackBasicOperationsEEvRT_
FN:98,98,_ZN5boost9unit_test12impl_fixture10call_setupILb0EEclI21ATestInsertAndReplaceEEvRT_
FN:98,98,_ZN5boost9unit_test12impl_fixture10call_setupILb0EEclI21FLTestAddBeforeMiddleEEvRT_
FN:98,98,_ZN5boost9unit_test12impl_fixture10call_setupILb0EEclI21OHTTestInsertEmptyKeyEEvRT_
FN:98,98,_ZN5boost9unit_test12impl_fixture10call_setupILb0EEclI21OHTTestRemoveNotFoundEEvRT_
FN:98,98,_ZN5boost9unit_test12impl_fixture10call_setupILb0EEclI22FLTestDeleteOperationsEEvRT_
FN:98,98,_ZN5boost9unit_test12impl_fixture10call_setupILb0EEclI22OHTTestHashDeterminismEEvRT_
FN:98,98,_ZN5boost9unit_test12impl_fixture10call_setupILb0EEclI22OHTTestInsertDuplicateEEvRT_
FN:98,98,_ZN5boost9unit_test12impl_fixture10call_setupILb0EEclI23FLTestAddAfterAndBeforeEEvRT_
FN:98,98,_ZN5boost9unit_test12impl_fixture10call_setupILb0EEclI23OHTTestGetStopsOnUnusedEEvRT_
FN:98,98,_ZN5boost9unit_test12impl_fixture10call_setupILb0EEclI23TestEmptyTreeOperationsEEvRT_
FN:98,98,_ZN5boost9unit_test12impl_fixture10call_setupILb0EEclI23TreeTestInsertAndSearchEEvRT_
FN:98,98,_ZN5boost9unit_test12impl_fixture10call_setupILb0EEclI28DLTestDeleteAfterBeforeValueEEvRT_
FN:98,98,_ZN5boost9unit_test12impl_fixture10call_setupILb0EEclI28OHTTestContainsStopsOnUnusedEEvRT_
FN:98,98,_ZN5boost9unit_test12impl_fixture10call_setupILb0EEclI29ChainHashTableBasicOperationsEEvRT_
FN:98,98,_ZN5boost9unit_test12impl_fixture10call_setupILb0EEclI29OHTTestLinearProbingCollisionEEvRT_
FN:98,98,_ZN5boost9unit_test12impl_fixture10call_setupILb0EEclI31ChainHashTableCollisionHandlingEEvRT_
FNDA:1,_ZN5boost9unit_test12impl_fixture13call_teardownILb0EEclI11ATestDeleteEEvRT_
FNDA:1,_ZN5boost9unit_test12impl_fixture13call_teardownILb0EEclI11FLTestClearEEvRT_
FNDA:1,_ZN5boost9unit_test12impl_fixture13call_teardownILb0EEclI12QTestIsEmptyEEvRT_
FNDA:1,_ZN5boost9unit_test12impl_fixture13call_teardownILb0EEclI12QTestPushPopEEvRT_
FNDA:1,_ZN5boost9unit_test12impl_fixture13call_teardownILb0EEclI13OHTTestRemoveEEvRT_
FNDA:1,_ZN5boost9unit_test12impl_fixture13call_teardownILb0EEclI13QTestSaveLoadEEvRT_
FNDA:1,_ZN5boost9unit_test12impl_fixture13call_teardownILb0EEclI13StackSaveLoadEEvRT_
FNDA:1,_ZN5boost9unit_test12impl_fixture13call_teardownILb0EEclI13TestPrintTreeEEvRT_
FNDA:1,_ZN5boost9unit_test12impl_fixture13call_teardownILb0EEclI14DLTestSaveLoadEEvRT_
FNDA:1,_ZN5boost9unit_test12impl_fixture13call_teardownILb0EEclI14FLTestAddAfterEEvRT_
FNDA:1,_ZN5boost9unit_test12impl_fixture13call_teardownILb0EEclI14TestPrintArrayEEvRT_
FNDA:1,_ZN5boost9unit_test12impl_fixture13call_teardownILb0EEclI14TestPrintQueueEEvRT_
FNDA:1,_ZN5boost9unit_test12impl_fixture13call_teardownILb0EEclI14TestPrintStackEEvRT_
FNDA:1,_ZN5boost9unit_test12impl_fixture13call_teardownILb0EEclI15OHTTestContainsEEvRT_
FNDA:1,_ZN5boost9unit_test12impl_fixture13call_teardownILb0EEclI16ATestSaveAndLoadEEvRT_
FNDA:1,_ZN5boost9unit_test12impl_fixture13call_teardownILb0EEclI16FLTestPrintEmptyEEvRT_
FNDA:1,_ZN5boost9unit_test12impl_fixture13call_teardownILb0EEclI17DLTestAndHeadTailEEvRT_
FNDA:1,_ZN5boost9unit_test12impl_fixture13call_teardownILb0EEclI17FLTestSaveAndLoadEEvRT_
FNDA:1,_ZN5boost9unit_test12impl_fixture13call_teardownILb0EEclI17OHTTestPrintTableEEvRT_
FNDA:1,_ZN5boost9unit_test12impl_fixture13call_teardownILb0EEclI18FLTestPrintByValueEEvRT_
FNDA:1,_ZN5boost9unit_test12impl_fixture13call_teardownILb0EEclI18FLTestPrintReverseEEvRT_
FNDA:1,_ZN5boost9unit_test12impl_fixture13call_teardownILb0EEclI18OHTTestGetNotFoundEEvRT_
FNDA:1,_ZN5boost9unit_test12impl_fixture13call_teardownILb0EEclI18OHTTestInsertBasicEEvRT_
FNDA:1,_ZN5boost9unit_test12impl_fixture13call_teardownILb0EEclI18TestPrintForwardDLEEvRT_
FNDA:1,_ZN5boost9unit_test12impl_fixture13call_teardownILb0EEclI18TreeTestIsCompleteEEvRT_
FNDA:1,_ZN5boost9unit_test12impl_fixture13call_teardownILb0EEclI19ATestPushBackAndGetEEvRT_
FNDA:1,_ZN5boost9unit_test12impl_fixture13call_teardownILb0EEclI19FLTestAddBeforeHeadEEvRT_
FNDA:1,_ZN5boost9unit_test12impl_fixture13call_teardownILb0EEclI19TestDeleteByValueDLEEvRT_
FNDA:1,_ZN5boost9unit_test12impl_fixture13call_teardownILb0EEclI19TestPrintBackwardDLEEvRT_
FNDA:1,_ZN5boost9unit_test12impl_fixture13call_teardownILb0EEclI19TestPrintEmptyArrayEEvRT_
FNDA:1,_ZN5boost9unit_test12impl_fixture13call_teardownILb0EEclI19TestPrintEmptyQueueEEvRT_
FNDA:1,_ZN5boost9unit_test12impl_fixture13call_teardownILb0EEclI19TestPrintEmptyStackEEvRT_
FNDA:1,_ZN5boost9unit_test12impl_fixture13call_teardownILb0EEclI19TreeTestSaveAndLoadEEvRT_
FNDA:1,_ZN5boost9unit_test12impl_fixture13call_teardownILb0EEclI20DLTestAddAfterBeforeEEvRT_
FNDA:1,_ZN5boost9unit_test12impl_fixture13call_teardownILb0EEclI20DLTestDeleteHeadTailEEvRT_
FNDA:1,_ZN5boost9unit_test12impl_fixture13call_teardownILb0EEclI20FLTestAddHeadAndTailEEvRT_
FNDA:1,_ZN5boost9unit_test12impl_fixture13call_teardownILb0EEclI20StackBasicOperationsEEvRT_
FNDA:1,_ZN5boost9unit_test12impl_fixture13call_teardownILb0EEclI21ATestInsertAndReplaceEEvRT_
FNDA:1,_ZN5boost9unit_test12impl_fixture13call_teardownILb0EEclI21FLTestAddBeforeMiddleEEvRT_
FNDA:1,_ZN5boost9unit_test12impl_fixture13call_teardownILb0EEclI21OHTTestInsertEmptyKeyEEvRT_
FNDA:1,_ZN5boost9unit_test12impl_fixture13call_teardownILb0EEclI21OHTTestRemoveNotFoundEEvRT_
FNDA:1,_ZN5boost9unit_test12impl_fixture13call_teardownILb0EEclI22FLTestDeleteOperationsEEvRT_
FNDA:1,_ZN5boost9unit_test12impl_fixture13call_teardownILb0EEclI22OHTTestHashDeterminismEEvRT_
FNDA:1,_ZN5boost9unit_test12impl_fixture13call_teardownILb0EEclI22OHTTestInsertDuplicateEEvRT_
FNDA:1,_ZN5boost9unit_test12impl_fixture13call_teardownILb0EEclI23FLTestAddAfterAndBeforeEEvRT_
FNDA:1,_ZN5boost9unit_test12impl_fixture13call_teardownILb0EEclI23OHTTestGetStopsOnUnusedEEvRT_
FNDA:1,_ZN5boost9unit_test12impl_fixture13call_teardownILb0EEclI23TestEmptyTreeOperationsEEvRT_
FNDA:1,_ZN5boost9unit_test12impl_fixture13call_teardownILb0EEclI23TreeTestInsertAndSearchEEvRT_
FNDA:1,_ZN5boost9unit_test12impl_fixture13call_teardownILb0EEclI28DLTestDeleteAfterBeforeValueEEvRT_
FNDA:1,_ZN5boost9unit_test12impl_fixture13call_teardownILb0EEclI28OHTTestContainsStopsOnUnusedEEvRT_
FNDA:1,_ZN5boost9unit_test12impl_fixture13call_teardownILb0EEclI29ChainHashTableBasicOperationsEEvRT_
FNDA:1,_ZN5boost9unit_test12impl_fixture13call_teardownILb0EEclI29OHTTestLinearProbingCollisionEEvRT_
FNDA:1,_ZN5boost9unit_test12impl_fixture13call_teardownILb0EEclI31ChainHashTableCollisionHandlingEEvRT_
FNDA:1,_ZN5boost9unit_test17setup_conditionalI11ATestDeleteEEvRT_
FNDA:1,_ZN5boost9unit_test17setup_conditionalI11FLTestClearEEvRT_
FNDA:1,_ZN5boost9unit_test17setup_conditionalI12QTestIsEmptyEEvRT_
FNDA:1,_ZN5boost9unit_test17setup_conditionalI12QTestPushPopEEvRT_
FNDA:1,_ZN5boost9unit_test17setup_conditionalI13OHTTestRemoveEEvRT_
FNDA:1,_ZN5boost9unit_test17setup_conditionalI13QTestSaveLoadEEvRT_
FNDA:1,_ZN5boost9unit_test17setup_conditionalI13StackSaveLoadEEvRT_
FNDA:1,_ZN5boost9unit_test17setup_conditionalI13TestPrintTreeEEvRT_
FNDA:1,_ZN5boost9unit_test17setup_conditionalI14DLTestSaveLoadEEvRT_
FNDA:1,_ZN5boost9unit_test17setup_conditionalI14FLTestAddAfterEEvRT_
FNDA:1,_ZN5boost9unit_test17setup_conditionalI14TestPrintArrayEEvRT_
FNDA:1,_ZN5boost9unit_test17setup_conditionalI14TestPrintQueueEEvRT_
FNDA:1,_ZN5boost9unit_test17setup_conditionalI14TestPrintStackEEvRT_
FNDA:1,_ZN5boost9unit_test17setup_conditionalI15OHTTestContainsEEvRT_
FNDA:1,_ZN5boost9unit_test17setup_conditionalI16ATestSaveAndLoadEEvRT_
FNDA:1,_ZN5boost9unit_test17setup_conditionalI16FLTestPrintEmptyEEvRT_
FNDA:1,_ZN5boost9unit_test17setup_conditionalI17DLTestAndHeadTailEEvRT_
FNDA:1,_ZN5boost9unit_test17setup_conditionalI17FLTestSaveAndLoadEEvRT_
FNDA:1,_ZN5boost9unit_test17setup_conditionalI17OHTTestPrintTableEEvRT_
FNDA:1,_ZN5boost9unit_test17setup_conditionalI18FLTestPrintByValueEEvRT_
FNDA:1,_ZN5boost9unit_test17setup_conditionalI18FLTestPrintReverseEEvRT_
FNDA:1,_ZN5boost9unit_test17setup_conditionalI18OHTTestGetNotFoundEEvRT_
FNDA:1,_ZN5boost9unit_test17setup_conditionalI18OHTTestInsertBasicEEvRT_
FNDA:1,_ZN5boost9unit_test17setup_conditionalI18TestPrintForwardDLEEvRT_
FNDA:1,_ZN5boost9unit_test17setup_conditionalI18TreeTestIsCompleteEEvRT_
FNDA:1,_ZN5boost9unit_test17setup_conditionalI19ATestPushBackAndGetEEvRT_
FNDA:1,_ZN5boost9unit_test17setup_conditionalI19FLTestAddBeforeHeadEEvRT_
FNDA:1,_ZN5boost9unit_test17setup_conditionalI19TestDeleteByValueDLEEvRT_
FNDA:1,_ZN5boost9unit_test17setup_conditionalI19TestPrintBackwardDLEEvRT_
FNDA:1,_ZN5boost9unit_test17setup_conditionalI19TestPrintEmptyArrayEEvRT_
FNDA:1,_ZN5boost9unit_test17setup_conditionalI19TestPrintEmptyQueueEEvRT_
FNDA:1,_ZN5boost9unit_test17setup_conditionalI19TestPrintEmptyStackEEvRT_
FNDA:1,_ZN5boost9unit_test17setup_conditionalI19TreeTestSaveAndLoadEEvRT_
FNDA:1,_ZN5boost9unit_test17setup_conditionalI20DLTestAddAfterBeforeEEvRT_
FNDA:1,_ZN5boost9unit_test17setup_conditionalI20DLTestDeleteHeadTailEEvRT_
FNDA:1,_ZN5boost9unit_test17setup_conditionalI20FLTestAddHeadAndTailEEvRT_
FNDA:1,_ZN5boost9unit_test17setup_conditionalI20StackBasicOperationsEEvRT_
FNDA:1,_ZN5boost9unit_test17setup_conditionalI21ATestInsertAndReplaceEEvRT_
FNDA:1,_ZN5boost9unit_test17setup_conditionalI21FLTestAddBeforeMiddleEEvRT_
FNDA:1,_ZN5boost9unit_test17setup_conditionalI21OHTTestInsertEmptyKeyEEvRT_
FNDA:1,_ZN5boost9unit_test17setup_conditionalI21OHTTestRemoveNotFoundEEvRT_
FNDA:1,_ZN5boost9unit_test17setup_conditionalI22FLTestDeleteOperationsEEvRT_
FNDA:1,_ZN5boost9unit_test17setup_conditionalI22OHTTestHashDeterminismEEvRT_
FNDA:1,_ZN5boost9unit_test17setup_conditionalI22OHTTestInsertDuplicateEEvRT_
FNDA:1,_ZN5boost9unit_test17setup_conditionalI23FLTestAddAfterAndBeforeEEvRT_
FNDA:1,_ZN5boost9unit_test17setup_conditionalI23OHTTestGetStopsOnUnusedEEvRT_
FNDA:1,_ZN5boost9unit_test17setup_conditionalI23TestEmptyTreeOperationsEEvRT_
FNDA:1,_ZN5boost9unit_test17setup_conditionalI23TreeTestInsertAndSearchEEvRT_
FNDA:1,_ZN5boost9unit_test17setup_conditionalI28DLTestDeleteAfterBeforeValueEEvRT_
FNDA:1,_ZN5boost9unit_test17setup_conditionalI28OHTTestContainsStopsOnUnusedEEvRT_
FNDA:1,_ZN5boost9unit_test17setup_conditionalI29ChainHashTableBasicOperationsEEvRT_
FNDA:1,_ZN5boost9unit_test17setup_conditionalI29OHTTestLinearProbingCollisionEEvRT_
FNDA:1,_ZN5boost9unit_test17setup_conditionalI31ChainHashTableCollisionHandlingEEvRT_
FNDA:1,_ZN5boost9unit_test20teardown_conditionalI11ATestDeleteEEvRT_
FNDA:1,_ZN5boost9unit_test20teardown_conditionalI11FLTestClearEEvRT_
FNDA:1,_ZN5boost9unit_test20teardown_conditionalI12QTestIsEmptyEEvRT_
FNDA:1,_ZN5boost9unit_test20teardown_conditionalI12QTestPushPopEEvRT_
FNDA:1,_ZN5boost9unit_test20teardown_conditionalI13OHTTestRemoveEEvRT_
FNDA:1,_ZN5boost9unit_test20teardown_conditionalI13QTestSaveLoadEEvRT_
FNDA:1,_ZN5boost9unit_test20teardown_conditionalI13StackSaveLoadEEvRT_
FNDA:1,_ZN5boost9unit_test20teardown_conditionalI13TestPrintTreeEEvRT_
FNDA:1,_ZN5boost9unit_test20teardown_conditionalI14DLTestSaveLoadEEvRT_
FNDA:1,_ZN5boost9unit_test20teardown_conditionalI14FLTestAddAfterEEvRT_
FNDA:1,_ZN5boost9unit_test20teardown_conditionalI14TestPrintArrayEEvRT_
FNDA:1,_ZN5boost9unit_test20teardown_conditionalI14TestPrintQueueEEvRT_
FNDA:1,_ZN5boost9unit_test20teardown_conditionalI14TestPrintStackEEvRT_
FNDA:1,_ZN5boost9unit_test20teardown_conditionalI15OHTTestContainsEEvRT_
FNDA:1,_ZN5boost9unit_test20teardown_conditionalI16ATestSaveAndLoadEEvRT_
FNDA:1,_ZN5boost9unit_test20teardown_conditionalI16FLTestPrintEmptyEEvRT_
FNDA:1,_ZN5boost9unit_test20teardown_conditionalI17DLTestAndHeadTailEEvRT_
FNDA:1,_ZN5boost9unit_test20teardown_conditionalI17FLTestSaveAndLoadEEvRT_
FNDA:1,_ZN5boost9unit_test20teardown_conditionalI17OHTTestPrintTableEEvRT_
FNDA:1,_ZN5boost9unit_test20teardown_conditionalI18FLTestPrintByValueEEvRT_
FNDA:1,_ZN5boost9unit_test20teardown_conditionalI18FLTestPrintReverseEEvRT_
FNDA:1,_ZN5boost9unit_test20teardown_conditionalI18OHTTestGetNotFoundEEvRT_
FNDA:1,_ZN5boost9unit_test20teardown_conditionalI18OHTTestInsertBasicEEvRT_
FNDA:1,_ZN5boost9unit_test20teardown_conditionalI18TestPrintForwardDLEEvRT_
FNDA:1,_ZN5boost9unit_test20teardown_conditionalI18TreeTestIsCompleteEEvRT_
FNDA:1,_ZN5boost9unit_test20teardown_conditionalI19ATestPushBackAndGetEEvRT_
FNDA:1,_ZN5boost9unit_test20teardown_conditionalI19FLTestAddBeforeHeadEEvRT_
FNDA:1,_ZN5boost9unit_test20teardown_conditionalI19TestDeleteByValueDLEEvRT_
FNDA:1,_ZN5boost9unit_test20teardown_conditionalI19TestPrintBackwardDLEEvRT_
FNDA:1,_ZN5boost9unit_test20teardown_conditionalI19TestPrintEmptyArrayEEvRT_
FNDA:1,_ZN5boost9unit_test20teardown_conditionalI19TestPrintEmptyQueueEEvRT_
FNDA:1,_ZN5boost9unit_test20teardown_conditionalI19TestPrintEmptyStackEEvRT_
FNDA:1,_ZN5boost9unit_test20teardown_conditionalI19TreeTestSaveAndLoadEEvRT_
FNDA:1,_ZN5boost9unit_test20teardown_conditionalI20DLTestAddAfterBeforeEEvRT_
FNDA:1,_ZN5boost9unit_test20teardown_conditionalI20DLTestDeleteHeadTailEEvRT_
FNDA:1,_ZN5boost9unit_test20teardown_conditionalI20FLTestAddHeadAndTailEEvRT_
FNDA:1,_ZN5boost9unit_test20teardown_conditionalI20StackBasicOperationsEEvRT_
FNDA:1,_ZN5boost9unit_test20teardown_conditionalI21ATestInsertAndReplaceEEvRT_
FNDA:1,_ZN5boost9unit_test20teardown_conditionalI21FLTestAddBeforeMiddleEEvRT_
FNDA:1,_ZN5boost9unit_test20teardown_conditionalI21OHTTestInsertEmptyKeyEEvRT_
FNDA:1,_ZN5boost9unit_test20teardown_conditionalI21OHTTestRemoveNotFoundEEvRT_
FNDA:1,_ZN5boost9unit_test20teardown_conditionalI22FLTestDeleteOperationsEEvRT_
FNDA:1,_ZN5boost9unit_test20teardown_conditionalI22OHTTestHashDeterminismEEvRT_
FNDA:1,_ZN5boost9unit_test20teardown_conditionalI22OHTTestInsertDuplicateEEvRT_
FNDA:1,_ZN5boost9unit_test20teardown_conditionalI23FLTestAddAfterAndBeforeEEvRT_
FNDA:1,_ZN5boost9unit_test20teardown_conditionalI23OHTTestGetStopsOnUnusedEEvRT_
FNDA:1,_ZN5boost9unit_test20teardown_conditionalI23TestEmptyTreeOperationsEEvRT_
FNDA:1,_ZN5boost9unit_test20teardown_conditionalI23TreeTestInsertAndSearchEEvRT_
FNDA:1,_ZN5boost9unit_test20teardown_conditionalI28DLTestDeleteAfterBeforeValueEEvRT_
FNDA:1,_ZN5boost9unit_test20teardown_conditionalI28OHTTestContainsStopsOnUnusedEEvRT_
FNDA:1,_ZN5boost9unit_test20teardown_conditionalI29ChainHashTableBasicOperationsEEvRT_
FNDA:1,_ZN5boost9unit_test20teardown_conditionalI29OHTTestLinearProbingCollisionEEvRT_
FNDA:1,_ZN5boost9unit_test20teardown_conditionalI31ChainHashTableCollisionHandlingEEvRT_
FNDA:0,_ZN5boost9unit_test17test_unit_fixtureD0Ev
FNDA:0,_ZN5boost9unit_test17test_unit_fixtureD2Ev
FNDA:1,_ZN5boost9unit_test12impl_fixture10call_setupILb0EEclI11ATestDeleteEEvRT_
FNDA:1,_ZN5boost9unit_test12impl_fixture10call_setupILb0EEclI11FLTestClearEEvRT_
FNDA:1,_ZN5boost9unit_test12impl_fixture10call_setupILb0EEclI12QTestIsEmptyEEvRT_
FNDA:1,_ZN5boost9unit_test12impl_fixture10call_setupILb0EEclI12QTestPushPopEEvRT_
FNDA:1,_ZN5boost9unit_test12impl_fixture10call_setupILb0EEclI13OHTTestRemoveEEvRT_
FNDA:1,_ZN5boost9unit_test12impl_fixture10call_setupILb0EEclI13QTestSaveLoadEEvRT_
FNDA:1,_ZN5boost9unit_test12impl_fixture10call_setupILb0EEclI13StackSaveLoadEEvRT_
FNDA:1,_ZN5boost9unit_test12impl_fixture10call_setupILb0EEclI13TestPrintTreeEEvRT_
FNDA:1,_ZN5boost9unit_test12impl_fixture10call_setupILb0EEclI14DLTestSaveLoadEEvRT_
FNDA:1,_ZN5boost9unit_test12impl_fixture10call_setupILb0EEclI14FLTestAddAfterEEvRT_
FNDA:1,_ZN5boost9unit_test12impl_fixture10call_setupILb0EEclI14TestPrintArrayEEvRT_
FNDA:1,_ZN5boost9unit_test12impl_fixture10call_setupILb0EEclI14TestPrintQueueEEvRT_
FNDA:1,_ZN5boost9unit_test12impl_fixture10call_setupILb0EEclI14TestPrintStackEEvRT_
FNDA:1,_ZN5boost9unit_test12impl_fixture10call_setupILb0EEclI15OHTTestContainsEEvRT_
FNDA:1,_ZN5boost9unit_test12impl_fixture10call_setupILb0EEclI16ATestSaveAndLoadEEvRT_
FNDA:1,_ZN5boost9unit_test12impl_fixture10call_setupILb0EEclI16FLTestPrintEmptyEEvRT_
FNDA:1,_ZN5boost9unit_test12impl_fixture10call_setupILb0EEclI17DLTestAndHeadTailEEvRT_
FNDA:1,_ZN5boost9unit_test12impl_fixture10call_setupILb0EEclI17FLTestSaveAndLoadEEvRT_
FNDA:1,_ZN5boost9unit_test12impl_fixture10call_setupILb0EEclI17OHTTestPrintTableEEvRT_
FNDA:1,_ZN5boost9unit_test12impl_fixture10call_setupILb0EEclI18FLTestPrintByValueEEvRT_
FNDA:1,_ZN5boost9unit_test12impl_fixture10call_setupILb0EEclI18FLTestPrintReverseEEvRT_
FNDA:1,_ZN5boost9unit_test12impl_fixture10call_setupILb0EEclI18OHTTestGetNotFoundEEvRT_
FNDA:1,_ZN5boost9unit_test12impl_fixture10call_setupILb0EEclI18OHTTestInsertBasicEEvRT_
FNDA:1,_ZN5boost9unit_test12impl_fixture10call_setupILb0EEclI18TestPrintForwardDLEEvRT_
FNDA:1,_ZN5boost9unit_test12impl_fixture10call_setupILb0EEclI18TreeTestIsCompleteEEvRT_
FNDA:1,_ZN5boost9unit_test12impl_fixture10call_setupILb0EEclI19ATestPushBackAndGetEEvRT_
FNDA:1,_ZN5boost9unit_test12impl_fixture10call_setupILb0EEclI19FLTestAddBeforeHeadEEvRT_
FNDA:1,_ZN5boost9unit_test12impl_fixture10call_setupILb0EEclI19TestDeleteByValueDLEEvRT_
FNDA:1,_ZN5boost9unit_test12impl_fixture10call_setupILb0EEclI19TestPrintBackwardDLEEvRT_
FNDA:1,_ZN5boost9unit_test12impl_fixture10call_setupILb0EEclI19TestPrintEmptyArrayEEvRT_
FNDA:1,_ZN5boost9unit_test12impl_fixture10call_setupILb0EEclI19TestPrintEmptyQueueEEvRT_
FNDA:1,_ZN5boost9unit_test12impl_fixture10call_setupILb0EEclI19TestPrintEmptyStackEEvRT_
FNDA:1,_ZN5boost9unit_test12impl_fixture10call_setupILb0EEclI19TreeTestSaveAndLoadEEvRT_
FNDA:1,_ZN5boost9unit_test12impl_fixture10call_setupILb0EEclI20DLTestAddAfterBeforeEEvRT_
FNDA:1,_ZN5boost9unit_test12impl_fixture10call_setupILb0EEclI20DLTestDeleteHeadTailEEvRT_
FNDA:1,_ZN5boost9unit_test12impl_fixture10call_setupILb0EEclI20FLTestAddHeadAndTailEEvRT_
FNDA:1,_ZN5boost9unit_test12impl_fixture10call_setupILb0EEclI20StackBasicOperationsEEvRT_
FNDA:1,_ZN5boost9unit_test12impl_fixture10call_setupILb0EEclI21ATestInsertAndReplaceEEvRT_
FNDA:1,_ZN5boost9unit_test12impl_fixture10call_setupILb0EEclI21FLTestAddBeforeMiddleEEvRT_
FNDA:1,_ZN5boost9unit_test12impl_fixture10call_setupILb0EEclI21OHTTestInsertEmptyKeyEEvRT_
FNDA:1,_ZN5boost9unit_test12impl_fixture10call_setupILb0EEclI21OHTTestRemoveNotFoundEEvRT_
FNDA:1,_ZN5boost9unit_test12impl_fixture10call_setupILb0EEclI22FLTestDeleteOperationsEEvRT_
FNDA:1,_ZN5boost9unit_test12impl_fixture10call_setupILb0EEclI22OHTTestHashDeterminismEEvRT_
FNDA:1,_ZN5boost9unit_test12impl_fixture10call_setupILb0EEclI22OHTTestInsertDuplicateEEvRT_
FNDA:1,_ZN5boost9unit_test12impl_fixture10call_setupILb0EEclI23FLTestAddAfterAndBeforeEEvRT_
FNDA:1,_ZN5boost9unit_test12impl_fixture10call_setupILb0EEclI23OHTTestGetStopsOnUnusedEEvRT_
FNDA:1,_ZN5boost9unit_test12impl_fixture10call_setupILb0EEclI23TestEmptyTreeOperationsEEvRT_
FNDA:1,_ZN5boost9unit_test12impl_fixture10call_setupILb0EEclI23TreeTestInsertAndSearchEEvRT_
FNDA:1,_ZN5boost9unit_test12impl_fixture10call_setupILb0EEclI28DLTestDeleteAfterBeforeValueEEvRT_
FNDA:1,_ZN5boost9unit_test12impl_fixture10call_setupILb0EEclI28OHTTestContainsStopsOnUnusedEEvRT_
FNDA:1,_ZN5boost9unit_test12impl_fixture10call_setupILb0EEclI29ChainHashTableBasicOperationsEEvRT_
FNDA:1,_ZN5boost9unit_test12impl_fixture10call_setupILb0EEclI29OHTTestLinearProbingCollisionEEvRT_
FNDA:1,_ZN5boost9unit_test12impl_fixture10call_setupILb0EEclI31ChainHashTableCollisionHandlingEEvRT_
FNF:214
FNH:212
DA:37,0
DA:98,53
DA:104,53
DA:112,53
DA:113,53
DA:118,53
DA:119,53
LF:7
LH:6
end_of_record
TN:
SF:/usr/include/boost/test/tree/global_fixture.hpp
FN:49,49,_ZN5boost9unit_test20global_configuration8priorityEv
FNDA:0,_ZN5boost9unit_test20global_configuration8priorityEv
FNF:1
FNH:0
DA:49,0
LF:1
LH:0
end_of_record
TN:
SF:/usr/include/boost/test/tree/observer.hpp
FN:102,102,_ZN5boost9unit_test13test_observer8priorityEv
FN:106,106,_ZN5boost9unit_test13test_observerD0Ev
FN:106,106,_ZN5boost9unit_test13test_observerD2Ev
FN:48,48,_ZN5boost9unit_test13test_observer10test_startEmm
FN:53,53,_ZN5boost9unit_test13test_observer11test_finishEv
FN:62,62,_ZN5boost9unit_test13test_observer12test_abortedEv
FN:67,67,_ZN5boost9unit_test13test_observer15test_unit_startERKNS0_9test_unitE
FN:72,72,_ZN5boost9unit_test13test_observer16test_unit_finishERKNS0_9test_unitEm
FN:73,73,_ZN5boost9unit_test13test_observer17test_unit_skippedERKNS0_9test_unitENS0_13basic_cstringIKcEE
FN:74,74,_ZN5boost9unit_test13test_observer17test_unit_skippedERKNS0_9test_unitE
FN:80,80,_ZN5boost9unit_test13test_observer19test_unit_timed_outERKNS0_9test_unitE
FN:87,87,_ZN5boost9unit_test13test_observer17test_unit_abortedERKNS0_9test_unitE
FN:89,91,_ZN5boost9unit_test13test_observer16assertion_resultENS0_16assertion_resultE
FN:98,98,_ZN5boost9unit_test13test_observer16exception_caughtERKNS_19execution_exceptionE
FNDA:0,_ZN5boost9unit_test13test_observer8priorityEv
FNDA:0,_ZN5boost9unit_test13test_observerD0Ev
FNDA:4,_ZN5boost9unit_test13test_observerD2Ev
FNDA:0,_ZN5boost9unit_test13test_observer10test_startEmm
FNDA:2,_ZN5boost9unit_test13test_observer11test_finishEv
FNDA:0,_ZN5boost9unit_test13test_observer12test_abortedEv
FNDA:0,_ZN5boost9unit_test13test_observer15test_unit_startERKNS0_9test_unitE
FNDA:0,_ZN5boost9unit_test13test_observer16test_unit_finishERKNS0_9test_unitEm
FNDA:0,_ZN5boost9unit_test13test_observer17test_unit_skippedERKNS0_9test_unitENS0_13basic_cstringIKcEE
FNDA:0,_ZN5boost9unit_test13test_observer17test_unit_skippedERKNS0_9test_unitE
FNDA:0,_ZN5boost9unit_test13test_observer19test_unit_timed_outERKNS0_9test_unitE
FNDA:0,_ZN5boost9unit_test13test_observer17test_unit_abortedERKNS0_9test_unitE
FNDA:161,_ZN5boost9unit_test13test_observer16assertion_resultENS0_16assertion_resultE
FNDA:0,_ZN5boost9unit_test13test_observer16exception_caughtERKNS_19execution_exceptionE
FNF:14
FNH:3
DA:48,0
DA:53,2
DA:62,0
DA:67,0
DA:72,0
DA:73,0
DA:74,0
DA:80,0
DA:87,0
DA:89,161
DA:91,161
DA:98,0
DA:102,0
DA:106,4
LF:14
LH:4
end_of_record
TN:
SF:/usr/include/boost/test/tree/test_case_counter.hpp
FN:38,41,_ZN5boost9unit_test17test_case_counterC2Eb
FN:43,43,_ZN5boost9unit_test17test_case_counter19readonly_property43C2Em
FN:46,46,_ZN5boost9unit_test17test_case_counter5visitERKNS0_9test_caseE
FN:47,47,_ZN5boost9unit_test17test_case_counter16test_suite_startERKNS0_10test_suiteE
FNDA:1,_ZN5boost9unit_test17test_case_counterC2Eb
FNDA:1,_ZN5boost9unit_test17test_case_counter19readonly_property43C2Em
FNDA:53,_ZN5boost9unit_test17test_case_counter5visitERKNS0_9test_caseE
FNDA:1,_ZN5boost9unit_test17test_case_counter16test_suite_startERKNS0_10test_suiteE
FNF:4
FNH:4
DA:38,1
DA:39,2
DA:40,1
DA:41,1
DA:43,1
DA:46,53
DA:47,1
LF:7
LH:7
end_of_record
TN:
SF:/usr/include/boost/test/tree/test_unit.hpp
FN:144,144,_ZN5boost9unit_test9test_case20readonly_property144C2ERKNS_8functionIFvvEEE
FN:150,150,_ZN5boost9unit_test9test_caseD2Ev
FN:204,204,_ZN5boost9unit_test10test_suiteD0Ev
FN:204,204,_ZN5boost9unit_test10test_suiteD2Ev
FN:263,266,_ZN5boost9unit_test14make_test_caseERKNS_8functionIFvvEEENS0_13basic_cstringIKcEES8_m
FN:62,62,_ZN5boost9unit_test9test_unit19readonly_property62C2Em
FN:63,63,_ZN5boost9unit_test9test_unit19readonly_property63C2Em
FN:64,64,_ZN5boost9unit_test9test_unit19readonly_property64C2Ev
FN:66,66,_ZN5boost9unit_test9test_unit19readonly_property66C2Ev
FN:69,69,_ZN5boost9unit_test9test_unit19readonly_property69C2Ev
FN:82,82,_ZNK5boost9unit_test9test_unit10is_enabledEv
FNDA:53,_ZN5boost9unit_test9test_case20readonly_property144C2ERKNS_8functionIFvvEEE
FNDA:53,_ZN5boost9unit_test9test_caseD2Ev
FNDA:0,_ZN5boost9unit_test10test_suiteD0Ev
FNDA:1,_ZN5boost9unit_test10test_suiteD2Ev
FNDA:53,_ZN5boost9unit_test14make_test_caseERKNS_8functionIFvvEEENS0_13basic_cstringIKcEES8_m
FNDA:54,_ZN5boost9unit_test9test_unit19readonly_property62C2Em
FNDA:54,_ZN5boost9unit_test9test_unit19readonly_property63C2Em
FNDA:54,_ZN5boost9unit_test9test_unit19readonly_property64C2Ev
FNDA:54,_ZN5boost9unit_test9test_unit19readonly_property66C2Ev
FNDA:54,_ZN5boost9unit_test9test_unit19readonly_property69C2Ev
FNDA:429,_ZNK5boost9unit_test9test_unit10is_enabledEv
FNF:11
FNH:10
DA:62,54
DA:63,54
DA:64,54
DA:66,54
DA:69,54
DA:82,429
DA:144,53
DA:150,53
DA:204,1
DA:263,53
DA:265,53
LF:11
LH:11
end_of_record
TN:
SF:/usr/include/boost/test/tree/traverse.hpp
FN:43,49,_ZN5boost9unit_test18traverse_test_treeERKNS0_9test_unitERNS0_17test_tree_visitorEb
FNDA:1,_ZN5boost9unit_test18traverse_test_treeERKNS0_9test_unitERNS0_17test_tree_visitorEb
FNF:1
FNH:1
DA:43,1
DA:45,1
DA:46,0
DA:48,1
DA:49,1
LF:5
LH:4
end_of_record
TN:
SF:/usr/include/boost/test/tree/visitor.hpp
FN:37,37,_ZN5boost9unit_test17test_tree_visitor5visitERKNS0_9test_unitE
FN:38,38,_ZN5boost9unit_test17test_tree_visitor5visitERKNS0_9test_caseE
FN:39,39,_ZN5boost9unit_test17test_tree_visitor16test_suite_startERKNS0_10test_suiteE
FN:40,40,_ZN5boost9unit_test17test_tree_visitor17test_suite_finishERKNS0_10test_suiteE
FN:43,43,_ZN5boost9unit_test17test_tree_visitorD0Ev
FN:43,43,_ZN5boost9unit_test17test_tree_visitorD2Ev
FNDA:0,_ZN5boost9unit_test17test_tree_visitor5visitERKNS0_9test_unitE
FNDA:159,_ZN5boost9unit_test17test_tree_visitor5visitERKNS0_9test_caseE
FNDA:3,_ZN5boost9unit_test17test_tree_visitor16test_suite_startERKNS0_10test_suiteE
FNDA:5,_ZN5boost9unit_test17test_tree_visitor17test_suite_finishERKNS0_10test_suiteE
FNDA:0,_ZN5boost9unit_test17test_tree_visitorD0Ev
FNDA:6,_ZN5boost9unit_test17test_tree_visitorD2Ev
FNF:6
FNH:4
DA:37,0
DA:38,159
DA:39,3
DA:40,5
DA:43,6
LF:5
LH:4
end_of_record
TN:
SF:/usr/include/boost/test/unit_test_log.hpp
FN:126,126,_ZN5boost9unit_test15unit_test_log_t8priorityEv
FN:224,224,_ZN5boost9unit_test15unit_test_log_tD0Ev
FN:224,224,_ZN5boost9unit_test15unit_test_log_tD2Ev
FN:46,49,_ZN5boost9unit_test3log5beginC2ENS0_13basic_cstringIKcEEm
FN:68,68,_ZN5boost9unit_test9ut_detail21entry_value_collectorC2Ev
FNDA:21,_ZN5boost9unit_test15unit_test_log_t8priorityEv
FNDA:0,_ZN5boost9unit_test15unit_test_log_tD0Ev
FNDA:1,_ZN5boost9unit_test15unit_test_log_tD2Ev
FNDA:161,_ZN5boost9unit_test3log5beginC2ENS0_13basic_cstringIKcEEm
FNDA:0,_ZN5boost9unit_test9ut_detail21entry_value_collectorC2Ev
FNF:5
FNH:3
DA:46,161
DA:47,161
DA:48,161
DA:49,161
DA:68,0
DA:126,21
DA:224,1
LF:7
LH:6
end_of_record
TN:
SF:/usr/include/boost/test/unit_test_log_formatter.hpp
FN:118,120,_ZN5boost9unit_test23unit_test_log_formatterC2Ev
FN:123,123,_ZN5boost9unit_test23unit_test_log_formatterD0Ev
FN:123,123,_ZN5boost9unit_test23unit_test_log_formatterD2Ev
FN:169,172,_ZN5boost9unit_test23unit_test_log_formatter17test_unit_skippedERSoRKNS0_9test_unitENS0_13basic_cstringIKcEE
FN:176,176,_ZN5boost9unit_test23unit_test_log_formatter17test_unit_skippedERSoRKNS0_9test_unitE
FN:179,179,_ZN5boost9unit_test23unit_test_log_formatter17test_unit_abortedERSoRKNS0_9test_unitE
FN:182,182,_ZN5boost9unit_test23unit_test_log_formatter19test_unit_timed_outERSoRKNS0_9test_unitE
FN:307,310,_ZNK5boost9unit_test23unit_test_log_formatter30get_default_stream_descriptionB5cxx11Ev
FN:40,43,_ZN5boost9unit_test14log_entry_dataC2Ev
FN:49,54,_ZN5boost9unit_test14log_entry_data5clearEv
FN:67,72,_ZN5boost9unit_test19log_checkpoint_data5clearEv
FNDA:3,_ZN5boost9unit_test23unit_test_log_formatterC2Ev
FNDA:0,_ZN5boost9unit_test23unit_test_log_formatterD0Ev
FNDA:3,_ZN5boost9unit_test23unit_test_log_formatterD2Ev
FNDA:0,_ZN5boost9unit_test23unit_test_log_formatter17test_unit_skippedERSoRKNS0_9test_unitENS0_13basic_cstringIKcEE
FNDA:0,_ZN5boost9unit_test23unit_test_log_formatter17test_unit_skippedERSoRKNS0_9test_unitE
FNDA:0,_ZN5boost9unit_test23unit_test_log_formatter17test_unit_abortedERSoRKNS0_9test_unitE
FNDA:0,_ZN5boost9unit_test23unit_test_log_formatter19test_unit_timed_outERSoRKNS0_9test_unitE
FNDA:0,_ZNK5boost9unit_test23unit_test_log_formatter30get_default_stream_descriptionB5cxx11Ev
FNDA:1,_ZN5boost9unit_test14log_entry_dataC2Ev
FNDA:161,_ZN5boost9unit_test14log_entry_data5clearEv
FNDA:54,_ZN5boost9unit_test19log_checkpoint_data5clearEv
FNF:11
FNH:5
DA:40,1
DA:41,1
DA:42,1
DA:43,1
DA:49,161
DA:51,161
DA:52,161
DA:53,161
DA:54,161
DA:67,54
DA:69,54
DA:70,54
DA:71,54
DA:72,54
DA:118,3
DA:119,3
DA:120,3
DA:123,3
DA:169,0
DA:171,0
DA:172,0
DA:176,0
DA:179,0
DA:182,0
DA:307,0
DA:309,0
LF:26
LH:18
end_of_record
TN:
SF:/usr/include/boost/test/unit_test_monitor.hpp
FN:45,45,_ZN5boost9unit_test19unit_test_monitor_t17is_critical_errorENS1_11error_levelE
FN:52,52,_ZN5boost9unit_test19unit_test_monitor_tC2Ev
FN:52,52,_ZN5boost9unit_test19unit_test_monitor_tD2Ev
FNDA:161,_ZN5boost9unit_test19unit_test_monitor_t17is_critical_errorENS1_11error_levelE
FNDA:1,_ZN5boost9unit_test19unit_test_monitor_tC2Ev
FNDA:1,_ZN5boost9unit_test19unit_test_monitor_tD2Ev
FNF:3
FNH:3
DA:45,161
DA:52,2
LF:2
LH:2
end_of_record
TN:
SF:/usr/include/boost/test/unit_test_parameters.hpp
FN:102,105,_ZN5boost9unit_test14runtime_config13stream_holderC2ERSo
FN:107,136,_ZN5boost9unit_test14runtime_config13stream_holder5setupERKNS0_13basic_cstringIKcEERKNS_8functionIFvvEEE
FN:139,139,_ZNK5boost9unit_test14runtime_config13stream_holder3refEv
FN:143,146,_ZN5boost9unit_test14runtime_config13stream_holder16callback_cleanerC2ENS_8functionIFvvEEE
FN:147,150,_ZN5boost9unit_test14runtime_config13stream_holder16callback_cleanerD2Ev
FN:82,85,_ZN5boost9unit_test14runtime_config3getINS0_12report_levelEEERKT_NS0_13basic_cstringIKcEE
FN:82,85,_ZN5boost9unit_test14runtime_config3getINS0_13output_formatEEERKT_NS0_13basic_cstringIKcEE
FN:82,85,_ZN5boost9unit_test14runtime_config3getINS0_9log_levelEEERKT_NS0_13basic_cstringIKcEE
FN:82,85,_ZN5boost9unit_test14runtime_config3getINSt7__cxx1112basic_stringIcSt11char_traitsIcESaIcEEEEERKT_NS0_13basic_cstringIKcEE
FN:82,85,_ZN5boost9unit_test14runtime_config3getISt6vectorINSt7__cxx1112basic_stringIcSt11char_traitsIcESaIcEEESaIS9_EEEERKT_NS0_13basic_cstringIKcEE
FN:82,85,_ZN5boost9unit_test14runtime_config3getIbEERKT_NS0_13basic_cstringIKcEE
FN:82,85,_ZN5boost9unit_test14runtime_config3getIjEERKT_NS0_13basic_cstringIKcEE
FN:82,85,_ZN5boost9unit_test14runtime_config3getImEERKT_NS0_13basic_cstringIKcEE
FN:87,90,_ZN5boost9unit_test14runtime_config3hasENS0_13basic_cstringIKcEE
FNDA:2,_ZN5boost9unit_test14runtime_config13stream_holderC2ERSo
FNDA:1,_ZN5boost9unit_test14runtime_config13stream_holder5setupERKNS0_13basic_cstringIKcEERKNS_8functionIFvvEEE
FNDA:2,_ZNK5boost9unit_test14runtime_config13stream_holder3refEv
FNDA:0,_ZN5boost9unit_test14runtime_config13stream_holder16callback_cleanerC2ENS_8functionIFvvEEE
FNDA:0,_ZN5boost9unit_test14runtime_config13stream_holder16callback_cleanerD2Ev
FNDA:1,_ZN5boost9unit_test14runtime_config3getINS0_12report_levelEEERKT_NS0_13basic_cstringIKcEE
FNDA:3,_ZN5boost9unit_test14runtime_config3getINS0_13output_formatEEERKT_NS0_13basic_cstringIKcEE
FNDA:1,_ZN5boost9unit_test14runtime_config3getINS0_9log_levelEEERKT_NS0_13basic_cstringIKcEE
FNDA:1,_ZN5boost9unit_test14runtime_config3getINSt7__cxx1112basic_stringIcSt11char_traitsIcESaIcEEEEERKT_NS0_13basic_cstringIKcEE
FNDA:2,_ZN5boost9unit_test14runtime_config3getISt6vectorINSt7__cxx1112basic_stringIcSt11char_traitsIcESaIcEEESaIS9_EEEERKT_NS0_13basic_cstringIKcEE
FNDA:234,_ZN5boost9unit_test14runtime_config3getIbEERKT_NS0_13basic_cstringIKcEE
FNDA:2,_ZN5boost9unit_test14runtime_config3getIjEERKT_NS0_13basic_cstringIKcEE
FNDA:1,_ZN5boost9unit_test14runtime_config3getImEERKT_NS0_13basic_cstringIKcEE
FNDA:3,_ZN5boost9unit_test14runtime_config3hasENS0_13basic_cstringIKcEE
FNF:14
FNH:12
DA:82,245
DA:84,245
DA:87,3
DA:89,3
DA:102,2
DA:103,2
DA:105,2
DA:107,1
DA:110,1
DA:111,0
DA:113,1
DA:114,1
DA:115,1
DA:116,0
DA:119,1
DA:122,0
DA:123,0
DA:124,0
DA:125,0
DA:128,0
DA:132,0
DA:133,0
DA:134,0
DA:139,2
DA:143,0
DA:144,0
DA:145,0
DA:146,0
DA:147,0
DA:148,0
DA:149,0
DA:150,0
LF:32
LH:14
end_of_record
TN:
SF:/usr/include/boost/test/unit_test_suite.hpp
FN:390,398,_Z20init_unit_test_suiteiPPc
FNDA:1,_Z20init_unit_test_suiteiPPc
FNF:1
FNH:1
DA:390,1
DA:397,1
LF:2
LH:2
end_of_record
TN:
SF:/usr/include/boost/test/utils/algorithm.hpp
FN:138,148,_ZN5boost9unit_test5utils12find_last_ofIPKcS4_EET_S5_S5_T0_S6_
FN:234,247,_ZN5boost9unit_test5utils26replace_all_occurrences_ofINSt7__cxx1112basic_stringIcSt11char_traitsIcESaIcEEEPKS8_EET_SB_T0_SC_SC_SC_
FNDA:1,_ZN5boost9unit_test5utils12find_last_ofIPKcS4_EET_S5_S5_T0_S6_
FNDA:0,_ZN5boost9unit_test5utils26replace_all_occurrences_ofINSt7__cxx1112basic_stringIcSt11char_traitsIcESaIcEEEPKS8_EET_SB_T0_SC_SC_SC_
FNF:2
FNH:1
DA:138,1
DA:141,1
DA:142,0
DA:144,1
DA:145,5
DA:147,1
DA:234,0
DA:238,0
DA:239,0
DA:240,0
DA:241,0
DA:242,0
DA:246,0
LF:13
LH:5
end_of_record
TN:
SF:/usr/include/boost/test/utils/assign_op.hpp
FN:28,31,_ZN5boost9unit_test9assign_opINS0_12report_levelES2_EEvRT_RKT0_l
FN:28,31,_ZN5boost9unit_test9assign_opINS0_13output_formatES2_EEvRT_RKT0_l
FN:28,31,_ZN5boost9unit_test9assign_opINS0_9log_levelES2_EEvRT_RKT0_l
FN:28,31,_ZN5boost9unit_test9assign_opINS_8functionIFvNS0_13basic_cstringIKcEEEEEZNS0_14runtime_config12_GLOBAL__N_119register_parametersERNS_7runtime16parameters_storeEEUlS5_E_EEvRT_RKT0_l
FN:28,31,_ZN5boost9unit_test9assign_opINSt7__cxx1112basic_stringIcSt11char_traitsIcESaIcEEES7_EEvRT_RKT0_l
FN:28,31,_ZN5boost9unit_test9assign_opIbbEEvRT_RKT0_l
FN:28,31,_ZN5boost9unit_test9assign_opIjjEEvRT_RKT0_l
FN:28,31,_ZN5boost9unit_test9assign_opImlEEvRT_RKT0_l
FNDA:1,_ZN5boost9unit_test9assign_opINS0_12report_levelES2_EEvRT_RKT0_l
FNDA:4,_ZN5boost9unit_test9assign_opINS0_13output_formatES2_EEvRT_RKT0_l
FNDA:1,_ZN5boost9unit_test9assign_opINS0_9log_levelES2_EEvRT_RKT0_l
FNDA:1,_ZN5boost9unit_test9assign_opINS_8functionIFvNS0_13basic_cstringIKcEEEEEZNS0_14runtime_config12_GLOBAL__N_119register_parametersERNS_7runtime16parameters_storeEEUlS5_E_EEvRT_RKT0_l
FNDA:2,_ZN5boost9unit_test9assign_opINSt7__cxx1112basic_stringIcSt11char_traitsIcESaIcEEES7_EEvRT_RKT0_l
FNDA:26,_ZN5boost9unit_test9assign_opIbbEEvRT_RKT0_l
FNDA:2,_ZN5boost9unit_test9assign_opIjjEEvRT_RKT0_l
FNDA:2,_ZN5boost9unit_test9assign_opImlEEvRT_RKT0_l
FNF:8
FNH:8
DA:28,39
DA:30,39
DA:31,39
LF:3
LH:3
end_of_record
TN:
SF:/usr/include/boost/test/utils/basic_cstring/basic_cstring.hpp
FN:142,145,_ZN5boost9unit_test13basic_cstringIKcE6assignIlEERS3_PS2_T_
FN:206,209,_ZN5boost9unit_test13basic_cstringIKcE8null_strEv
FN:215,219,_ZN5boost9unit_test13basic_cstringIKcEC2Ev
FN:225,229,_ZN5boost9unit_test13basic_cstringIKcEC2ERKS3_
FN:235,239,_ZN5boost9unit_test13basic_cstringIKcEC2ERKNSt7__cxx1112basic_stringIcSt11char_traitsIcESaIcEEE
FN:245,249,_ZN5boost9unit_test13basic_cstringIKcEC2EPS2_
FN:255,259,_ZN5boost9unit_test13basic_cstringIKcEC2EPS2_S4_
FN:265,268,_ZNK5boost9unit_test13basic_cstringIKcEixEm
FN:286,289,_ZNK5boost9unit_test13basic_cstringIKcE4sizeEv
FN:286,289,_ZNK5boost9unit_test13basic_cstringIcE4sizeEv
FN:295,298,_ZNK5boost9unit_test13basic_cstringIKcE8is_emptyEv
FN:304,307,_ZNK5boost9unit_test13basic_cstringIKcE5emptyEv
FN:313,316,_ZN5boost9unit_test13basic_cstringIKcE5clearEv
FN:313,316,_ZN5boost9unit_test13basic_cstringIcE5clearEv
FN:332,339,_ZN5boost9unit_test13basic_cstringIKcE9trim_leftEm
FN:332,339,_ZN5boost9unit_test13basic_cstringIcE9trim_leftEm
FN:345,352,_ZN5boost9unit_test13basic_cstringIKcE9trim_leftEPS2_
FN:358,370,_ZN5boost9unit_test13basic_cstringIKcE9trim_leftES3_
FN:389,396,_ZN5boost9unit_test13basic_cstringIKcE10trim_rightEPS2_
FN:402,420,_ZN5boost9unit_test13basic_cstringIKcE10trim_rightES3_
FN:426,432,_ZN5boost9unit_test13basic_cstringIKcE4trimES3_
FN:438,444,_ZN5boost9unit_test13basic_cstringIKcEaSERKS3_
FN:459,462,_ZN5boost9unit_test13basic_cstringIKcEaSEPS2_
FN:486,489,_ZN5boost9unit_test13basic_cstringIKcE6assignEPS2_S4_
FN:512,515,_ZN5boost9unit_test13basic_cstringIKcE5beginEv
FN:512,515,_ZN5boost9unit_test13basic_cstringIcE5beginEv
FN:521,524,_ZNK5boost9unit_test13basic_cstringIKcE5beginEv
FN:530,533,_ZN5boost9unit_test13basic_cstringIKcE3endEv
FN:539,542,_ZNK5boost9unit_test13basic_cstringIKcE3endEv
FN:548,561,_ZNK5boost9unit_test13basic_cstringIKcE4findES3_
FN:588,595,_ZNK5boost9unit_test13basic_cstringIKcE6substrEmm
FN:601,606,_ZN5boost9unit_test13basic_cstringIKcE15default_trim_exEv
FN:616,621,_ZN5boost9unit_testeqIKcS2_EEbRKNS0_13basic_cstringIT_EERKNS3_IT0_EE
FN:627,634,_ZN5boost9unit_testeqIKcS2_EEbRKNS0_13basic_cstringIT_EEPT0_
FN:640,643,_ZN5boost9unit_testeqIKcEEbRKNS0_13basic_cstringIT_EERKNS5_10std_stringE
FN:658,661,_ZN5boost9unit_testeqIKcEEbRKNS0_13basic_cstringIT_E10std_stringERKS5_
FN:685,688,_ZN5boost9unit_testneIKcEEbRKNS0_13basic_cstringIT_EES7_
FN:716,721,_ZN5boost9unit_test10first_charIKcEENS0_13basic_cstringIT_E14value_ret_typeES5_
FN:731,736,_ZN5boost9unit_test9last_charIKcEENS0_13basic_cstringIT_E14value_ret_typeES5_
FN:746,749,_ZN5boost9unit_test9assign_opIcKcEEvRNSt7__cxx1112basic_stringIT_St11char_traitsIS5_ESaIS5_EEENS0_13basic_cstringIT0_EEi
FN:755,759,_ZN5boost9unit_testpLIcKcEERNSt7__cxx1112basic_stringIT_St11char_traitsIS5_ESaIS5_EEESA_RKNS0_13basic_cstringIT0_EE
FN:765,771,_ZN5boost9unit_testplIcKcEENSt7__cxx1112basic_stringIT_St11char_traitsIS5_ESaIS5_EEERKS9_RKNS0_13basic_cstringIT0_EE
FN:83,83,_ZN5boost9unit_test13basic_cstringIKcEC2IiEEPS2_T_
FN:83,83,_ZN5boost9unit_test13basic_cstringIKcEC2IlEEPS2_T_
FN:83,83,_ZN5boost9unit_test13basic_cstringIKcEC2ImEEPS2_T_
FN:83,83,_ZN5boost9unit_test13basic_cstringIcEC2ImEEPcT_
FNDA:171,_ZN5boost9unit_test13basic_cstringIKcE6assignIlEERS3_PS2_T_
FNDA:832,_ZN5boost9unit_test13basic_cstringIKcE8null_strEv
FNDA:807,_ZN5boost9unit_test13basic_cstringIKcEC2Ev
FNDA:4239,_ZN5boost9unit_test13basic_cstringIKcEC2ERKS3_
FNDA:895,_ZN5boost9unit_test13basic_cstringIKcEC2ERKNSt7__cxx1112basic_stringIcSt11char_traitsIcESaIcEEE
FNDA:852,_ZN5boost9unit_test13basic_cstringIKcEC2EPS2_
FNDA:285,_ZN5boost9unit_test13basic_cstringIKcEC2EPS2_S4_
FNDA:53,_ZNK5boost9unit_test13basic_cstringIKcEixEm
FNDA:11192,_ZNK5boost9unit_test13basic_cstringIKcE4sizeEv
FNDA:0,_ZNK5boost9unit_test13basic_cstringIcE4sizeEv
FNDA:1101,_ZNK5boost9unit_test13basic_cstringIKcE8is_emptyEv
FNDA:423,_ZNK5boost9unit_test13basic_cstringIKcE5emptyEv
FNDA:71,_ZN5boost9unit_test13basic_cstringIKcE5clearEv
FNDA:0,_ZN5boost9unit_test13basic_cstringIcE5clearEv
FNDA:0,_ZN5boost9unit_test13basic_cstringIKcE9trim_leftEm
FNDA:0,_ZN5boost9unit_test13basic_cstringIcE9trim_leftEm
FNDA:74,_ZN5boost9unit_test13basic_cstringIKcE9trim_leftEPS2_
FNDA:73,_ZN5boost9unit_test13basic_cstringIKcE9trim_leftES3_
FNDA:56,_ZN5boost9unit_test13basic_cstringIKcE10trim_rightEPS2_
FNDA:73,_ZN5boost9unit_test13basic_cstringIKcE10trim_rightES3_
FNDA:73,_ZN5boost9unit_test13basic_cstringIKcE4trimES3_
FNDA:1008,_ZN5boost9unit_test13basic_cstringIKcEaSERKS3_
FNDA:1,_ZN5boost9unit_test13basic_cstringIKcEaSEPS2_
FNDA:285,_ZN5boost9unit_test13basic_cstringIKcE6assignEPS2_S4_
FNDA:2435,_ZN5boost9unit_test13basic_cstringIKcE5beginEv
FNDA:0,_ZN5boost9unit_test13basic_cstringIcE5beginEv
FNDA:2246,_ZNK5boost9unit_test13basic_cstringIKcE5beginEv
FNDA:614,_ZN5boost9unit_test13basic_cstringIKcE3endEv
FNDA:228,_ZNK5boost9unit_test13basic_cstringIKcE3endEv
FNDA:285,_ZNK5boost9unit_test13basic_cstringIKcE4findES3_
FNDA:0,_ZNK5boost9unit_test13basic_cstringIKcE6substrEmm
FNDA:125,_ZN5boost9unit_test13basic_cstringIKcE15default_trim_exEv
FNDA:1,_ZN5boost9unit_testeqIKcS2_EEbRKNS0_13basic_cstringIT_EERKNS3_IT0_EE
FNDA:1,_ZN5boost9unit_testeqIKcS2_EEbRKNS0_13basic_cstringIT_EEPT0_
FNDA:0,_ZN5boost9unit_testeqIKcEEbRKNS0_13basic_cstringIT_EERKNS5_10std_stringE
FNDA:0,_ZN5boost9unit_testeqIKcEEbRKNS0_13basic_cstringIT_E10std_stringERKS5_
FNDA:0,_ZN5boost9unit_testneIKcEEbRKNS0_13basic_cstringIT_EES7_
FNDA:0,_ZN5boost9unit_test10first_charIKcEENS0_13basic_cstringIT_E14value_ret_typeES5_
FNDA:0,_ZN5boost9unit_test9last_charIKcEENS0_13basic_cstringIT_E14value_ret_typeES5_
FNDA:676,_ZN5boost9unit_test9assign_opIcKcEEvRNSt7__cxx1112basic_stringIT_St11char_traitsIS5_ESaIS5_EEENS0_13basic_cstringIT0_EEi
FNDA:0,_ZN5boost9unit_testpLIcKcEERNSt7__cxx1112basic_stringIT_St11char_traitsIS5_ESaIS5_EEESA_RKNS0_13basic_cstringIT0_EE
FNDA:0,_ZN5boost9unit_testplIcKcEENSt7__cxx1112basic_stringIT_St11char_traitsIS5_ESaIS5_EEERKS9_RKNS0_13basic_cstringIT0_EE
FNDA:125,_ZN5boost9unit_test13basic_cstringIKcEC2IiEEPS2_T_
FNDA:171,_ZN5boost9unit_test13basic_cstringIKcEC2IlEEPS2_T_
FNDA:772,_ZN5boost9unit_test13basic_cstringIKcEC2ImEEPS2_T_
FNDA:0,_ZN5boost9unit_test13basic_cstringIcEC2ImEEPcT_
FNF:46
FNH:32
DA:83,1068
DA:142,171
DA:144,171
DA:206,832
DA:208,832
DA:215,807
DA:216,807
DA:217,807
DA:219,807
DA:225,4239
DA:226,4239
DA:227,4239
DA:229,4239
DA:235,895
DA:236,895
DA:237,895
DA:239,895
DA:245,852
DA:246,852
DA:247,852
DA:249,852
DA:255,285
DA:256,285
DA:257,285
DA:259,285
DA:265,53
DA:267,53
DA:286,11192
DA:288,11192
DA:295,1101
DA:297,1101
DA:304,423
DA:306,423
DA:313,71
DA:315,71
DA:316,71
DA:332,0
DA:334,0
DA:335,0
DA:336,0
DA:338,0
DA:345,74
DA:347,74
DA:348,74
DA:349,17
DA:351,74
DA:358,73
DA:360,73
DA:361,71
DA:364,90
DA:365,73
DA:366,56
DA:369,73
DA:389,56
DA:391,56
DA:392,56
DA:393,0
DA:395,56
DA:402,73
DA:404,73
DA:405,17
DA:408,56
DA:409,54
DA:411,56
DA:414,56
DA:415,56
DA:416,56
DA:417,0
DA:419,56
DA:426,73
DA:428,73
DA:429,73
DA:431,73
DA:438,1008
DA:440,1008
DA:441,1008
DA:443,1008
DA:459,1
DA:461,1
DA:486,285
DA:488,285
DA:512,2435
DA:514,2435
DA:521,2246
DA:523,2246
DA:530,614
DA:532,614
DA:539,228
DA:541,228
DA:548,285
DA:550,285
DA:551,57
DA:553,228
DA:555,1026
DA:556,798
DA:557,0
DA:560,228
DA:588,0
DA:590,0
DA:591,0
DA:592,0
DA:593,0
DA:594,0
DA:601,125
DA:605,125
DA:616,1
DA:619,2
DA:620,2
DA:627,1
DA:630,1
DA:640,0
DA:642,0
DA:658,0
DA:660,0
DA:685,0
DA:687,0
DA:716,0
DA:720,0
DA:731,0
DA:735,0
DA:746,676
DA:748,676
DA:749,676
DA:755,0
DA:757,0
DA:758,0
DA:765,0
DA:767,0
DA:769,0
DA:770,0
DA:771,0
LF:131
LH:99
end_of_record
TN:
SF:/usr/include/boost/test/utils/basic_cstring/bcs_char_traits.hpp
FN:60,63,_ZN5boost9unit_test9ut_detail20bcs_char_traits_implIKcE2eqEcc
FN:64,67,_ZN5boost9unit_test9ut_detail20bcs_char_traits_implIKcE2ltEcc
FN:69,80,_ZN5boost9unit_test9ut_detail20bcs_char_traits_implIKcE7compareEPS3_S5_m
FN:82,91,_ZN5boost9unit_test9ut_detail20bcs_char_traits_implIKcE6lengthEPS3_
FN:93,103,_ZN5boost9unit_test9ut_detail20bcs_char_traits_implIKcE4findEPS3_mc
FNDA:24063,_ZN5boost9unit_test9ut_detail20bcs_char_traits_implIKcE2eqEcc
FNDA:1078,_ZN5boost9unit_test9ut_detail20bcs_char_traits_implIKcE2ltEcc
FNDA:1807,_ZN5boost9unit_test9ut_detail20bcs_char_traits_implIKcE7compareEPS3_S5_m
FNDA:827,_ZN5boost9unit_test9ut_detail20bcs_char_traits_implIKcE6lengthEPS3_
FNDA:129,_ZN5boost9unit_test9ut_detail20bcs_char_traits_implIKcE4findEPS3_mc
FNF:5
FNH:5
DA:60,24063
DA:62,24063
DA:64,1078
DA:66,1078
DA:69,1807
DA:71,11256
DA:72,10527
DA:73,1078
DA:74,9449
DA:75,9449
DA:76,9449
DA:79,729
DA:82,827
DA:84,827
DA:86,827
DA:87,13191
DA:88,12364
DA:90,827
DA:93,129
DA:95,457
DA:96,345
DA:97,17
DA:99,328
DA:100,328
DA:102,112
LF:25
LH:25
end_of_record
TN:
SF:/usr/include/boost/test/utils/basic_cstring/compare.hpp
FN:102,109,_ZN5boost9unit_testltIKcEEbRKNS0_13basic_cstringIT_EES7_
FN:46,46,_ZN5boost9unit_test9ut_detail8case_insIKcE2eqEcc
FN:47,47,_ZN5boost9unit_test9ut_detail8case_insIKcE2ltEcc
FN:49,56,_ZN5boost9unit_test9ut_detail8case_insIKcE7compareEPS3_S5_m
FN:67,70,_ZN5boost9unit_test11case_ins_eqIKcEEbNS0_13basic_cstringIT_EES5_
FNDA:2364,_ZN5boost9unit_testltIKcEEbRKNS0_13basic_cstringIT_EES7_
FNDA:0,_ZN5boost9unit_test9ut_detail8case_insIKcE2eqEcc
FNDA:0,_ZN5boost9unit_test9ut_detail8case_insIKcE2ltEcc
FNDA:0,_ZN5boost9unit_test9ut_detail8case_insIKcE7compareEPS3_S5_m
FNDA:0,_ZN5boost9unit_test11case_ins_eqIKcEEbNS0_13basic_cstringIT_EES5_
FNF:5
FNH:1
DA:46,0
DA:47,0
DA:49,0
DA:51,0
DA:52,0
DA:53,0
DA:55,0
DA:67,0
DA:69,0
DA:102,2364
DA:106,2364
DA:107,2364
DA:108,2364
LF:13
LH:4
end_of_record
TN:
SF:/usr/include/boost/test/utils/basic_cstring/io.hpp
FN:51,58,_ZN5boost9unit_testlsIcSt11char_traitsIcEKcEERSt13basic_ostreamIT_T0_ES9_RKNS0_13basic_cstringIT1_EE
FNDA:0,_ZN5boost9unit_testlsIcSt11char_traitsIcEKcEERSt13basic_ostreamIT_T0_ES9_RKNS0_13basic_cstringIT1_EE
FNF:1
FNH:0
DA:51,0
DA:53,0
DA:54,0
DA:55,0
DA:57,0
LF:5
LH:0
end_of_record
TN:
SF:/usr/include/boost/test/utils/class_properties.hpp
FN:113,113,_ZN5boost9unit_testeqINS0_9test_unit10run_statusEEEbRKNS0_14class_propertyIT_EERKS5_
FN:113,113,_ZN5boost9unit_testeqINS0_9test_unit10run_statusEEEbRKNS0_14class_propertyIT_EES8_
FN:113,113,_ZN5boost9unit_testeqImEEbRKNS0_14class_propertyIT_EERKS3_
FN:113,113,_ZN5boost9unit_testeqImEEbRKNS0_14class_propertyIT_EES6_
FN:114,114,_ZN5boost9unit_testneImEEbRKNS0_14class_propertyIT_EERKS3_
FN:114,114,_ZN5boost9unit_testneImEEbRKNS0_14class_propertyIT_EES6_
FN:114,114,_ZN5boost9unit_testneImEEbRKT_RKNS0_14class_propertyIS2_EE
FN:130,130,_ZN5boost9unit_test17readonly_propertyISt6vectorINS_8functionIFNS_10test_tools16assertion_resultEmEEESaIS7_EEEC2Ev
FN:130,130,_ZN5boost9unit_test17readonly_propertyISt6vectorINSt7__cxx1112basic_stringIcSt11char_traitsIcESaIcEEESaIS8_EEEC2Ev
FN:130,130,_ZN5boost9unit_test17readonly_propertyISt6vectorImSaImEEEC2Ev
FN:130,130,_ZN5boost9unit_test17readonly_propertyIbEC2Ev
FN:130,130,_ZN5boost9unit_test17readonly_propertyImEC2Ev
FN:131,131,_ZN5boost9unit_test17readonly_propertyINS_8functionIFvvEEEEC2ERKS4_
FN:131,131,_ZN5boost9unit_test17readonly_propertyIbEC2Eb
FN:131,131,_ZN5boost9unit_test17readonly_propertyImEC2Em
FN:134,134,_ZNK5boost9unit_test17readonly_propertyISt6vectorINSt7__cxx1112basic_stringIcSt11char_traitsIcESaIcEEESaIS8_EEEptEv
FN:173,173,_ZN5boost9unit_test18readwrite_propertyINSt7__cxx1112basic_stringIcSt11char_traitsIcESaIcEEEEC2Ev
FN:173,173,_ZN5boost9unit_test18readwrite_propertyISt6vectorINS_10shared_ptrINS0_17test_unit_fixtureEEESaIS5_EEEC2Ev
FN:173,173,_ZN5boost9unit_test18readwrite_propertyISt6vectorINS_10shared_ptrINS0_9decorator4baseEEESaIS6_EEEC2Ev
FN:174,174,_ZN5boost9unit_test18readwrite_propertyINS0_12report_levelEEC2ES2_
FN:174,174,_ZN5boost9unit_test18readwrite_propertyINS0_13output_formatEEC2ES2_
FN:174,174,_ZN5boost9unit_test18readwrite_propertyINS0_9log_levelEEC2ES2_
FN:174,174,_ZN5boost9unit_test18readwrite_propertyINS0_9test_unit10run_statusEEC2ES3_
FN:174,174,_ZN5boost9unit_test18readwrite_propertyINSt7__cxx1112basic_stringIcSt11char_traitsIcESaIcEEEEC2ERKS7_
FN:174,174,_ZN5boost9unit_test18readwrite_propertyISt6vectorINSt7__cxx1112basic_stringIcSt11char_traitsIcESaIcEEESaIS8_EEEC2ERKSA_
FN:174,174,_ZN5boost9unit_test18readwrite_propertyIbEC2Eb
FN:174,174,_ZN5boost9unit_test18readwrite_propertyIjEC2Ej
FN:174,174,_ZN5boost9unit_test18readwrite_propertyImEC2Em
FN:179,179,_ZNK5boost9unit_test18readwrite_propertyINSt7__cxx1112basic_stringIcSt11char_traitsIcESaIcEEEEptEv
FN:53,53,_ZN5boost9unit_test14class_propertyINSt7__cxx1112basic_stringIcSt11char_traitsIcESaIcEEEEC2Ev
FN:53,53,_ZN5boost9unit_test14class_propertyISt6vectorINS_10shared_ptrINS0_17test_unit_fixtureEEESaIS5_EEEC2Ev
FN:53,53,_ZN5boost9unit_test14class_propertyISt6vectorINS_10shared_ptrINS0_9decorator4baseEEESaIS6_EEEC2Ev
FN:53,53,_ZN5boost9unit_test14class_propertyISt6vectorINS_8functionIFNS_10test_tools16assertion_resultEmEEESaIS7_EEEC2Ev
FN:53,53,_ZN5boost9unit_test14class_propertyISt6vectorINSt7__cxx1112basic_stringIcSt11char_traitsIcESaIcEEESaIS8_EEEC2Ev
FN:53,53,_ZN5boost9unit_test14class_propertyISt6vectorImSaImEEEC2Ev
FN:53,53,_ZN5boost9unit_test14class_propertyIbEC2Ev
FN:53,53,_ZN5boost9unit_test14class_propertyImEC2Ev
FN:54,55,_ZN5boost9unit_test14class_propertyINS0_12report_levelEEC2ES2_
FN:54,55,_ZN5boost9unit_test14class_propertyINS0_13output_formatEEC2ES2_
FN:54,55,_ZN5boost9unit_test14class_propertyINS0_9log_levelEEC2ES2_
FN:54,55,_ZN5boost9unit_test14class_propertyINS0_9test_unit10run_statusEEC2ES3_
FN:54,55,_ZN5boost9unit_test14class_propertyINS_8functionIFvvEEEEC2ERKS4_
FN:54,55,_ZN5boost9unit_test14class_propertyINSt7__cxx1112basic_stringIcSt11char_traitsIcESaIcEEEEC2ERKS7_
FN:54,55,_ZN5boost9unit_test14class_propertyISt6vectorINSt7__cxx1112basic_stringIcSt11char_traitsIcESaIcEEESaIS8_EEEC2ERKSA_
FN:54,55,_ZN5boost9unit_test14class_propertyIbEC2Eb
FN:54,55,_ZN5boost9unit_test14class_propertyIjEC2Ej
FN:54,55,_ZN5boost9unit_test14class_propertyImEC2Em
FN:58,58,_ZNK5boost9unit_test14class_propertyINS0_9test_unit10run_statusEEcvRKS3_Ev
FN:58,58,_ZNK5boost9unit_test14class_propertyINS_8functionIFvvEEEEcvRKS4_Ev
FN:58,58,_ZNK5boost9unit_test14class_propertyINSt7__cxx1112basic_stringIcSt11char_traitsIcESaIcEEEEcvRKS7_Ev
FN:58,58,_ZNK5boost9unit_test14class_propertyIbEcvRKbEv
FN:58,58,_ZNK5boost9unit_test14class_propertyIjEcvRKjEv
FN:58,58,_ZNK5boost9unit_test14class_propertyImEcvRKmEv
FN:59,59,_ZNK5boost9unit_test14class_propertyINS0_9test_unit10run_statusEE3getEv
FN:59,59,_ZNK5boost9unit_test14class_propertyINSt7__cxx1112basic_stringIcSt11char_traitsIcESaIcEEEE3getEv
FN:59,59,_ZNK5boost9unit_test14class_propertyISt6vectorINS_10shared_ptrINS0_17test_unit_fixtureEEESaIS5_EEE3getEv
FN:59,59,_ZNK5boost9unit_test14class_propertyISt6vectorINS_10shared_ptrINS0_9decorator4baseEEESaIS6_EEE3getEv
FN:59,59,_ZNK5boost9unit_test14class_propertyISt6vectorINS_8functionIFNS_10test_tools16assertion_resultEmEEESaIS7_EEE3getEv
FN:59,59,_ZNK5boost9unit_test14class_propertyISt6vectorINSt7__cxx1112basic_stringIcSt11char_traitsIcESaIcEEESaIS8_EEE3getEv
FN:59,59,_ZNK5boost9unit_test14class_propertyISt6vectorImSaImEEE3getEv
FN:59,59,_ZNK5boost9unit_test14class_propertyIjE3getEv
FN:59,59,_ZNK5boost9unit_test14class_propertyImE3getEv
FN:60,60,_ZNK5boost9unit_test14class_propertyIbEntEv
FN:82,87,_ZN5boost9unit_testlsIcSt11char_traitsIcENSt7__cxx1112basic_stringIcS3_SaIcEEEEERSt13basic_ostreamIT_T0_ESC_RKNS0_14class_propertyIT1_EE
FN:82,87,_ZN5boost9unit_testlsIcSt11char_traitsIcEjEERSt13basic_ostreamIT_T0_ES8_RKNS0_14class_propertyIT1_EE
FN:82,87,_ZN5boost9unit_testlsIcSt11char_traitsIcEmEERSt13basic_ostreamIT_T0_ES8_RKNS0_14class_propertyIT1_EE
FNDA:537,_ZN5boost9unit_testeqINS0_9test_unit10run_statusEEEbRKNS0_14class_propertyIT_EERKS5_
FNDA:0,_ZN5boost9unit_testeqINS0_9test_unit10run_statusEEEbRKNS0_14class_propertyIT_EES8_
FNDA:54,_ZN5boost9unit_testeqImEEbRKNS0_14class_propertyIT_EERKS3_
FNDA:1,_ZN5boost9unit_testeqImEEbRKNS0_14class_propertyIT_EES6_
FNDA:53,_ZN5boost9unit_testneImEEbRKNS0_14class_propertyIT_EERKS3_
FNDA:0,_ZN5boost9unit_testneImEEbRKNS0_14class_propertyIT_EES6_
FNDA:0,_ZN5boost9unit_testneImEEbRKT_RKNS0_14class_propertyIS2_EE
FNDA:54,_ZN5boost9unit_test17readonly_propertyISt6vectorINS_8functionIFNS_10test_tools16assertion_resultEmEEESaIS7_EEEC2Ev
FNDA:54,_ZN5boost9unit_test17readonly_propertyISt6vectorINSt7__cxx1112basic_stringIcSt11char_traitsIcESaIcEEESaIS8_EEEC2Ev
FNDA:54,_ZN5boost9unit_test17readonly_propertyISt6vectorImSaImEEEC2Ev
FNDA:162,_ZN5boost9unit_test17readonly_propertyIbEC2Ev
FNDA:702,_ZN5boost9unit_test17readonly_propertyImEC2Ev
FNDA:53,_ZN5boost9unit_test17readonly_propertyINS_8functionIFvvEEEEC2ERKS4_
FNDA:215,_ZN5boost9unit_test17readonly_propertyIbEC2Eb
FNDA:109,_ZN5boost9unit_test17readonly_propertyImEC2Em
FNDA:0,_ZNK5boost9unit_test17readonly_propertyISt6vectorINSt7__cxx1112basic_stringIcSt11char_traitsIcESaIcEEESaIS8_EEEptEv
FNDA:55,_ZN5boost9unit_test18readwrite_propertyINSt7__cxx1112basic_stringIcSt11char_traitsIcESaIcEEEEC2Ev
FNDA:54,_ZN5boost9unit_test18readwrite_propertyISt6vectorINS_10shared_ptrINS0_17test_unit_fixtureEEESaIS5_EEEC2Ev
FNDA:54,_ZN5boost9unit_test18readwrite_propertyISt6vectorINS_10shared_ptrINS0_9decorator4baseEEESaIS6_EEEC2Ev
FNDA:1,_ZN5boost9unit_test18readwrite_propertyINS0_12report_levelEEC2ES2_
FNDA:3,_ZN5boost9unit_test18readwrite_propertyINS0_13output_formatEEC2ES2_
FNDA:1,_ZN5boost9unit_test18readwrite_propertyINS0_9log_levelEEC2ES2_
FNDA:108,_ZN5boost9unit_test18readwrite_propertyINS0_9test_unit10run_statusEEC2ES3_
FNDA:55,_ZN5boost9unit_test18readwrite_propertyINSt7__cxx1112basic_stringIcSt11char_traitsIcESaIcEEEEC2ERKS7_
FNDA:2,_ZN5boost9unit_test18readwrite_propertyISt6vectorINSt7__cxx1112basic_stringIcSt11char_traitsIcESaIcEEESaIS8_EEEC2ERKSA_
FNDA:75,_ZN5boost9unit_test18readwrite_propertyIbEC2Eb
FNDA:57,_ZN5boost9unit_test18readwrite_propertyIjEC2Ej
FNDA:111,_ZN5boost9unit_test18readwrite_propertyImEC2Em
FNDA:0,_ZNK5boost9unit_test18readwrite_propertyINSt7__cxx1112basic_stringIcSt11char_traitsIcESaIcEEEEptEv
FNDA:55,_ZN5boost9unit_test14class_propertyINSt7__cxx1112basic_stringIcSt11char_traitsIcESaIcEEEEC2Ev
FNDA:54,_ZN5boost9unit_test14class_propertyISt6vectorINS_10shared_ptrINS0_17test_unit_fixtureEEESaIS5_EEEC2Ev
FNDA:54,_ZN5boost9unit_test14class_propertyISt6vectorINS_10shared_ptrINS0_9decorator4baseEEESaIS6_EEEC2Ev
FNDA:54,_ZN5boost9unit_test14class_propertyISt6vectorINS_8functionIFNS_10test_tools16assertion_resultEmEEESaIS7_EEEC2Ev
FNDA:54,_ZN5boost9unit_test14class_propertyISt6vectorINSt7__cxx1112basic_stringIcSt11char_traitsIcESaIcEEESaIS8_EEEC2Ev
FNDA:54,_ZN5boost9unit_test14class_propertyISt6vectorImSaImEEEC2Ev
FNDA:162,_ZN5boost9unit_test14class_propertyIbEC2Ev
FNDA:702,_ZN5boost9unit_test14class_propertyImEC2Ev
FNDA:1,_ZN5boost9unit_test14class_propertyINS0_12report_levelEEC2ES2_
FNDA:3,_ZN5boost9unit_test14class_propertyINS0_13output_formatEEC2ES2_
FNDA:1,_ZN5boost9unit_test14class_propertyINS0_9log_levelEEC2ES2_
FNDA:108,_ZN5boost9unit_test14class_propertyINS0_9test_unit10run_statusEEC2ES3_
FNDA:53,_ZN5boost9unit_test14class_propertyINS_8functionIFvvEEEEC2ERKS4_
FNDA:55,_ZN5boost9unit_test14class_propertyINSt7__cxx1112basic_stringIcSt11char_traitsIcESaIcEEEEC2ERKS7_
FNDA:2,_ZN5boost9unit_test14class_propertyISt6vectorINSt7__cxx1112basic_stringIcSt11char_traitsIcESaIcEEESaIS8_EEEC2ERKSA_
FNDA:290,_ZN5boost9unit_test14class_propertyIbEC2Eb
FNDA:57,_ZN5boost9unit_test14class_propertyIjEC2Ej
FNDA:220,_ZN5boost9unit_test14class_propertyImEC2Em
FNDA:107,_ZNK5boost9unit_test14class_propertyINS0_9test_unit10run_statusEEcvRKS3_Ev
FNDA:53,_ZNK5boost9unit_test14class_propertyINS_8functionIFvvEEEEcvRKS4_Ev
FNDA:53,_ZNK5boost9unit_test14class_propertyINSt7__cxx1112basic_stringIcSt11char_traitsIcESaIcEEEEcvRKS7_Ev
FNDA:360,_ZNK5boost9unit_test14class_propertyIbEcvRKbEv
FNDA:111,_ZNK5boost9unit_test14class_propertyIjEcvRKjEv
FNDA:1989,_ZNK5boost9unit_test14class_propertyImEcvRKmEv
FNDA:537,_ZNK5boost9unit_test14class_propertyINS0_9test_unit10run_statusEE3getEv
FNDA:0,_ZNK5boost9unit_test14class_propertyINSt7__cxx1112basic_stringIcSt11char_traitsIcESaIcEEEE3getEv
FNDA:648,_ZNK5boost9unit_test14class_propertyISt6vectorINS_10shared_ptrINS0_17test_unit_fixtureEEESaIS5_EEE3getEv
FNDA:324,_ZNK5boost9unit_test14class_propertyISt6vectorINS_10shared_ptrINS0_9decorator4baseEEESaIS6_EEE3getEv
FNDA:324,_ZNK5boost9unit_test14class_propertyISt6vectorINS_8functionIFNS_10test_tools16assertion_resultEmEEESaIS7_EEE3getEv
FNDA:0,_ZNK5boost9unit_test14class_propertyISt6vectorINSt7__cxx1112basic_stringIcSt11char_traitsIcESaIcEEESaIS8_EEE3getEv
FNDA:648,_ZNK5boost9unit_test14class_propertyISt6vectorImSaImEEE3getEv
FNDA:0,_ZNK5boost9unit_test14class_propertyIjE3getEv
FNDA:109,_ZNK5boost9unit_test14class_propertyImE3getEv
FNDA:457,_ZNK5boost9unit_test14class_propertyIbEntEv
FNDA:0,_ZN5boost9unit_testlsIcSt11char_traitsIcENSt7__cxx1112basic_stringIcS3_SaIcEEEEERSt13basic_ostreamIT_T0_ESC_RKNS0_14class_propertyIT1_EE
FNDA:0,_ZN5boost9unit_testlsIcSt11char_traitsIcEjEERSt13basic_ostreamIT_T0_ES8_RKNS0_14class_propertyIT1_EE
FNDA:0,_ZN5boost9unit_testlsIcSt11char_traitsIcEmEERSt13basic_ostreamIT_T0_ES8_RKNS0_14class_propertyIT1_EE
FNF:66
FNH:55
DA:53,1189
DA:54,790
DA:55,790
DA:58,2673
DA:59,2590
DA:60,457
DA:82,0
DA:86,0
DA:113,592
DA:114,53
DA:130,1026
DA:131,377
DA:134,0
DA:173,163
DA:174,413
DA:179,0
LF:16
LH:12
end_of_record
TN:
SF:/usr/include/boost/test/utils/custom_manip.hpp
FN:35,35,_ZN5boost9unit_test5utils14custom_printerINS1_12custom_manipINS0_6output12_GLOBAL__N_17quote_tEEEEC2ERSo
FN:35,35,_ZN5boost9unit_test5utils14custom_printerINS1_12custom_manipINS1_12attr_value_tEEEEC2ERSo
FN:35,35,_ZN5boost9unit_test5utils14custom_printerINS1_12custom_manipINS1_7cdata_tEEEEC2ERSo
FN:37,37,_ZNK5boost9unit_test5utils14custom_printerINS1_12custom_manipINS0_6output12_GLOBAL__N_17quote_tEEEEdeEv
FN:37,37,_ZNK5boost9unit_test5utils14custom_printerINS1_12custom_manipINS1_12attr_value_tEEEEdeEv
FN:37,37,_ZNK5boost9unit_test5utils14custom_printerINS1_12custom_manipINS1_7cdata_tEEEEdeEv
FN:51,51,_ZN5boost9unit_test5utilslsINS0_6output12_GLOBAL__N_17quote_tEEENS1_14custom_printerINS1_12custom_manipIT_EEEERSoRKS9_
FN:51,51,_ZN5boost9unit_test5utilslsINS1_12attr_value_tEEENS1_14custom_printerINS1_12custom_manipIT_EEEERSoRKS7_
FN:51,51,_ZN5boost9unit_test5utilslsINS1_7cdata_tEEENS1_14custom_printerINS1_12custom_manipIT_EEEERSoRKS7_
FNDA:0,_ZN5boost9unit_test5utils14custom_printerINS1_12custom_manipINS0_6output12_GLOBAL__N_17quote_tEEEEC2ERSo
FNDA:0,_ZN5boost9unit_test5utils14custom_printerINS1_12custom_manipINS1_12attr_value_tEEEEC2ERSo
FNDA:0,_ZN5boost9unit_test5utils14custom_printerINS1_12custom_manipINS1_7cdata_tEEEEC2ERSo
FNDA:0,_ZNK5boost9unit_test5utils14custom_printerINS1_12custom_manipINS0_6output12_GLOBAL__N_17quote_tEEEEdeEv
FNDA:0,_ZNK5boost9unit_test5utils14custom_printerINS1_12custom_manipINS1_12attr_value_tEEEEdeEv
FNDA:0,_ZNK5boost9unit_test5utils14custom_printerINS1_12custom_manipINS1_7cdata_tEEEEdeEv
FNDA:0,_ZN5boost9unit_test5utilslsINS0_6output12_GLOBAL__N_17quote_tEEENS1_14custom_printerINS1_12custom_manipIT_EEEERSoRKS9_
FNDA:0,_ZN5boost9unit_test5utilslsINS1_12attr_value_tEEENS1_14custom_printerINS1_12custom_manipIT_EEEERSoRKS7_
FNDA:0,_ZN5boost9unit_test5utilslsINS1_7cdata_tEEENS1_14custom_printerINS1_12custom_manipIT_EEEERSoRKS7_
FNF:9
FNH:0
DA:35,0
DA:37,0
DA:51,0
LF:3
LH:0
end_of_record
TN:
SF:/usr/include/boost/test/utils/foreach.hpp
FN:102,105,_ZN5boost9unit_test8for_each5beginISt3mapINS0_13basic_cstringIKcEENS_10shared_ptrINS_7runtime11basic_paramEEENS8_16parameters_store10lg_compareESaISt4pairIKS6_SA_EEEEENS1_10static_anyINT_14const_iteratorEEERKSJ_N4mpl_5bool_ILb1EEE
FN:102,105,_ZN5boost9unit_test8for_each5beginISt6vectorINS0_13basic_cstringIKcEESaIS6_EEEENS1_10static_anyINT_14const_iteratorEEERKSA_N4mpl_5bool_ILb1EEE
FN:102,105,_ZN5boost9unit_test8for_each5beginISt6vectorINS_10shared_ptrINS0_17test_unit_fixtureEEESaIS6_EEEENS1_10static_anyINT_14const_iteratorEEERKSA_N4mpl_5bool_ILb1EEE
FN:102,105,_ZN5boost9unit_test8for_each5beginISt6vectorINS_10shared_ptrINS0_9decorator4baseEEESaIS7_EEEENS1_10static_anyINT_14const_iteratorEEERKSB_N4mpl_5bool_ILb1EEE
FN:102,105,_ZN5boost9unit_test8for_each5beginISt6vectorINS_7runtime16parameter_cla_idESaIS5_EEEENS1_10static_anyINT_14const_iteratorEEERKS9_N4mpl_5bool_ILb1EEE
FN:102,105,_ZN5boost9unit_test8for_each5beginISt6vectorINS_8functionIFNS_10test_tools16assertion_resultEmEEESaIS8_EEEENS1_10static_anyINT_14const_iteratorEEERKSC_N4mpl_5bool_ILb1EEE
FN:102,105,_ZN5boost9unit_test8for_each5beginISt6vectorINSt7__cxx1112basic_stringIcSt11char_traitsIcESaIcEEESaIS9_EEEENS1_10static_anyINT_14const_iteratorEEERKSD_N4mpl_5bool_ILb1EEE
FN:102,105,_ZN5boost9unit_test8for_each5beginISt6vectorImSaImEEEENS1_10static_anyINT_14const_iteratorEEERKS7_N4mpl_5bool_ILb1EEE
FN:102,105,_ZN5boost9unit_test8for_each5beginISt8multimapImmSt4lessImESaISt4pairIKmmEEEEENS1_10static_anyINT_14const_iteratorEEERKSC_N4mpl_5bool_ILb1EEE
FN:115,118,_ZN5boost9unit_test8for_each3endINS0_13basic_cstringIKcEEEENS1_10static_anyINT_8iteratorEEERS7_N4mpl_5bool_ILb0EEE
FN:115,118,_ZN5boost9unit_test8for_each3endISt3mapIcNS_10shared_ptrINS_7runtime3cla13rt_cla_detail14parameter_trieEEESt4lessIcESaISt4pairIKcS9_EEEEENS1_10static_anyINT_8iteratorEEERSI_N4mpl_5bool_ILb0EEE
FN:115,118,_ZN5boost9unit_test8for_each3endISt3setIPNS0_13test_observerENS0_9framework5state14priority_orderESaIS5_EEEENS1_10static_anyINT_8iteratorEEERSC_N4mpl_5bool_ILb0EEE
FN:115,118,_ZN5boost9unit_test8for_each3endISt3setIPNS0_14global_fixtureESt4lessIS5_ESaIS5_EEEENS1_10static_anyINT_8iteratorEEERSB_N4mpl_5bool_ILb0EEE
FN:115,118,_ZN5boost9unit_test8for_each3endISt6vectorINS_10shared_ptrINS_7runtime3cla13rt_cla_detail14parameter_trieEEESaIS9_EEEENS1_10static_anyINT_8iteratorEEERSD_N4mpl_5bool_ILb0EEE
FN:115,118,_ZN5boost9unit_test8for_each3endISt6vectorINS_17reference_wrapperIKNS_7runtime16parameter_cla_idEEESaIS8_EEEENS1_10static_anyINT_8iteratorEEERSC_N4mpl_5bool_ILb0EEE
FN:115,118,_ZN5boost9unit_test8for_each3endISt6vectorINSt7__cxx1112basic_stringIcSt11char_traitsIcESaIcEEESaIS9_EEEENS1_10static_anyINT_8iteratorEEERSD_N4mpl_5bool_ILb0EEE
FN:115,118,_ZN5boost9unit_test8for_each3endISt6vectorImSaImEEEENS1_10static_anyINT_8iteratorEEERS7_N4mpl_5bool_ILb0EEE
FN:124,127,_ZN5boost9unit_test8for_each3endISt3mapINS0_13basic_cstringIKcEENS_10shared_ptrINS_7runtime11basic_paramEEENS8_16parameters_store10lg_compareESaISt4pairIKS6_SA_EEEEENS1_10static_anyINT_14const_iteratorEEERKSJ_N4mpl_5bool_ILb1EEE
FN:124,127,_ZN5boost9unit_test8for_each3endISt6vectorINS0_13basic_cstringIKcEESaIS6_EEEENS1_10static_anyINT_14const_iteratorEEERKSA_N4mpl_5bool_ILb1EEE
FN:124,127,_ZN5boost9unit_test8for_each3endISt6vectorINS_10shared_ptrINS0_17test_unit_fixtureEEESaIS6_EEEENS1_10static_anyINT_14const_iteratorEEERKSA_N4mpl_5bool_ILb1EEE
FN:124,127,_ZN5boost9unit_test8for_each3endISt6vectorINS_10shared_ptrINS0_9decorator4baseEEESaIS7_EEEENS1_10static_anyINT_14const_iteratorEEERKSB_N4mpl_5bool_ILb1EEE
FN:124,127,_ZN5boost9unit_test8for_each3endISt6vectorINS_7runtime16parameter_cla_idESaIS5_EEEENS1_10static_anyINT_14const_iteratorEEERKS9_N4mpl_5bool_ILb1EEE
FN:124,127,_ZN5boost9unit_test8for_each3endISt6vectorINS_8functionIFNS_10test_tools16assertion_resultEmEEESaIS8_EEEENS1_10static_anyINT_14const_iteratorEEERKSC_N4mpl_5bool_ILb1EEE
FN:124,127,_ZN5boost9unit_test8for_each3endISt6vectorINSt7__cxx1112basic_stringIcSt11char_traitsIcESaIcEEESaIS9_EEEENS1_10static_anyINT_14const_iteratorEEERKSD_N4mpl_5bool_ILb1EEE
FN:124,127,_ZN5boost9unit_test8for_each3endISt6vectorImSaImEEEENS1_10static_anyINT_14const_iteratorEEERKS7_N4mpl_5bool_ILb1EEE
FN:124,127,_ZN5boost9unit_test8for_each3endISt8multimapImmSt4lessImESaISt4pairIKmmEEEEENS1_10static_anyINT_14const_iteratorEEERKSC_N4mpl_5bool_ILb1EEE
FN:137,141,_ZN5boost9unit_test8for_each4doneINS0_13basic_cstringIKcEEEEbRKNS1_15static_any_baseES8_RT_N4mpl_5bool_ILb0EEE
FN:137,141,_ZN5boost9unit_test8for_each4doneISt3mapIcNS_10shared_ptrINS_7runtime3cla13rt_cla_detail14parameter_trieEEESt4lessIcESaISt4pairIKcS9_EEEEEbRKNS1_15static_any_baseESJ_RT_N4mpl_5bool_ILb0EEE
FN:137,141,_ZN5boost9unit_test8for_each4doneISt3setIPNS0_13test_observerENS0_9framework5state14priority_orderESaIS5_EEEEbRKNS1_15static_any_baseESD_RT_N4mpl_5bool_ILb0EEE
FN:137,141,_ZN5boost9unit_test8for_each4doneISt3setIPNS0_14global_fixtureESt4lessIS5_ESaIS5_EEEEbRKNS1_15static_any_baseESC_RT_N4mpl_5bool_ILb0EEE
FN:137,141,_ZN5boost9unit_test8for_each4doneISt6vectorINS_10shared_ptrINS_7runtime3cla13rt_cla_detail14parameter_trieEEESaIS9_EEEEbRKNS1_15static_any_baseESE_RT_N4mpl_5bool_ILb0EEE
FN:137,141,_ZN5boost9unit_test8for_each4doneISt6vectorINS_17reference_wrapperIKNS_7runtime16parameter_cla_idEEESaIS8_EEEEbRKNS1_15static_any_baseESD_RT_N4mpl_5bool_ILb0EEE
FN:137,141,_ZN5boost9unit_test8for_each4doneISt6vectorINSt7__cxx1112basic_stringIcSt11char_traitsIcESaIcEEESaIS9_EEEEbRKNS1_15static_any_baseESE_RT_N4mpl_5bool_ILb0EEE
FN:137,141,_ZN5boost9unit_test8for_each4doneISt6vectorImSaImEEEEbRKNS1_15static_any_baseES8_RT_N4mpl_5bool_ILb0EEE
FN:147,151,_ZN5boost9unit_test8for_each4doneISt3mapINS0_13basic_cstringIKcEENS_10shared_ptrINS_7runtime11basic_paramEEENS8_16parameters_store10lg_compareESaISt4pairIKS6_SA_EEEEEbRKNS1_15static_any_baseESK_RKT_N4mpl_5bool_ILb1EEE
FN:147,151,_ZN5boost9unit_test8for_each4doneISt6vectorINS0_13basic_cstringIKcEESaIS6_EEEEbRKNS1_15static_any_baseESB_RKT_N4mpl_5bool_ILb1EEE
FN:147,151,_ZN5boost9unit_test8for_each4doneISt6vectorINS_10shared_ptrINS0_17test_unit_fixtureEEESaIS6_EEEEbRKNS1_15static_any_baseESB_RKT_N4mpl_5bool_ILb1EEE
FN:147,151,_ZN5boost9unit_test8for_each4doneISt6vectorINS_10shared_ptrINS0_9decorator4baseEEESaIS7_EEEEbRKNS1_15static_any_baseESC_RKT_N4mpl_5bool_ILb1EEE
FN:147,151,_ZN5boost9unit_test8for_each4doneISt6vectorINS_7runtime16parameter_cla_idESaIS5_EEEEbRKNS1_15static_any_baseESA_RKT_N4mpl_5bool_ILb1EEE
FN:147,151,_ZN5boost9unit_test8for_each4doneISt6vectorINS_8functionIFNS_10test_tools16assertion_resultEmEEESaIS8_EEEEbRKNS1_15static_any_baseESD_RKT_N4mpl_5bool_ILb1EEE
FN:147,151,_ZN5boost9unit_test8for_each4doneISt6vectorINSt7__cxx1112basic_stringIcSt11char_traitsIcESaIcEEESaIS9_EEEEbRKNS1_15static_any_baseESE_RKT_N4mpl_5bool_ILb1EEE
FN:147,151,_ZN5boost9unit_test8for_each4doneISt6vectorImSaImEEEEbRKNS1_15static_any_baseES8_RKT_N4mpl_5bool_ILb1EEE
FN:147,151,_ZN5boost9unit_test8for_each4doneISt8multimapImmSt4lessImESaISt4pairIKmmEEEEEbRKNS1_15static_any_baseESD_RKT_N4mpl_5bool_ILb1EEE
FN:161,164,_ZN5boost9unit_test8for_each4nextINS0_13basic_cstringIKcEEEEvRKNS1_15static_any_baseERT_N4mpl_5bool_ILb0EEE
FN:161,164,_ZN5boost9unit_test8for_each4nextISt3mapIcNS_10shared_ptrINS_7runtime3cla13rt_cla_detail14parameter_trieEEESt4lessIcESaISt4pairIKcS9_EEEEEvRKNS1_15static_any_baseERT_N4mpl_5bool_ILb0EEE
FN:161,164,_ZN5boost9unit_test8for_each4nextISt3setIPNS0_13test_observerENS0_9framework5state14priority_orderESaIS5_EEEEvRKNS1_15static_any_baseERT_N4mpl_5bool_ILb0EEE
FN:161,164,_ZN5boost9unit_test8for_each4nextISt3setIPNS0_14global_fixtureESt4lessIS5_ESaIS5_EEEEvRKNS1_15static_any_baseERT_N4mpl_5bool_ILb0EEE
FN:161,164,_ZN5boost9unit_test8for_each4nextISt6vectorINS_10shared_ptrINS_7runtime3cla13rt_cla_detail14parameter_trieEEESaIS9_EEEEvRKNS1_15static_any_baseERT_N4mpl_5bool_ILb0EEE
FN:161,164,_ZN5boost9unit_test8for_each4nextISt6vectorINS_17reference_wrapperIKNS_7runtime16parameter_cla_idEEESaIS8_EEEEvRKNS1_15static_any_baseERT_N4mpl_5bool_ILb0EEE
FN:161,164,_ZN5boost9unit_test8for_each4nextISt6vectorINSt7__cxx1112basic_stringIcSt11char_traitsIcESaIcEEESaIS9_EEEEvRKNS1_15static_any_baseERT_N4mpl_5bool_ILb0EEE
FN:161,164,_ZN5boost9unit_test8for_each4nextISt6vectorImSaImEEEEvRKNS1_15static_any_baseERT_N4mpl_5bool_ILb0EEE
FN:170,173,_ZN5boost9unit_test8for_each4nextISt3mapINS0_13basic_cstringIKcEENS_10shared_ptrINS_7runtime11basic_paramEEENS8_16parameters_store10lg_compareESaISt4pairIKS6_SA_EEEEEvRKNS1_15static_any_baseERKT_N4mpl_5bool_ILb1EEE
FN:170,173,_ZN5boost9unit_test8for_each4nextISt6vectorINS0_13basic_cstringIKcEESaIS6_EEEEvRKNS1_15static_any_baseERKT_N4mpl_5bool_ILb1EEE
FN:170,173,_ZN5boost9unit_test8for_each4nextISt6vectorINS_10shared_ptrINS0_17test_unit_fixtureEEESaIS6_EEEEvRKNS1_15static_any_baseERKT_N4mpl_5bool_ILb1EEE
FN:170,173,_ZN5boost9unit_test8for_each4nextISt6vectorINS_10shared_ptrINS0_9decorator4baseEEESaIS7_EEEEvRKNS1_15static_any_baseERKT_N4mpl_5bool_ILb1EEE
FN:170,173,_ZN5boost9unit_test8for_each4nextISt6vectorINS_7runtime16parameter_cla_idESaIS5_EEEEvRKNS1_15static_any_baseERKT_N4mpl_5bool_ILb1EEE
FN:170,173,_ZN5boost9unit_test8for_each4nextISt6vectorINS_8functionIFNS_10test_tools16assertion_resultEmEEESaIS8_EEEEvRKNS1_15static_any_baseERKT_N4mpl_5bool_ILb1EEE
FN:170,173,_ZN5boost9unit_test8for_each4nextISt6vectorINSt7__cxx1112basic_stringIcSt11char_traitsIcESaIcEEESaIS9_EEEEvRKNS1_15static_any_baseERKT_N4mpl_5bool_ILb1EEE
FN:170,173,_ZN5boost9unit_test8for_each4nextISt6vectorImSaImEEEEvRKNS1_15static_any_baseERKT_N4mpl_5bool_ILb1EEE
FN:170,173,_ZN5boost9unit_test8for_each4nextISt8multimapImmSt4lessImESaISt4pairIKmmEEEEEvRKNS1_15static_any_baseERKT_N4mpl_5bool_ILb1EEE
FN:183,186,_ZN5boost9unit_test8for_each4prevISt3setIPNS0_13test_observerENS0_9framework5state14priority_orderESaIS5_EEEEvRKNS1_15static_any_baseERT_N4mpl_5bool_ILb0EEE
FN:192,195,_ZN5boost9unit_test8for_each4prevISt6vectorINS_10shared_ptrINS0_17test_unit_fixtureEEESaIS6_EEEEvRKNS1_15static_any_baseERKT_N4mpl_5bool_ILb1EEE
FN:205,208,_ZN5boost9unit_test8for_each5derefINS_10shared_ptrINS_7runtime3cla13rt_cla_detail14parameter_trieEEESt6vectorIS8_SaIS8_EEEET_RKNS1_15static_any_baseERT0_NS_4typeISC_EEN4mpl_5bool_ILb0EEE
FN:205,208,_ZN5boost9unit_test8for_each5derefIPNS0_13test_observerESt3setIS4_NS0_9framework5state14priority_orderESaIS4_EEEET_RKNS1_15static_any_baseERT0_NS_4typeISB_EEN4mpl_5bool_ILb0EEE
FN:205,208,_ZN5boost9unit_test8for_each5derefIPNS0_14global_fixtureESt3setIS4_St4lessIS4_ESaIS4_EEEET_RKNS1_15static_any_baseERT0_NS_4typeISA_EEN4mpl_5bool_ILb0EEE
FN:205,208,_ZN5boost9unit_test8for_each5derefIPNS0_17test_unit_fixtureESt3setIPNS0_14global_fixtureESt4lessIS7_ESaIS7_EEEET_RKNS1_15static_any_baseERT0_NS_4typeISC_EEN4mpl_5bool_ILb0EEE
FN:205,208,_ZN5boost9unit_test8for_each5derefIRKNS_7runtime16parameter_cla_idESt6vectorINS_17reference_wrapperIS5_EESaIS9_EEEET_RKNS1_15static_any_baseERT0_NS_4typeISC_EEN4mpl_5bool_ILb0EEE
FN:205,208,_ZN5boost9unit_test8for_each5derefIRKNSt7__cxx1112basic_stringIcSt11char_traitsIcESaIcEEESt6vectorIS8_SaIS8_EEEET_RKNS1_15static_any_baseERT0_NS_4typeISE_EEN4mpl_5bool_ILb0EEE
FN:205,208,_ZN5boost9unit_test8for_each5derefIRKSt4pairIKcNS_10shared_ptrINS_7runtime3cla13rt_cla_detail14parameter_trieEEEESt3mapIcSA_St4lessIcESaISB_EEEET_RKNS1_15static_any_baseERT0_NS_4typeISJ_EEN4mpl_5bool_ILb0EEE
FN:205,208,_ZN5boost9unit_test8for_each5derefIcNS0_13basic_cstringIKcEEEET_RKNS1_15static_any_baseERT0_NS_4typeIS6_EEN4mpl_5bool_ILb0EEE
FN:205,208,_ZN5boost9unit_test8for_each5derefImSt6vectorImSaImEEEET_RKNS1_15static_any_baseERT0_NS_4typeIS6_EEN4mpl_5bool_ILb0EEE
FN:214,217,_ZN5boost9unit_test8for_each5derefINS0_13basic_cstringIKcEESt6vectorINSt7__cxx1112basic_stringIcSt11char_traitsIcESaIcEEESaISC_EEEET_RKNS1_15static_any_baseERKT0_NS_4typeISF_EEN4mpl_5bool_ILb1EEE
FN:214,217,_ZN5boost9unit_test8for_each5derefINS0_13basic_cstringIKcEESt6vectorIS5_SaIS5_EEEET_RKNS1_15static_any_baseERKT0_NS_4typeIS9_EEN4mpl_5bool_ILb1EEE
FN:214,217,_ZN5boost9unit_test8for_each5derefINS_10shared_ptrINS0_17test_unit_fixtureEEESt6vectorIS5_SaIS5_EEEET_RKNS1_15static_any_baseERKT0_NS_4typeIS9_EEN4mpl_5bool_ILb1EEE
FN:214,217,_ZN5boost9unit_test8for_each5derefINS_10shared_ptrINS0_9decorator4baseEEESt6vectorIS6_SaIS6_EEEET_RKNS1_15static_any_baseERKT0_NS_4typeISA_EEN4mpl_5bool_ILb1EEE
FN:214,217,_ZN5boost9unit_test8for_each5derefINS_8functionIFNS_10test_tools16assertion_resultEmEEESt6vectorIS7_SaIS7_EEEET_RKNS1_15static_any_baseERKT0_NS_4typeISB_EEN4mpl_5bool_ILb1EEE
FN:214,217,_ZN5boost9unit_test8for_each5derefIRKNS_7runtime16parameter_cla_idESt6vectorIS4_SaIS4_EEEET_RKNS1_15static_any_baseERKT0_NS_4typeISA_EEN4mpl_5bool_ILb1EEE
FN:214,217,_ZN5boost9unit_test8for_each5derefIRKNSt7__cxx1112basic_stringIcSt11char_traitsIcESaIcEEESt6vectorIS8_SaIS8_EEEET_RKNS1_15static_any_baseERKT0_NS_4typeISE_EEN4mpl_5bool_ILb1EEE
FN:214,217,_ZN5boost9unit_test8for_each5derefIRKSt4pairIKNS0_13basic_cstringIKcEENS_10shared_ptrINS_7runtime11basic_paramEEEESt3mapIS6_SB_NS9_16parameters_store10lg_compareESaISC_EEEET_RKNS1_15static_any_baseERKT0_NS_4typeISK_EEN4mpl_5bool_ILb1EEE
FN:214,217,_ZN5boost9unit_test8for_each5derefISt4pairImmESt8multimapImmSt4lessImESaIS3_IKmmEEEEET_RKNS1_15static_any_baseERKT0_NS_4typeISC_EEN4mpl_5bool_ILb1EEE
FN:214,217,_ZN5boost9unit_test8for_each5derefImSt6vectorImSaImEEEET_RKNS1_15static_any_baseERKT0_NS_4typeIS6_EEN4mpl_5bool_ILb1EEE
FN:46,46,_ZNK5boost9unit_test8for_each15static_any_basecvbEv
FN:54,54,_ZN5boost9unit_test8for_each10static_anyIN9__gnu_cxx17__normal_iteratorIPKNS0_13basic_cstringIKcEESt6vectorIS7_SaIS7_EEEEEC2ERKSD_
FN:54,54,_ZN5boost9unit_test8for_each10static_anyIN9__gnu_cxx17__normal_iteratorIPKNS_10shared_ptrINS0_17test_unit_fixtureEEESt6vectorIS7_SaIS7_EEEEEC2ERKSD_
FN:54,54,_ZN5boost9unit_test8for_each10static_anyIN9__gnu_cxx17__normal_iteratorIPKNS_10shared_ptrINS0_9decorator4baseEEESt6vectorIS8_SaIS8_EEEEEC2ERKSE_
FN:54,54,_ZN5boost9unit_test8for_each10static_anyIN9__gnu_cxx17__normal_iteratorIPKNS_7runtime16parameter_cla_idESt6vectorIS6_SaIS6_EEEEEC2ERKSC_
FN:54,54,_ZN5boost9unit_test8for_each10static_anyIN9__gnu_cxx17__normal_iteratorIPKNS_8functionIFNS_10test_tools16assertion_resultEmEEESt6vectorIS9_SaIS9_EEEEEC2ERKSF_
FN:54,54,_ZN5boost9unit_test8for_each10static_anyIN9__gnu_cxx17__normal_iteratorIPKNSt7__cxx1112basic_stringIcSt11char_traitsIcESaIcEEESt6vectorISA_SaISA_EEEEEC2ERKSG_
FN:54,54,_ZN5boost9unit_test8for_each10static_anyIN9__gnu_cxx17__normal_iteratorIPKmSt6vectorImSaImEEEEEC2ERKSA_
FN:54,54,_ZN5boost9unit_test8for_each10static_anyIN9__gnu_cxx17__normal_iteratorIPNS_10shared_ptrINS_7runtime3cla13rt_cla_detail14parameter_trieEEESt6vectorISA_SaISA_EEEEEC2ERKSF_
FN:54,54,_ZN5boost9unit_test8for_each10static_anyIN9__gnu_cxx17__normal_iteratorIPNS_17reference_wrapperIKNS_7runtime16parameter_cla_idEEESt6vectorIS9_SaIS9_EEEEEC2ERKSE_
FN:54,54,_ZN5boost9unit_test8for_each10static_anyIN9__gnu_cxx17__normal_iteratorIPNSt7__cxx1112basic_stringIcSt11char_traitsIcESaIcEEESt6vectorISA_SaISA_EEEEEC2ERKSF_
FN:54,54,_ZN5boost9unit_test8for_each10static_anyIN9__gnu_cxx17__normal_iteratorIPmSt6vectorImSaImEEEEEC2ERKS9_
FN:54,54,_ZN5boost9unit_test8for_each10static_anyIPKcEC2ERKS4_
FN:54,54,_ZN5boost9unit_test8for_each10static_anyISt17_Rb_tree_iteratorISt4pairIKcNS_10shared_ptrINS_7runtime3cla13rt_cla_detail14parameter_trieEEEEEEC2ERKSD_
FN:54,54,_ZN5boost9unit_test8for_each10static_anyISt23_Rb_tree_const_iteratorIPNS0_13test_observerEEEC2ERKS6_
FN:54,54,_ZN5boost9unit_test8for_each10static_anyISt23_Rb_tree_const_iteratorIPNS0_14global_fixtureEEEC2ERKS6_
FN:54,54,_ZN5boost9unit_test8for_each10static_anyISt23_Rb_tree_const_iteratorISt4pairIKNS0_13basic_cstringIKcEENS_10shared_ptrINS_7runtime11basic_paramEEEEEEC2ERKSE_
FN:54,54,_ZN5boost9unit_test8for_each10static_anyISt23_Rb_tree_const_iteratorISt4pairIKmmEEEC2ERKS7_
FN:67,70,_ZN5boost9unit_test8for_each15static_any_castIN9__gnu_cxx17__normal_iteratorIPKNS0_13basic_cstringIKcEESt6vectorIS7_SaIS7_EEEEEERT_RKNS1_15static_any_baseEPSE_
FN:67,70,_ZN5boost9unit_test8for_each15static_any_castIN9__gnu_cxx17__normal_iteratorIPKNS_10shared_ptrINS0_17test_unit_fixtureEEESt6vectorIS7_SaIS7_EEEEEERT_RKNS1_15static_any_baseEPSE_
FN:67,70,_ZN5boost9unit_test8for_each15static_any_castIN9__gnu_cxx17__normal_iteratorIPKNS_10shared_ptrINS0_9decorator4baseEEESt6vectorIS8_SaIS8_EEEEEERT_RKNS1_15static_any_baseEPSF_
FN:67,70,_ZN5boost9unit_test8for_each15static_any_castIN9__gnu_cxx17__normal_iteratorIPKNS_7runtime16parameter_cla_idESt6vectorIS6_SaIS6_EEEEEERT_RKNS1_15static_any_baseEPSD_
FN:67,70,_ZN5boost9unit_test8for_each15static_any_castIN9__gnu_cxx17__normal_iteratorIPKNS_8functionIFNS_10test_tools16assertion_resultEmEEESt6vectorIS9_SaIS9_EEEEEERT_RKNS1_15static_any_baseEPSG_
FN:67,70,_ZN5boost9unit_test8for_each15static_any_castIN9__gnu_cxx17__normal_iteratorIPKNSt7__cxx1112basic_stringIcSt11char_traitsIcESaIcEEESt6vectorISA_SaISA_EEEEEERT_RKNS1_15static_any_baseEPSH_
FN:67,70,_ZN5boost9unit_test8for_each15static_any_castIN9__gnu_cxx17__normal_iteratorIPKmSt6vectorImSaImEEEEEERT_RKNS1_15static_any_baseEPSB_
FN:67,70,_ZN5boost9unit_test8for_each15static_any_castIN9__gnu_cxx17__normal_iteratorIPNS_10shared_ptrINS_7runtime3cla13rt_cla_detail14parameter_trieEEESt6vectorISA_SaISA_EEEEEERT_RKNS1_15static_any_baseEPSG_
FN:67,70,_ZN5boost9unit_test8for_each15static_any_castIN9__gnu_cxx17__normal_iteratorIPNS_17reference_wrapperIKNS_7runtime16parameter_cla_idEEESt6vectorIS9_SaIS9_EEEEEERT_RKNS1_15static_any_baseEPSF_
FN:67,70,_ZN5boost9unit_test8for_each15static_any_castIN9__gnu_cxx17__normal_iteratorIPNSt7__cxx1112basic_stringIcSt11char_traitsIcESaIcEEESt6vectorISA_SaISA_EEEEEERT_RKNS1_15static_any_baseEPSG_
FN:67,70,_ZN5boost9unit_test8for_each15static_any_castIN9__gnu_cxx17__normal_iteratorIPmSt6vectorImSaImEEEEEERT_RKNS1_15static_any_baseEPSA_
FN:67,70,_ZN5boost9unit_test8for_each15static_any_castIPKcEERT_RKNS1_15static_any_baseEPS5_
FN:67,70,_ZN5boost9unit_test8for_each15static_any_castISt17_Rb_tree_iteratorISt4pairIKcNS_10shared_ptrINS_7runtime3cla13rt_cla_detail14parameter_trieEEEEEEERT_RKNS1_15static_any_baseEPSE_
FN:67,70,_ZN5boost9unit_test8for_each15static_any_castISt23_Rb_tree_const_iteratorIPNS0_13test_observerEEEERT_RKNS1_15static_any_baseEPS7_
FN:67,70,_ZN5boost9unit_test8for_each15static_any_castISt23_Rb_tree_const_iteratorIPNS0_14global_fixtureEEEERT_RKNS1_15static_any_baseEPS7_
FN:67,70,_ZN5boost9unit_test8for_each15static_any_castISt23_Rb_tree_const_iteratorISt4pairIKNS0_13basic_cstringIKcEENS_10shared_ptrINS_7runtime11basic_paramEEEEEEERT_RKNS1_15static_any_baseEPSF_
FN:67,70,_ZN5boost9unit_test8for_each15static_any_castISt23_Rb_tree_const_iteratorISt4pairIKmmEEEERT_RKNS1_15static_any_baseEPS8_
FN:80,83,_ZN5boost9unit_test8for_each13is_const_collIKSt3mapINS0_13basic_cstringIKcEENS_10shared_ptrINS_7runtime11basic_paramEEENS8_16parameters_store10lg_compareESaISt4pairIKS6_SA_EEEEENS_8is_constIT_EERSK_
FN:80,83,_ZN5boost9unit_test8for_each13is_const_collIKSt6vectorINS0_13basic_cstringIKcEESaIS6_EEEENS_8is_constIT_EERSB_
FN:80,83,_ZN5boost9unit_test8for_each13is_const_collIKSt6vectorINS_10shared_ptrINS0_17test_unit_fixtureEEESaIS6_EEEENS_8is_constIT_EERSB_
FN:80,83,_ZN5boost9unit_test8for_each13is_const_collIKSt6vectorINS_10shared_ptrINS0_9decorator4baseEEESaIS7_EEEENS_8is_constIT_EERSC_
FN:80,83,_ZN5boost9unit_test8for_each13is_const_collIKSt6vectorINS_7runtime16parameter_cla_idESaIS5_EEEENS_8is_constIT_EERSA_
FN:80,83,_ZN5boost9unit_test8for_each13is_const_collIKSt6vectorINS_8functionIFNS_10test_tools16assertion_resultEmEEESaIS8_EEEENS_8is_constIT_EERSD_
FN:80,83,_ZN5boost9unit_test8for_each13is_const_collIKSt6vectorINSt7__cxx1112basic_stringIcSt11char_traitsIcESaIcEEESaIS9_EEEENS_8is_constIT_EERSE_
FN:80,83,_ZN5boost9unit_test8for_each13is_const_collIKSt6vectorImSaImEEEENS_8is_constIT_EERS8_
FN:80,83,_ZN5boost9unit_test8for_each13is_const_collIKSt8multimapImmSt4lessImESaISt4pairIKmmEEEEENS_8is_constIT_EERSD_
FN:80,83,_ZN5boost9unit_test8for_each13is_const_collINS0_13basic_cstringIKcEEEENS_8is_constIT_EERS7_
FN:80,83,_ZN5boost9unit_test8for_each13is_const_collISt3mapIcNS_10shared_ptrINS_7runtime3cla13rt_cla_detail14parameter_trieEEESt4lessIcESaISt4pairIKcS9_EEEEENS_8is_constIT_EERSI_
FN:80,83,_ZN5boost9unit_test8for_each13is_const_collISt3setIPNS0_13test_observerENS0_9framework5state14priority_orderESaIS5_EEEENS_8is_constIT_EERSC_
FN:80,83,_ZN5boost9unit_test8for_each13is_const_collISt3setIPNS0_14global_fixtureESt4lessIS5_ESaIS5_EEEENS_8is_constIT_EERSB_
FN:80,83,_ZN5boost9unit_test8for_each13is_const_collISt6vectorINS_10shared_ptrINS_7runtime3cla13rt_cla_detail14parameter_trieEEESaIS9_EEEENS_8is_constIT_EERSD_
FN:80,83,_ZN5boost9unit_test8for_each13is_const_collISt6vectorINS_17reference_wrapperIKNS_7runtime16parameter_cla_idEEESaIS8_EEEENS_8is_constIT_EERSC_
FN:80,83,_ZN5boost9unit_test8for_each13is_const_collISt6vectorINSt7__cxx1112basic_stringIcSt11char_traitsIcESaIcEEESaIS9_EEEENS_8is_constIT_EERSD_
FN:80,83,_ZN5boost9unit_test8for_each13is_const_collISt6vectorImSaImEEEENS_8is_constIT_EERS7_
FN:93,96,_ZN5boost9unit_test8for_each5beginINS0_13basic_cstringIKcEEEENS1_10static_anyINT_8iteratorEEERS7_N4mpl_5bool_ILb0EEE
FN:93,96,_ZN5boost9unit_test8for_each5beginISt3mapIcNS_10shared_ptrINS_7runtime3cla13rt_cla_detail14parameter_trieEEESt4lessIcESaISt4pairIKcS9_EEEEENS1_10static_anyINT_8iteratorEEERSI_N4mpl_5bool_ILb0EEE
FN:93,96,_ZN5boost9unit_test8for_each5beginISt3setIPNS0_13test_observerENS0_9framework5state14priority_orderESaIS5_EEEENS1_10static_anyINT_8iteratorEEERSC_N4mpl_5bool_ILb0EEE
FN:93,96,_ZN5boost9unit_test8for_each5beginISt3setIPNS0_14global_fixtureESt4lessIS5_ESaIS5_EEEENS1_10static_anyINT_8iteratorEEERSB_N4mpl_5bool_ILb0EEE
FN:93,96,_ZN5boost9unit_test8for_each5beginISt6vectorINS_10shared_ptrINS_7runtime3cla13rt_cla_detail14parameter_trieEEESaIS9_EEEENS1_10static_anyINT_8iteratorEEERSD_N4mpl_5bool_ILb0EEE
FN:93,96,_ZN5boost9unit_test8for_each5beginISt6vectorINS_17reference_wrapperIKNS_7runtime16parameter_cla_idEEESaIS8_EEEENS1_10static_anyINT_8iteratorEEERSC_N4mpl_5bool_ILb0EEE
FN:93,96,_ZN5boost9unit_test8for_each5beginISt6vectorINSt7__cxx1112basic_stringIcSt11char_traitsIcESaIcEEESaIS9_EEEENS1_10static_anyINT_8iteratorEEERSD_N4mpl_5bool_ILb0EEE
FN:93,96,_ZN5boost9unit_test8for_each5beginISt6vectorImSaImEEEENS1_10static_anyINT_8iteratorEEERS7_N4mpl_5bool_ILb0EEE
FNDA:3,_ZN5boost9unit_test8for_each5beginISt3mapINS0_13basic_cstringIKcEENS_10shared_ptrINS_7runtime11basic_paramEEENS8_16parameters_store10lg_compareESaISt4pairIKS6_SA_EEEEENS1_10static_anyINT_14const_iteratorEEERKSJ_N4mpl_5bool_ILb1EEE
FNDA:0,_ZN5boost9unit_test8for_each5beginISt6vectorINS0_13basic_cstringIKcEESaIS6_EEEENS1_10static_anyINT_14const_iteratorEEERKSA_N4mpl_5bool_ILb1EEE
FNDA:108,_ZN5boost9unit_test8for_each5beginISt6vectorINS_10shared_ptrINS0_17test_unit_fixtureEEESaIS6_EEEENS1_10static_anyINT_14const_iteratorEEERKSA_N4mpl_5bool_ILb1EEE
FNDA:54,_ZN5boost9unit_test8for_each5beginISt6vectorINS_10shared_ptrINS0_9decorator4baseEEESaIS7_EEEENS1_10static_anyINT_14const_iteratorEEERKSB_N4mpl_5bool_ILb1EEE
FNDA:28,_ZN5boost9unit_test8for_each5beginISt6vectorINS_7runtime16parameter_cla_idESaIS5_EEEENS1_10static_anyINT_14const_iteratorEEERKS9_N4mpl_5bool_ILb1EEE
FNDA:54,_ZN5boost9unit_test8for_each5beginISt6vectorINS_8functionIFNS_10test_tools16assertion_resultEmEEESaIS8_EEEENS1_10static_anyINT_14const_iteratorEEERKSC_N4mpl_5bool_ILb1EEE
FNDA:0,_ZN5boost9unit_test8for_each5beginISt6vectorINSt7__cxx1112basic_stringIcSt11char_traitsIcESaIcEEESaIS9_EEEENS1_10static_anyINT_14const_iteratorEEERKSD_N4mpl_5bool_ILb1EEE
FNDA:163,_ZN5boost9unit_test8for_each5beginISt6vectorImSaImEEEENS1_10static_anyINT_14const_iteratorEEERKS7_N4mpl_5bool_ILb1EEE
FNDA:1,_ZN5boost9unit_test8for_each5beginISt8multimapImmSt4lessImESaISt4pairIKmmEEEEENS1_10static_anyINT_14const_iteratorEEERKSC_N4mpl_5bool_ILb1EEE
FNDA:0,_ZN5boost9unit_test8for_each3endINS0_13basic_cstringIKcEEEENS1_10static_anyINT_8iteratorEEERS7_N4mpl_5bool_ILb0EEE
FNDA:0,_ZN5boost9unit_test8for_each3endISt3mapIcNS_10shared_ptrINS_7runtime3cla13rt_cla_detail14parameter_trieEEESt4lessIcESaISt4pairIKcS9_EEEEENS1_10static_anyINT_8iteratorEEERSI_N4mpl_5bool_ILb0EEE
FNDA:272,_ZN5boost9unit_test8for_each3endISt3setIPNS0_13test_observerENS0_9framework5state14priority_orderESaIS5_EEEENS1_10static_anyINT_8iteratorEEERSC_N4mpl_5bool_ILb0EEE
FNDA:2,_ZN5boost9unit_test8for_each3endISt3setIPNS0_14global_fixtureESt4lessIS5_ESaIS5_EEEENS1_10static_anyINT_8iteratorEEERSB_N4mpl_5bool_ILb0EEE
FNDA:0,_ZN5boost9unit_test8for_each3endISt6vectorINS_10shared_ptrINS_7runtime3cla13rt_cla_detail14parameter_trieEEESaIS9_EEEENS1_10static_anyINT_8iteratorEEERSD_N4mpl_5bool_ILb0EEE
FNDA:0,_ZN5boost9unit_test8for_each3endISt6vectorINS_17reference_wrapperIKNS_7runtime16parameter_cla_idEEESaIS8_EEEENS1_10static_anyINT_8iteratorEEERSC_N4mpl_5bool_ILb0EEE
FNDA:0,_ZN5boost9unit_test8for_each3endISt6vectorINSt7__cxx1112basic_stringIcSt11char_traitsIcESaIcEEESaIS9_EEEENS1_10static_anyINT_8iteratorEEERSD_N4mpl_5bool_ILb0EEE
FNDA:2,_ZN5boost9unit_test8for_each3endISt6vectorImSaImEEEENS1_10static_anyINT_8iteratorEEERS7_N4mpl_5bool_ILb0EEE
FNDA:3,_ZN5boost9unit_test8for_each3endISt3mapINS0_13basic_cstringIKcEENS_10shared_ptrINS_7runtime11basic_paramEEENS8_16parameters_store10lg_compareESaISt4pairIKS6_SA_EEEEENS1_10static_anyINT_14const_iteratorEEERKSJ_N4mpl_5bool_ILb1EEE
FNDA:0,_ZN5boost9unit_test8for_each3endISt6vectorINS0_13basic_cstringIKcEESaIS6_EEEENS1_10static_anyINT_14const_iteratorEEERKSA_N4mpl_5bool_ILb1EEE
FNDA:108,_ZN5boost9unit_test8for_each3endISt6vectorINS_10shared_ptrINS0_17test_unit_fixtureEEESaIS6_EEEENS1_10static_anyINT_14const_iteratorEEERKSA_N4mpl_5bool_ILb1EEE
FNDA:54,_ZN5boost9unit_test8for_each3endISt6vectorINS_10shared_ptrINS0_9decorator4baseEEESaIS7_EEEENS1_10static_anyINT_14const_iteratorEEERKSB_N4mpl_5bool_ILb1EEE
FNDA:28,_ZN5boost9unit_test8for_each3endISt6vectorINS_7runtime16parameter_cla_idESaIS5_EEEENS1_10static_anyINT_14const_iteratorEEERKS9_N4mpl_5bool_ILb1EEE
FNDA:54,_ZN5boost9unit_test8for_each3endISt6vectorINS_8functionIFNS_10test_tools16assertion_resultEmEEESaIS8_EEEENS1_10static_anyINT_14const_iteratorEEERKSC_N4mpl_5bool_ILb1EEE
FNDA:0,_ZN5boost9unit_test8for_each3endISt6vectorINSt7__cxx1112basic_stringIcSt11char_traitsIcESaIcEEESaIS9_EEEENS1_10static_anyINT_14const_iteratorEEERKSD_N4mpl_5bool_ILb1EEE
FNDA:163,_ZN5boost9unit_test8for_each3endISt6vectorImSaImEEEENS1_10static_anyINT_14const_iteratorEEERKS7_N4mpl_5bool_ILb1EEE
FNDA:1,_ZN5boost9unit_test8for_each3endISt8multimapImmSt4lessImESaISt4pairIKmmEEEEENS1_10static_anyINT_14const_iteratorEEERKSC_N4mpl_5bool_ILb1EEE
FNDA:0,_ZN5boost9unit_test8for_each4doneINS0_13basic_cstringIKcEEEEbRKNS1_15static_any_baseES8_RT_N4mpl_5bool_ILb0EEE
FNDA:0,_ZN5boost9unit_test8for_each4doneISt3mapIcNS_10shared_ptrINS_7runtime3cla13rt_cla_detail14parameter_trieEEESt4lessIcESaISt4pairIKcS9_EEEEEbRKNS1_15static_any_baseESJ_RT_N4mpl_5bool_ILb0EEE
FNDA:818,_ZN5boost9unit_test8for_each4doneISt3setIPNS0_13test_observerENS0_9framework5state14priority_orderESaIS5_EEEEbRKNS1_15static_any_baseESD_RT_N4mpl_5bool_ILb0EEE
FNDA:2,_ZN5boost9unit_test8for_each4doneISt3setIPNS0_14global_fixtureESt4lessIS5_ESaIS5_EEEEbRKNS1_15static_any_baseESC_RT_N4mpl_5bool_ILb0EEE
FNDA:0,_ZN5boost9unit_test8for_each4doneISt6vectorINS_10shared_ptrINS_7runtime3cla13rt_cla_detail14parameter_trieEEESaIS9_EEEEbRKNS1_15static_any_baseESE_RT_N4mpl_5bool_ILb0EEE
FNDA:0,_ZN5boost9unit_test8for_each4doneISt6vectorINS_17reference_wrapperIKNS_7runtime16parameter_cla_idEEESaIS8_EEEEbRKNS1_15static_any_baseESD_RT_N4mpl_5bool_ILb0EEE
FNDA:0,_ZN5boost9unit_test8for_each4doneISt6vectorINSt7__cxx1112basic_stringIcSt11char_traitsIcESaIcEEESaIS9_EEEEbRKNS1_15static_any_baseESE_RT_N4mpl_5bool_ILb0EEE
FNDA:108,_ZN5boost9unit_test8for_each4doneISt6vectorImSaImEEEEbRKNS1_15static_any_baseES8_RT_N4mpl_5bool_ILb0EEE
FNDA:87,_ZN5boost9unit_test8for_each4doneISt3mapINS0_13basic_cstringIKcEENS_10shared_ptrINS_7runtime11basic_paramEEENS8_16parameters_store10lg_compareESaISt4pairIKS6_SA_EEEEEbRKNS1_15static_any_baseESK_RKT_N4mpl_5bool_ILb1EEE
FNDA:0,_ZN5boost9unit_test8for_each4doneISt6vectorINS0_13basic_cstringIKcEESaIS6_EEEEbRKNS1_15static_any_baseESB_RKT_N4mpl_5bool_ILb1EEE
FNDA:108,_ZN5boost9unit_test8for_each4doneISt6vectorINS_10shared_ptrINS0_17test_unit_fixtureEEESaIS6_EEEEbRKNS1_15static_any_baseESB_RKT_N4mpl_5bool_ILb1EEE
FNDA:54,_ZN5boost9unit_test8for_each4doneISt6vectorINS_10shared_ptrINS0_9decorator4baseEEESaIS7_EEEEbRKNS1_15static_any_baseESC_RKT_N4mpl_5bool_ILb1EEE
FNDA:99,_ZN5boost9unit_test8for_each4doneISt6vectorINS_7runtime16parameter_cla_idESaIS5_EEEEbRKNS1_15static_any_baseESA_RKT_N4mpl_5bool_ILb1EEE
FNDA:54,_ZN5boost9unit_test8for_each4doneISt6vectorINS_8functionIFNS_10test_tools16assertion_resultEmEEESaIS8_EEEEbRKNS1_15static_any_baseESD_RKT_N4mpl_5bool_ILb1EEE
FNDA:0,_ZN5boost9unit_test8for_each4doneISt6vectorINSt7__cxx1112basic_stringIcSt11char_traitsIcESaIcEEESaIS9_EEEEbRKNS1_15static_any_baseESE_RKT_N4mpl_5bool_ILb1EEE
